 capldll

 Timestamp is 5cce831a (Sun May 05 14:30:50 2019)

 Preferred load address is 10000000

 Start         Length     Name                   Class
 0001:00000000 0000023dH .text$di                CODE
 0001:00000240 00056bfcH .text$mn                CODE
 0001:00056e40 00000d73H .text$x                 CODE
 0001:00057bc0 0000008fH .text$yd                CODE
 0002:00000000 00000154H .idata$5                DATA
 0002:00000154 00000004H .CRT$XCA                DATA
 0002:00000158 00000004H .CRT$XCC                DATA
 0002:0000015c 0000004cH .CRT$XCU                DATA
 0002:000001a8 00000004H .CRT$XCZ                DATA
 0002:000001ac 00000004H .CRT$XIA                DATA
 0002:000001b0 00000010H .CRT$XIC                DATA
 0002:000001c0 00000004H .CRT$XIZ                DATA
 0002:000001c4 00000004H .CRT$XPA                DATA
 0002:000001c8 00000008H .CRT$XPX                DATA
 0002:000001d0 00000004H .CRT$XPXA               DATA
 0002:000001d4 00000004H .CRT$XPZ                DATA
 0002:000001d8 00000004H .CRT$XTA                DATA
 0002:000001dc 00000004H .CRT$XTZ                DATA
 0002:000001e0 000108c8H .rdata                  DATA
 0002:00010aa8 00000090H .rdata$debug            DATA
 0002:00010b38 0000077cH .rdata$r                DATA
 0002:000112c0 00000104H .rdata$sxdata           DATA
 0002:000113c4 00000004H .rtc$IAA                DATA
 0002:000113c8 00000004H .rtc$IZZ                DATA
 0002:000113cc 00000004H .rtc$TAA                DATA
 0002:000113d0 00000004H .rtc$TZZ                DATA
 0002:000113d8 00001a1cH .xdata$x                DATA
 0002:00012e00 00000131H .edata                  DATA
 0002:00012f34 00000028H .idata$2                DATA
 0002:00012f5c 00000014H .idata$3                DATA
 0002:00012f70 00000154H .idata$4                DATA
 0002:000130c4 0000061eH .idata$6                DATA
 0003:00000000 00002248H .data                   DATA
 0003:00002248 0000031fH .data$r                 DATA
 0003:00002580 00002128H .bss                    DATA
 0004:00000000 00000058H .rsrc$01                DATA
 0004:00000060 00000180H .rsrc$02                DATA

  Address         Publics by Value              Rva+Base       Lib:Object

 0000:00000000       ___guard_fids_count        00000000     <absolute>
 0000:00000000       ___guard_flags             00000000     <absolute>
 0000:00000000       ___guard_fids_table        00000000     <absolute>
 0000:00000000       __except_list              00000000     <absolute>
 0000:00000041       ___safe_se_handler_count   00000041     <absolute>
 0000:00000000       ___ImageBase               10000000     <linker-defined>
 0001:00000240       _VIARegisterCDLL@4         10001240 f   capldll.obj
 0001:00000290       ??0CaplInstanceData@@QAE@PAVVIACapl@@@Z 10001290 f   capldll.obj
 0001:000002e0       ?GetCallbackFunctions@CaplInstanceData@@QAEXXZ 100012e0 f   capldll.obj
 0001:00000390       ?ReleaseCallbackFunctions@CaplInstanceData@@QAEXXZ 10001390 f   capldll.obj
 0001:00000460       ?ShowValue@CaplInstanceData@@QAEKK@Z 10001460 f   capldll.obj
 0001:000004b0       ?ShowDates@CaplInstanceData@@QAEKFKF@Z 100014b0 f   capldll.obj
 0001:00000540       ?DllInfo@CaplInstanceData@@QAEXPAD@Z 10001540 f   capldll.obj
 0001:000005d0       ?ArrayValues@CaplInstanceData@@QAEXKKQAEE@Z 100015d0 f   capldll.obj
 0001:00000670       ?DllVersion@CaplInstanceData@@QAEXPAD@Z 10001670 f   capldll.obj
 0001:00000830       ?GetCaplInstanceData@@YAPAVCaplInstanceData@@K@Z 10001830 f   capldll.obj
 0001:00000910       ?appInit@@YGXK@Z           10001910 f   capldll.obj
 0001:00000a80       ?appEnd@@YGXK@Z            10001a80 f   capldll.obj
 0001:00000ae0       ?ClearAll@@YAXXZ           10001ae0 f   capldll.obj
 0001:00000c30       ?appCrc16@@YGJQAEJ@Z       10001c30 f   capldll.obj
 0001:00000cb0       ?appGetMAC@@YAHXZ          10001cb0 f   capldll.obj
 0001:00000ef0       ?appGetMac1@@YGJXZ         10001ef0 f   capldll.obj
 0001:00000f10       ?appGetMac2@@YGJXZ         10001f10 f   capldll.obj
 0001:00000f30       ?appSubtract@@YGJJJ@Z      10001f30 f   capldll.obj
 0001:00000f50       _DllMain@12                10001f50 f   capldll.obj
 0001:00001010       ??$?0AAV?$_Tree_iterator@V?$_Tree_val@U?$_Tree_simple_types@U?$pair@$$CBKPAVCaplInstanceData@@@std@@@std@@@std@@@std@@AAV01@X@?$pair@V?$_Tree_iterator@V?$_Tree_val@U?$_Tree_simple_types@U?$pair@$$CBKPAVCaplInstanceData@@@std@@@std@@@std@@@std@@V12@@std@@QAE@AAV?$_Tree_iterator@V?$_Tree_val@U?$_Tree_simple_types@U?$pair@$$CBKPAVCaplInstanceData@@@std@@@std@@@std@@@1@0@Z 10002010 f i capldll.obj
 0001:00001090       ??$?0AAV?$_Tree_iterator@V?$_Tree_val@U?$_Tree_simple_types@U?$pair@$$CBKPAVCaplInstanceData@@@std@@@std@@@std@@@std@@_NX@?$pair@V?$_Tree_iterator@V?$_Tree_val@U?$_Tree_simple_types@U?$pair@$$CBKPAVCaplInstanceData@@@std@@@std@@@std@@@std@@_N@std@@QAE@AAV?$_Tree_iterator@V?$_Tree_val@U?$_Tree_simple_types@U?$pair@$$CBKPAVCaplInstanceData@@@std@@@std@@@std@@@1@$$QA_N@Z 10002090 f i capldll.obj
 0001:00001110       ??$?0AAV?$_Tree_iterator@V?$_Tree_val@U?$_Tree_simple_types@U?$pair@$$CBKPAVVIACapl@@@std@@@std@@@std@@@std@@_NX@?$pair@V?$_Tree_iterator@V?$_Tree_val@U?$_Tree_simple_types@U?$pair@$$CBKPAVVIACapl@@@std@@@std@@@std@@@std@@_N@std@@QAE@AAV?$_Tree_iterator@V?$_Tree_val@U?$_Tree_simple_types@U?$pair@$$CBKPAVVIACapl@@@std@@@std@@@std@@@1@$$QA_N@Z 10002110 f i capldll.obj
 0001:00001190       ??$?0ABK$$$V@?$pair@$$CBKPAVCaplInstanceData@@@std@@QAE@Upiecewise_construct_t@1@V?$tuple@ABK@1@V?$tuple@$$$V@1@@Z 10002190 f i capldll.obj
 0001:000011d0       ??$?0ABK$$$V@?$pair@$$CBKPAVVIACapl@@@std@@QAE@Upiecewise_construct_t@1@V?$tuple@ABK@1@V?$tuple@$$$V@1@@Z 100021d0 f i capldll.obj
 0001:00001210       ??$?0ABK@?$_Tuple_val@ABK@std@@QAE@ABK@Z 10002210 f i capldll.obj
 0001:00001240       ??$?0ABKPAPAX@?$tuple@ABK@std@@QAE@$$QAV01@@Z 10002240 f i capldll.obj
 0001:00001290       ??$?0U?$_Tree_node@U?$pair@$$CBKPAVCaplInstanceData@@@std@@PAX@std@@@?$allocator@U_Container_proxy@std@@@std@@QAE@ABV?$allocator@U?$_Tree_node@U?$pair@$$CBKPAVCaplInstanceData@@@std@@PAX@std@@@1@@Z 10002290 f i capldll.obj
 0001:000012a0       ??$?0U?$_Tree_node@U?$pair@$$CBKPAVVIACapl@@@std@@PAX@std@@@?$allocator@U_Container_proxy@std@@@std@@QAE@ABV?$allocator@U?$_Tree_node@U?$pair@$$CBKPAVVIACapl@@@std@@PAX@std@@@1@@Z 100022a0 f i capldll.obj
 0001:000012b0       ??$?0U?$_Wrap_alloc@V?$allocator@U?$_Tree_node@U?$pair@$$CBKPAVCaplInstanceData@@@std@@PAX@std@@@std@@@std@@@?$_Wrap_alloc@V?$allocator@U_Container_proxy@std@@@std@@@std@@QAE@ABU?$_Wrap_alloc@V?$allocator@U?$_Tree_node@U?$pair@$$CBKPAVCaplInstanceData@@@std@@PAX@std@@@std@@@1@@Z 100022b0 f i capldll.obj
 0001:000012d0       ??$?0U?$_Wrap_alloc@V?$allocator@U?$_Tree_node@U?$pair@$$CBKPAVVIACapl@@@std@@PAX@std@@@std@@@std@@@?$_Wrap_alloc@V?$allocator@U_Container_proxy@std@@@std@@@std@@QAE@ABU?$_Wrap_alloc@V?$allocator@U?$_Tree_node@U?$pair@$$CBKPAVVIACapl@@@std@@PAX@std@@@std@@@1@@Z 100022d0 f i capldll.obj
 0001:000012f0       ??$?0V?$_Tree_iterator@V?$_Tree_val@U?$_Tree_simple_types@U?$pair@$$CBKPAVCaplInstanceData@@@std@@@std@@@std@@@std@@_NX@?$pair@V?$_Tree_iterator@V?$_Tree_val@U?$_Tree_simple_types@U?$pair@$$CBKPAVCaplInstanceData@@@std@@@std@@@std@@@std@@_N@std@@QAE@$$QAV?$_Tree_iterator@V?$_Tree_val@U?$_Tree_simple_types@U?$pair@$$CBKPAVCaplInstanceData@@@std@@@std@@@std@@@1@$$QA_N@Z 100022f0 f i capldll.obj
 0001:00001370       ??$?0V?$_Tree_iterator@V?$_Tree_val@U?$_Tree_simple_types@U?$pair@$$CBKPAVVIACapl@@@std@@@std@@@std@@@std@@_NX@?$pair@V?$_Tree_iterator@V?$_Tree_val@U?$_Tree_simple_types@U?$pair@$$CBKPAVVIACapl@@@std@@@std@@@std@@@std@@_N@std@@QAE@$$QAV?$_Tree_iterator@V?$_Tree_val@U?$_Tree_simple_types@U?$pair@$$CBKPAVVIACapl@@@std@@@std@@@std@@@1@$$QA_N@Z 10002370 f i capldll.obj
 0001:000013f0       ??$?0V?$tuple@ABK@std@@V?$tuple@$$$V@1@$0A@$S@?$pair@$$CBKPAVCaplInstanceData@@@std@@QAE@AAV?$tuple@ABK@1@AAV?$tuple@$$$V@1@U?$_Arg_idx@$0A@@1@U?$_Arg_idx@$S@1@@Z 100023f0 f i capldll.obj
 0001:00001430       ??$?0V?$tuple@ABK@std@@V?$tuple@$$$V@1@$0A@$S@?$pair@$$CBKPAVVIACapl@@@std@@QAE@AAV?$tuple@ABK@1@AAV?$tuple@$$$V@1@U?$_Arg_idx@$0A@@1@U?$_Arg_idx@$S@1@@Z 10002430 f i capldll.obj
 0001:00001470       ??$_Allocate@U?$_Tree_node@U?$pair@$$CBKPAVCaplInstanceData@@@std@@PAX@std@@@std@@YAPAU?$_Tree_node@U?$pair@$$CBKPAVCaplInstanceData@@@std@@PAX@0@IPAU10@@Z 10002470 f i capldll.obj
 0001:000014b0       ??$_Allocate@U?$_Tree_node@U?$pair@$$CBKPAVVIACapl@@@std@@PAX@std@@@std@@YAPAU?$_Tree_node@U?$pair@$$CBKPAVVIACapl@@@std@@PAX@0@IPAU10@@Z 100024b0 f i capldll.obj
 0001:000014f0       ??$_Allocate@U_Container_proxy@std@@@std@@YAPAU_Container_proxy@0@IPAU10@@Z 100024f0 f i capldll.obj
 0001:00001530       ??$_Buynode@ABUpiecewise_construct_t@std@@V?$tuple@ABK@2@V?$tuple@$$$V@2@@?$_Tree_buy@U?$pair@$$CBKPAVCaplInstanceData@@@std@@V?$allocator@U?$pair@$$CBKPAVCaplInstanceData@@@std@@@2@@std@@QAEPAU?$_Tree_node@U?$pair@$$CBKPAVCaplInstanceData@@@std@@PAX@1@ABUpiecewise_construct_t@1@$$QAV?$tuple@ABK@1@$$QAV?$tuple@$$$V@1@@Z 10002530 f i capldll.obj
 0001:00001640       ??$_Buynode@ABUpiecewise_construct_t@std@@V?$tuple@ABK@2@V?$tuple@$$$V@2@@?$_Tree_buy@U?$pair@$$CBKPAVVIACapl@@@std@@V?$allocator@U?$pair@$$CBKPAVVIACapl@@@std@@@2@@std@@QAEPAU?$_Tree_node@U?$pair@$$CBKPAVVIACapl@@@std@@PAX@1@ABUpiecewise_construct_t@1@$$QAV?$tuple@ABK@1@$$QAV?$tuple@$$$V@1@@Z 10002640 f i capldll.obj
 0001:00001750       ??$_Buynode_if_nil@AAU?$pair@$$CBKPAVCaplInstanceData@@@std@@@?$_Tree@V?$_Tmap_traits@KPAVCaplInstanceData@@U?$less@K@std@@V?$allocator@U?$pair@$$CBKPAVCaplInstanceData@@@std@@@3@$0A@@std@@@std@@IAEPAU?$_Tree_node@U?$pair@$$CBKPAVCaplInstanceData@@@std@@PAX@1@PAU21@AAU?$pair@$$CBKPAVCaplInstanceData@@@1@@Z 10002750 f i capldll.obj
 0001:00001760       ??$_Buynode_if_nil@AAU?$pair@$$CBKPAVVIACapl@@@std@@@?$_Tree@V?$_Tmap_traits@KPAVVIACapl@@U?$less@K@std@@V?$allocator@U?$pair@$$CBKPAVVIACapl@@@std@@@3@$0A@@std@@@std@@IAEPAU?$_Tree_node@U?$pair@$$CBKPAVVIACapl@@@std@@PAX@1@PAU21@AAU?$pair@$$CBKPAVVIACapl@@@1@@Z 10002760 f i capldll.obj
 0001:00001770       ??$_Debug_lt_pred@U?$less@K@std@@ABKABK@std@@YA_NU?$less@K@0@ABK1PB_WI@Z 10002770 f i capldll.obj
 0001:000017f0       ??$_Distance2@V?$_Tree_iterator@V?$_Tree_val@U?$_Tree_simple_types@U?$pair@$$CBKPAVCaplInstanceData@@@std@@@std@@@std@@@std@@I@std@@YAXV?$_Tree_iterator@V?$_Tree_val@U?$_Tree_simple_types@U?$pair@$$CBKPAVCaplInstanceData@@@std@@@std@@@std@@@0@0AAIUbidirectional_iterator_tag@0@@Z 100027f0 f i capldll.obj
 0001:00001870       ??$_Distance@V?$_Tree_iterator@V?$_Tree_val@U?$_Tree_simple_types@U?$pair@$$CBKPAVCaplInstanceData@@@std@@@std@@@std@@@std@@I@std@@YAXV?$_Tree_iterator@V?$_Tree_val@U?$_Tree_simple_types@U?$pair@$$CBKPAVCaplInstanceData@@@std@@@std@@@std@@@0@0AAI@Z 10002870 f i capldll.obj
 0001:00001920       ??$_Insert_at@AAU?$pair@$$CBKPAVCaplInstanceData@@@std@@PAU?$_Tree_node@U?$pair@$$CBKPAVCaplInstanceData@@@std@@PAX@2@@?$_Tree@V?$_Tmap_traits@KPAVCaplInstanceData@@U?$less@K@std@@V?$allocator@U?$pair@$$CBKPAVCaplInstanceData@@@std@@@3@$0A@@std@@@std@@IAE?AV?$_Tree_iterator@V?$_Tree_val@U?$_Tree_simple_types@U?$pair@$$CBKPAVCaplInstanceData@@@std@@@std@@@std@@@1@_NPAU?$_Tree_node@U?$pair@$$CBKPAVCaplInstanceData@@@std@@PAX@1@AAU?$pair@$$CBKPAVCaplInstanceData@@@1@1@Z 10002920 f i capldll.obj
 0001:00001d60       ??$_Insert_at@AAU?$pair@$$CBKPAVVIACapl@@@std@@PAU?$_Tree_node@U?$pair@$$CBKPAVVIACapl@@@std@@PAX@2@@?$_Tree@V?$_Tmap_traits@KPAVVIACapl@@U?$less@K@std@@V?$allocator@U?$pair@$$CBKPAVVIACapl@@@std@@@3@$0A@@std@@@std@@IAE?AV?$_Tree_iterator@V?$_Tree_val@U?$_Tree_simple_types@U?$pair@$$CBKPAVVIACapl@@@std@@@std@@@std@@@1@_NPAU?$_Tree_node@U?$pair@$$CBKPAVVIACapl@@@std@@PAX@1@AAU?$pair@$$CBKPAVVIACapl@@@1@1@Z 10002d60 f i capldll.obj
 0001:000021a0       ??$_Insert_hint@AAU?$pair@$$CBKPAVCaplInstanceData@@@std@@PAU?$_Tree_node@U?$pair@$$CBKPAVCaplInstanceData@@@std@@PAX@2@@?$_Tree@V?$_Tmap_traits@KPAVCaplInstanceData@@U?$less@K@std@@V?$allocator@U?$pair@$$CBKPAVCaplInstanceData@@@std@@@3@$0A@@std@@@std@@IAE?AV?$_Tree_iterator@V?$_Tree_val@U?$_Tree_simple_types@U?$pair@$$CBKPAVCaplInstanceData@@@std@@@std@@@std@@@1@V?$_Tree_const_iterator@V?$_Tree_val@U?$_Tree_simple_types@U?$pair@$$CBKPAVCaplInstanceData@@@std@@@std@@@std@@@1@AAU?$pair@$$CBKPAVCaplInstanceData@@@1@PAU?$_Tree_node@U?$pair@$$CBKPAVCaplInstanceData@@@std@@PAX@1@@Z 100031a0 f i capldll.obj
 0001:00003280       ??$_Insert_hint@AAU?$pair@$$CBKPAVVIACapl@@@std@@PAU?$_Tree_node@U?$pair@$$CBKPAVVIACapl@@@std@@PAX@2@@?$_Tree@V?$_Tmap_traits@KPAVVIACapl@@U?$less@K@std@@V?$allocator@U?$pair@$$CBKPAVVIACapl@@@std@@@3@$0A@@std@@@std@@IAE?AV?$_Tree_iterator@V?$_Tree_val@U?$_Tree_simple_types@U?$pair@$$CBKPAVVIACapl@@@std@@@std@@@std@@@1@V?$_Tree_const_iterator@V?$_Tree_val@U?$_Tree_simple_types@U?$pair@$$CBKPAVVIACapl@@@std@@@std@@@std@@@1@AAU?$pair@$$CBKPAVVIACapl@@@1@PAU?$_Tree_node@U?$pair@$$CBKPAVVIACapl@@@std@@PAX@1@@Z 10004280 f i capldll.obj
 0001:00004360       ??$_Insert_nohint@AAU?$pair@$$CBKPAVCaplInstanceData@@@std@@PAU?$_Tree_node@U?$pair@$$CBKPAVCaplInstanceData@@@std@@PAX@2@@?$_Tree@V?$_Tmap_traits@KPAVCaplInstanceData@@U?$less@K@std@@V?$allocator@U?$pair@$$CBKPAVCaplInstanceData@@@std@@@3@$0A@@std@@@std@@IAE?AU?$pair@V?$_Tree_iterator@V?$_Tree_val@U?$_Tree_simple_types@U?$pair@$$CBKPAVCaplInstanceData@@@std@@@std@@@std@@@std@@_N@1@_NAAU?$pair@$$CBKPAVCaplInstanceData@@@1@PAU?$_Tree_node@U?$pair@$$CBKPAVCaplInstanceData@@@std@@PAX@1@@Z 10005360 f i capldll.obj
 0001:00004820       ??$_Insert_nohint@AAU?$pair@$$CBKPAVVIACapl@@@std@@PAU?$_Tree_node@U?$pair@$$CBKPAVVIACapl@@@std@@PAX@2@@?$_Tree@V?$_Tmap_traits@KPAVVIACapl@@U?$less@K@std@@V?$allocator@U?$pair@$$CBKPAVVIACapl@@@std@@@3@$0A@@std@@@std@@IAE?AU?$pair@V?$_Tree_iterator@V?$_Tree_val@U?$_Tree_simple_types@U?$pair@$$CBKPAVVIACapl@@@std@@@std@@@std@@@std@@_N@1@_NAAU?$pair@$$CBKPAVVIACapl@@@1@PAU?$_Tree_node@U?$pair@$$CBKPAVVIACapl@@@std@@PAX@1@@Z 10005820 f i capldll.obj
 0001:00004ce0       ??$_Iter_cat@V?$_Tree_iterator@V?$_Tree_val@U?$_Tree_simple_types@U?$pair@$$CBKPAVCaplInstanceData@@@std@@@std@@@std@@@std@@@std@@YA?AUbidirectional_iterator_tag@0@ABV?$_Tree_iterator@V?$_Tree_val@U?$_Tree_simple_types@U?$pair@$$CBKPAVCaplInstanceData@@@std@@@std@@@std@@@0@@Z 10005ce0 f i capldll.obj
 0001:00004d00       ??$_Kfn@$$CBKPAVCaplInstanceData@@@?$_Tmap_traits@KPAVCaplInstanceData@@U?$less@K@std@@V?$allocator@U?$pair@$$CBKPAVCaplInstanceData@@@std@@@3@$0A@@std@@SAABKABU?$pair@$$CBKPAVCaplInstanceData@@@1@@Z 10005d00 f i capldll.obj
 0001:00004d10       ??$_Kfn@$$CBKPAVVIACapl@@@?$_Tmap_traits@KPAVVIACapl@@U?$less@K@std@@V?$allocator@U?$pair@$$CBKPAVVIACapl@@@std@@@3@$0A@@std@@SAABKABU?$pair@$$CBKPAVVIACapl@@@1@@Z 10005d10 f i capldll.obj
 0001:00004d20       ??$_Move@AAD@std@@YA$$QADAAD@Z 10005d20 f i capldll.obj
 0001:00004d30       ??$_splitpath_s@$02$0BAA@$0BAA@$0BAA@@@YAHPBDAAY02DAAY0BAA@D22@Z 10005d30 f i capldll.obj
 0001:00004d70       ??$addressof@PAU?$_Tree_node@U?$pair@$$CBKPAVCaplInstanceData@@@std@@PAX@std@@@std@@YAPAPAU?$_Tree_node@U?$pair@$$CBKPAVCaplInstanceData@@@std@@PAX@0@AAPAU10@@Z 10005d70 f i capldll.obj
 0001:00004d80       ??$addressof@PAU?$_Tree_node@U?$pair@$$CBKPAVVIACapl@@@std@@PAX@std@@@std@@YAPAPAU?$_Tree_node@U?$pair@$$CBKPAVVIACapl@@@std@@PAX@0@AAPAU10@@Z 10005d80 f i capldll.obj
 0001:00004d90       ??$addressof@U?$pair@$$CBKPAVCaplInstanceData@@@std@@@std@@YAPAU?$pair@$$CBKPAVCaplInstanceData@@@0@AAU10@@Z 10005d90 f i capldll.obj
 0001:00004da0       ??$addressof@U?$pair@$$CBKPAVVIACapl@@@std@@@std@@YAPAU?$pair@$$CBKPAVVIACapl@@@0@AAU10@@Z 10005da0 f i capldll.obj
 0001:00004db0       ??$construct@PAU?$_Tree_node@U?$pair@$$CBKPAVCaplInstanceData@@@std@@PAX@std@@AAPAU12@@?$_Wrap_alloc@V?$allocator@U?$_Tree_node@U?$pair@$$CBKPAVCaplInstanceData@@@std@@PAX@std@@@std@@@std@@QAEXPAPAU?$_Tree_node@U?$pair@$$CBKPAVCaplInstanceData@@@std@@PAX@1@AAPAU21@@Z 10005db0 f i capldll.obj
 0001:00004de0       ??$construct@PAU?$_Tree_node@U?$pair@$$CBKPAVCaplInstanceData@@@std@@PAX@std@@AAPAU12@@?$allocator@U?$_Tree_node@U?$pair@$$CBKPAVCaplInstanceData@@@std@@PAX@std@@@std@@QAEXPAPAU?$_Tree_node@U?$pair@$$CBKPAVCaplInstanceData@@@std@@PAX@1@AAPAU21@@Z 10005de0 f i capldll.obj
 0001:00004e70       ??$construct@PAU?$_Tree_node@U?$pair@$$CBKPAVCaplInstanceData@@@std@@PAX@std@@AAPAU12@@?$allocator_traits@V?$allocator@U?$_Tree_node@U?$pair@$$CBKPAVCaplInstanceData@@@std@@PAX@std@@@std@@@std@@SAXAAV?$allocator@U?$_Tree_node@U?$pair@$$CBKPAVCaplInstanceData@@@std@@PAX@std@@@1@PAPAU?$_Tree_node@U?$pair@$$CBKPAVCaplInstanceData@@@std@@PAX@1@AAPAU31@@Z 10005e70 f i capldll.obj
 0001:00004e90       ??$construct@PAU?$_Tree_node@U?$pair@$$CBKPAVVIACapl@@@std@@PAX@std@@AAPAU12@@?$_Wrap_alloc@V?$allocator@U?$_Tree_node@U?$pair@$$CBKPAVVIACapl@@@std@@PAX@std@@@std@@@std@@QAEXPAPAU?$_Tree_node@U?$pair@$$CBKPAVVIACapl@@@std@@PAX@1@AAPAU21@@Z 10005e90 f i capldll.obj
 0001:00004ec0       ??$construct@PAU?$_Tree_node@U?$pair@$$CBKPAVVIACapl@@@std@@PAX@std@@AAPAU12@@?$allocator@U?$_Tree_node@U?$pair@$$CBKPAVVIACapl@@@std@@PAX@std@@@std@@QAEXPAPAU?$_Tree_node@U?$pair@$$CBKPAVVIACapl@@@std@@PAX@1@AAPAU21@@Z 10005ec0 f i capldll.obj
 0001:00004f50       ??$construct@PAU?$_Tree_node@U?$pair@$$CBKPAVVIACapl@@@std@@PAX@std@@AAPAU12@@?$allocator_traits@V?$allocator@U?$_Tree_node@U?$pair@$$CBKPAVVIACapl@@@std@@PAX@std@@@std@@@std@@SAXAAV?$allocator@U?$_Tree_node@U?$pair@$$CBKPAVVIACapl@@@std@@PAX@std@@@1@PAPAU?$_Tree_node@U?$pair@$$CBKPAVVIACapl@@@std@@PAX@1@AAPAU31@@Z 10005f50 f i capldll.obj
 0001:00004f70       ??$construct@U?$pair@$$CBKPAVCaplInstanceData@@@std@@ABUpiecewise_construct_t@2@V?$tuple@ABK@2@V?$tuple@$$$V@2@@?$_Wrap_alloc@V?$allocator@U?$_Tree_node@U?$pair@$$CBKPAVCaplInstanceData@@@std@@PAX@std@@@std@@@std@@QAEXPAU?$pair@$$CBKPAVCaplInstanceData@@@1@ABUpiecewise_construct_t@1@$$QAV?$tuple@ABK@1@$$QAV?$tuple@$$$V@1@@Z 10005f70 f i capldll.obj
 0001:00004fc0       ??$construct@U?$pair@$$CBKPAVCaplInstanceData@@@std@@ABUpiecewise_construct_t@2@V?$tuple@ABK@2@V?$tuple@$$$V@2@@?$allocator@U?$_Tree_node@U?$pair@$$CBKPAVCaplInstanceData@@@std@@PAX@std@@@std@@QAEXPAU?$pair@$$CBKPAVCaplInstanceData@@@1@ABUpiecewise_construct_t@1@$$QAV?$tuple@ABK@1@$$QAV?$tuple@$$$V@1@@Z 10005fc0 f i capldll.obj
 0001:00005080       ??$construct@U?$pair@$$CBKPAVCaplInstanceData@@@std@@ABUpiecewise_construct_t@2@V?$tuple@ABK@2@V?$tuple@$$$V@2@@?$allocator_traits@V?$allocator@U?$_Tree_node@U?$pair@$$CBKPAVCaplInstanceData@@@std@@PAX@std@@@std@@@std@@SAXAAV?$allocator@U?$_Tree_node@U?$pair@$$CBKPAVCaplInstanceData@@@std@@PAX@std@@@1@PAU?$pair@$$CBKPAVCaplInstanceData@@@1@ABUpiecewise_construct_t@1@$$QAV?$tuple@ABK@1@$$QAV?$tuple@$$$V@1@@Z 10006080 f i capldll.obj
 0001:000050c0       ??$construct@U?$pair@$$CBKPAVVIACapl@@@std@@ABUpiecewise_construct_t@2@V?$tuple@ABK@2@V?$tuple@$$$V@2@@?$_Wrap_alloc@V?$allocator@U?$_Tree_node@U?$pair@$$CBKPAVVIACapl@@@std@@PAX@std@@@std@@@std@@QAEXPAU?$pair@$$CBKPAVVIACapl@@@1@ABUpiecewise_construct_t@1@$$QAV?$tuple@ABK@1@$$QAV?$tuple@$$$V@1@@Z 100060c0 f i capldll.obj
 0001:00005110       ??$construct@U?$pair@$$CBKPAVVIACapl@@@std@@ABUpiecewise_construct_t@2@V?$tuple@ABK@2@V?$tuple@$$$V@2@@?$allocator@U?$_Tree_node@U?$pair@$$CBKPAVVIACapl@@@std@@PAX@std@@@std@@QAEXPAU?$pair@$$CBKPAVVIACapl@@@1@ABUpiecewise_construct_t@1@$$QAV?$tuple@ABK@1@$$QAV?$tuple@$$$V@1@@Z 10006110 f i capldll.obj
 0001:000051d0       ??$construct@U?$pair@$$CBKPAVVIACapl@@@std@@ABUpiecewise_construct_t@2@V?$tuple@ABK@2@V?$tuple@$$$V@2@@?$allocator_traits@V?$allocator@U?$_Tree_node@U?$pair@$$CBKPAVVIACapl@@@std@@PAX@std@@@std@@@std@@SAXAAV?$allocator@U?$_Tree_node@U?$pair@$$CBKPAVVIACapl@@@std@@PAX@std@@@1@PAU?$pair@$$CBKPAVVIACapl@@@1@ABUpiecewise_construct_t@1@$$QAV?$tuple@ABK@1@$$QAV?$tuple@$$$V@1@@Z 100061d0 f i capldll.obj
 0001:00005210       ??$construct@U_Container_proxy@std@@U12@@?$_Wrap_alloc@V?$allocator@U_Container_proxy@std@@@std@@@std@@QAEXPAU_Container_proxy@1@$$QAU21@@Z 10006210 f i capldll.obj
 0001:00005240       ??$construct@U_Container_proxy@std@@U12@@?$allocator@U_Container_proxy@std@@@std@@QAEXPAU_Container_proxy@1@$$QAU21@@Z 10006240 f i capldll.obj
 0001:000052d0       ??$construct@U_Container_proxy@std@@U12@@?$allocator_traits@V?$allocator@U_Container_proxy@std@@@std@@@std@@SAXAAV?$allocator@U_Container_proxy@std@@@1@PAU_Container_proxy@1@$$QAU31@@Z 100062d0 f i capldll.obj
 0001:000052f0       ??$destroy@PAU?$_Tree_node@U?$pair@$$CBKPAVCaplInstanceData@@@std@@PAX@std@@@?$_Wrap_alloc@V?$allocator@U?$_Tree_node@U?$pair@$$CBKPAVCaplInstanceData@@@std@@PAX@std@@@std@@@std@@QAEXPAPAU?$_Tree_node@U?$pair@$$CBKPAVCaplInstanceData@@@std@@PAX@1@@Z 100062f0 f i capldll.obj
 0001:00005310       ??$destroy@PAU?$_Tree_node@U?$pair@$$CBKPAVCaplInstanceData@@@std@@PAX@std@@@?$allocator@U?$_Tree_node@U?$pair@$$CBKPAVCaplInstanceData@@@std@@PAX@std@@@std@@QAEXPAPAU?$_Tree_node@U?$pair@$$CBKPAVCaplInstanceData@@@std@@PAX@1@@Z 10006310 f i capldll.obj
 0001:00005320       ??$destroy@PAU?$_Tree_node@U?$pair@$$CBKPAVCaplInstanceData@@@std@@PAX@std@@@?$allocator_traits@V?$allocator@U?$_Tree_node@U?$pair@$$CBKPAVCaplInstanceData@@@std@@PAX@std@@@std@@@std@@SAXAAV?$allocator@U?$_Tree_node@U?$pair@$$CBKPAVCaplInstanceData@@@std@@PAX@std@@@1@PAPAU?$_Tree_node@U?$pair@$$CBKPAVCaplInstanceData@@@std@@PAX@1@@Z 10006320 f i capldll.obj
 0001:00005340       ??$destroy@PAU?$_Tree_node@U?$pair@$$CBKPAVVIACapl@@@std@@PAX@std@@@?$_Wrap_alloc@V?$allocator@U?$_Tree_node@U?$pair@$$CBKPAVVIACapl@@@std@@PAX@std@@@std@@@std@@QAEXPAPAU?$_Tree_node@U?$pair@$$CBKPAVVIACapl@@@std@@PAX@1@@Z 10006340 f i capldll.obj
 0001:00005360       ??$destroy@PAU?$_Tree_node@U?$pair@$$CBKPAVVIACapl@@@std@@PAX@std@@@?$allocator@U?$_Tree_node@U?$pair@$$CBKPAVVIACapl@@@std@@PAX@std@@@std@@QAEXPAPAU?$_Tree_node@U?$pair@$$CBKPAVVIACapl@@@std@@PAX@1@@Z 10006360 f i capldll.obj
 0001:00005370       ??$destroy@PAU?$_Tree_node@U?$pair@$$CBKPAVVIACapl@@@std@@PAX@std@@@?$allocator_traits@V?$allocator@U?$_Tree_node@U?$pair@$$CBKPAVVIACapl@@@std@@PAX@std@@@std@@@std@@SAXAAV?$allocator@U?$_Tree_node@U?$pair@$$CBKPAVVIACapl@@@std@@PAX@std@@@1@PAPAU?$_Tree_node@U?$pair@$$CBKPAVVIACapl@@@std@@PAX@1@@Z 10006370 f i capldll.obj
 0001:00005390       ??$destroy@U?$pair@$$CBKPAVCaplInstanceData@@@std@@@?$_Wrap_alloc@V?$allocator@U?$_Tree_node@U?$pair@$$CBKPAVCaplInstanceData@@@std@@PAX@std@@@std@@@std@@QAEXPAU?$pair@$$CBKPAVCaplInstanceData@@@1@@Z 10006390 f i capldll.obj
 0001:000053b0       ??$destroy@U?$pair@$$CBKPAVCaplInstanceData@@@std@@@?$allocator@U?$_Tree_node@U?$pair@$$CBKPAVCaplInstanceData@@@std@@PAX@std@@@std@@QAEXPAU?$pair@$$CBKPAVCaplInstanceData@@@1@@Z 100063b0 f i capldll.obj
 0001:000053c0       ??$destroy@U?$pair@$$CBKPAVCaplInstanceData@@@std@@@?$allocator_traits@V?$allocator@U?$_Tree_node@U?$pair@$$CBKPAVCaplInstanceData@@@std@@PAX@std@@@std@@@std@@SAXAAV?$allocator@U?$_Tree_node@U?$pair@$$CBKPAVCaplInstanceData@@@std@@PAX@std@@@1@PAU?$pair@$$CBKPAVCaplInstanceData@@@1@@Z 100063c0 f i capldll.obj
 0001:000053e0       ??$destroy@U?$pair@$$CBKPAVVIACapl@@@std@@@?$_Wrap_alloc@V?$allocator@U?$_Tree_node@U?$pair@$$CBKPAVVIACapl@@@std@@PAX@std@@@std@@@std@@QAEXPAU?$pair@$$CBKPAVVIACapl@@@1@@Z 100063e0 f i capldll.obj
 0001:00005400       ??$destroy@U?$pair@$$CBKPAVVIACapl@@@std@@@?$allocator@U?$_Tree_node@U?$pair@$$CBKPAVVIACapl@@@std@@PAX@std@@@std@@QAEXPAU?$pair@$$CBKPAVVIACapl@@@1@@Z 10006400 f i capldll.obj
 0001:00005410       ??$destroy@U?$pair@$$CBKPAVVIACapl@@@std@@@?$allocator_traits@V?$allocator@U?$_Tree_node@U?$pair@$$CBKPAVVIACapl@@@std@@PAX@std@@@std@@@std@@SAXAAV?$allocator@U?$_Tree_node@U?$pair@$$CBKPAVVIACapl@@@std@@PAX@std@@@1@PAU?$pair@$$CBKPAVVIACapl@@@1@@Z 10006410 f i capldll.obj
 0001:00005430       ??$destroy@U_Container_proxy@std@@@?$_Wrap_alloc@V?$allocator@U_Container_proxy@std@@@std@@@std@@QAEXPAU_Container_proxy@1@@Z 10006430 f i capldll.obj
 0001:00005450       ??$destroy@U_Container_proxy@std@@@?$allocator@U_Container_proxy@std@@@std@@QAEXPAU_Container_proxy@1@@Z 10006450 f i capldll.obj
 0001:00005460       ??$destroy@U_Container_proxy@std@@@?$allocator_traits@V?$allocator@U_Container_proxy@std@@@std@@@std@@SAXAAV?$allocator@U_Container_proxy@std@@@1@PAU_Container_proxy@1@@Z 10006460 f i capldll.obj
 0001:00005480       ??$emplace_hint@ABUpiecewise_construct_t@std@@V?$tuple@ABK@2@V?$tuple@$$$V@2@@?$_Tree@V?$_Tmap_traits@KPAVCaplInstanceData@@U?$less@K@std@@V?$allocator@U?$pair@$$CBKPAVCaplInstanceData@@@std@@@3@$0A@@std@@@std@@QAE?AV?$_Tree_iterator@V?$_Tree_val@U?$_Tree_simple_types@U?$pair@$$CBKPAVCaplInstanceData@@@std@@@std@@@std@@@1@V?$_Tree_const_iterator@V?$_Tree_val@U?$_Tree_simple_types@U?$pair@$$CBKPAVCaplInstanceData@@@std@@@std@@@std@@@1@ABUpiecewise_construct_t@1@$$QAV?$tuple@ABK@1@$$QAV?$tuple@$$$V@1@@Z 10006480 f i capldll.obj
 0001:00005550       ??$emplace_hint@ABUpiecewise_construct_t@std@@V?$tuple@ABK@2@V?$tuple@$$$V@2@@?$_Tree@V?$_Tmap_traits@KPAVVIACapl@@U?$less@K@std@@V?$allocator@U?$pair@$$CBKPAVVIACapl@@@std@@@3@$0A@@std@@@std@@QAE?AV?$_Tree_iterator@V?$_Tree_val@U?$_Tree_simple_types@U?$pair@$$CBKPAVVIACapl@@@std@@@std@@@std@@@1@V?$_Tree_const_iterator@V?$_Tree_val@U?$_Tree_simple_types@U?$pair@$$CBKPAVVIACapl@@@std@@@std@@@std@@@1@ABUpiecewise_construct_t@1@$$QAV?$tuple@ABK@1@$$QAV?$tuple@$$$V@1@@Z 10006550 f i capldll.obj
 0001:00005620       ??$forward@AAPAU?$_Tree_node@U?$pair@$$CBKPAVCaplInstanceData@@@std@@PAX@std@@@std@@YAAAPAU?$_Tree_node@U?$pair@$$CBKPAVCaplInstanceData@@@std@@PAX@0@AAPAU10@@Z 10006620 f i capldll.obj
 0001:00005630       ??$forward@AAPAU?$_Tree_node@U?$pair@$$CBKPAVVIACapl@@@std@@PAX@std@@@std@@YAAAPAU?$_Tree_node@U?$pair@$$CBKPAVVIACapl@@@std@@PAX@0@AAPAU10@@Z 10006630 f i capldll.obj
 0001:00005640       ??$forward@AAU?$pair@$$CBKPAVCaplInstanceData@@@std@@@std@@YAAAU?$pair@$$CBKPAVCaplInstanceData@@@0@AAU10@@Z 10006640 f i capldll.obj
 0001:00005650       ??$forward@AAU?$pair@$$CBKPAVVIACapl@@@std@@@std@@YAAAU?$pair@$$CBKPAVVIACapl@@@0@AAU10@@Z 10006650 f i capldll.obj
 0001:00005660       ??$forward@AAV?$_Tree_iterator@V?$_Tree_val@U?$_Tree_simple_types@U?$pair@$$CBKPAVCaplInstanceData@@@std@@@std@@@std@@@std@@@std@@YAAAV?$_Tree_iterator@V?$_Tree_val@U?$_Tree_simple_types@U?$pair@$$CBKPAVCaplInstanceData@@@std@@@std@@@std@@@0@AAV10@@Z 10006660 f i capldll.obj
 0001:00005670       ??$forward@AAV?$_Tree_iterator@V?$_Tree_val@U?$_Tree_simple_types@U?$pair@$$CBKPAVVIACapl@@@std@@@std@@@std@@@std@@@std@@YAAAV?$_Tree_iterator@V?$_Tree_val@U?$_Tree_simple_types@U?$pair@$$CBKPAVVIACapl@@@std@@@std@@@std@@@0@AAV10@@Z 10006670 f i capldll.obj
 0001:00005680       ??$forward@ABK@std@@YAABKABK@Z 10006680 f i capldll.obj
 0001:00005690       ??$forward@ABUpiecewise_construct_t@std@@@std@@YAABUpiecewise_construct_t@0@ABU10@@Z 10006690 f i capldll.obj
 0001:000056a0       ??$forward@U_Container_proxy@std@@@std@@YA$$QAU_Container_proxy@0@AAU10@@Z 100066a0 f i capldll.obj
 0001:000056b0       ??$forward@V?$_Tree_iterator@V?$_Tree_val@U?$_Tree_simple_types@U?$pair@$$CBKPAVCaplInstanceData@@@std@@@std@@@std@@@std@@@std@@YA$$QAV?$_Tree_iterator@V?$_Tree_val@U?$_Tree_simple_types@U?$pair@$$CBKPAVCaplInstanceData@@@std@@@std@@@std@@@0@AAV10@@Z 100066b0 f i capldll.obj
 0001:000056c0       ??$forward@V?$_Tree_iterator@V?$_Tree_val@U?$_Tree_simple_types@U?$pair@$$CBKPAVVIACapl@@@std@@@std@@@std@@@std@@@std@@YA$$QAV?$_Tree_iterator@V?$_Tree_val@U?$_Tree_simple_types@U?$pair@$$CBKPAVVIACapl@@@std@@@std@@@std@@@0@AAV10@@Z 100066c0 f i capldll.obj
 0001:000056d0       ??$forward@V?$tuple@$$$V@std@@@std@@YA$$QAV?$tuple@$$$V@0@AAV10@@Z 100066d0 f i capldll.obj
 0001:000056e0       ??$forward@V?$tuple@ABK@std@@@std@@YA$$QAV?$tuple@ABK@0@AAV10@@Z 100066e0 f i capldll.obj
 0001:000056f0       ??$forward@_N@std@@YA$$QA_NAA_N@Z 100066f0 f i capldll.obj
 0001:00005700       ??$forward_as_tuple@ABK@std@@YA?AV?$tuple@ABK@0@ABK@Z 10006700 f i capldll.obj
 0001:00005720       ??$get@$0A@ABK@std@@YAABK$$QAV?$tuple@ABK@0@@Z 10006720 f i capldll.obj
 0001:00005740       ??$move@AAV?$tuple@ABK@std@@@std@@YA$$QAV?$tuple@ABK@0@AAV10@@Z 10006740 f i capldll.obj
 0001:00005750       ??$strcpy_s@$0BAA@@@YAHAAY0BAA@DPBD@Z 10006750 f i capldll.obj
 0001:00005770       ??$swap@D@std@@YAXAAD0@Z   10006770 f i capldll.obj
 0001:000057b0       ??0?$_Iterator012@Ubidirectional_iterator_tag@std@@U?$pair@$$CBKPAVCaplInstanceData@@@2@HPBU32@ABU32@U_Iterator_base12@2@@std@@QAE@ABU01@@Z 100067b0 f i capldll.obj
 0001:000057d0       ??0?$_Iterator012@Ubidirectional_iterator_tag@std@@U?$pair@$$CBKPAVCaplInstanceData@@@2@HPBU32@ABU32@U_Iterator_base12@2@@std@@QAE@XZ 100067d0 f i capldll.obj
 0001:000057f0       ??0?$_Iterator012@Ubidirectional_iterator_tag@std@@U?$pair@$$CBKPAVVIACapl@@@2@HPBU32@ABU32@U_Iterator_base12@2@@std@@QAE@ABU01@@Z 100067f0 f i capldll.obj
 0001:00005810       ??0?$_Iterator012@Ubidirectional_iterator_tag@std@@U?$pair@$$CBKPAVVIACapl@@@2@HPBU32@ABU32@U_Iterator_base12@2@@std@@QAE@XZ 10006810 f i capldll.obj
 0001:00005830       ??0?$_Tree@V?$_Tmap_traits@KPAVCaplInstanceData@@U?$less@K@std@@V?$allocator@U?$pair@$$CBKPAVCaplInstanceData@@@std@@@3@$0A@@std@@@std@@QAE@ABU?$less@K@1@ABV?$allocator@U?$pair@$$CBKPAVCaplInstanceData@@@std@@@1@@Z 10006830 f i capldll.obj
 0001:00005850       ??0?$_Tree@V?$_Tmap_traits@KPAVVIACapl@@U?$less@K@std@@V?$allocator@U?$pair@$$CBKPAVVIACapl@@@std@@@3@$0A@@std@@@std@@QAE@ABU?$less@K@1@ABV?$allocator@U?$pair@$$CBKPAVVIACapl@@@std@@@1@@Z 10006850 f i capldll.obj
 0001:00005870       ??0?$_Tree_alloc@$0A@U?$_Tree_base_types@U?$pair@$$CBKPAVCaplInstanceData@@@std@@V?$allocator@U?$pair@$$CBKPAVCaplInstanceData@@@std@@@2@@std@@@std@@QAE@ABV?$allocator@U?$pair@$$CBKPAVCaplInstanceData@@@std@@@1@@Z 10006870 f i capldll.obj
 0001:00005920       ??0?$_Tree_alloc@$0A@U?$_Tree_base_types@U?$pair@$$CBKPAVVIACapl@@@std@@V?$allocator@U?$pair@$$CBKPAVVIACapl@@@std@@@2@@std@@@std@@QAE@ABV?$allocator@U?$pair@$$CBKPAVVIACapl@@@std@@@1@@Z 10006920 f i capldll.obj
 0001:000059d0       ??0?$_Tree_buy@U?$pair@$$CBKPAVCaplInstanceData@@@std@@V?$allocator@U?$pair@$$CBKPAVCaplInstanceData@@@std@@@2@@std@@QAE@ABV?$allocator@U?$pair@$$CBKPAVCaplInstanceData@@@std@@@1@@Z 100069d0 f i capldll.obj
 0001:000059f0       ??0?$_Tree_buy@U?$pair@$$CBKPAVVIACapl@@@std@@V?$allocator@U?$pair@$$CBKPAVVIACapl@@@std@@@2@@std@@QAE@ABV?$allocator@U?$pair@$$CBKPAVVIACapl@@@std@@@1@@Z 100069f0 f i capldll.obj
 0001:00005a10       ??0?$_Tree_comp@$0A@V?$_Tmap_traits@KPAVCaplInstanceData@@U?$less@K@std@@V?$allocator@U?$pair@$$CBKPAVCaplInstanceData@@@std@@@3@$0A@@std@@@std@@QAE@ABU?$less@K@1@ABV?$allocator@U?$pair@$$CBKPAVCaplInstanceData@@@std@@@1@@Z 10006a10 f i capldll.obj
 0001:00005a30       ??0?$_Tree_comp@$0A@V?$_Tmap_traits@KPAVVIACapl@@U?$less@K@std@@V?$allocator@U?$pair@$$CBKPAVVIACapl@@@std@@@3@$0A@@std@@@std@@QAE@ABU?$less@K@1@ABV?$allocator@U?$pair@$$CBKPAVVIACapl@@@std@@@1@@Z 10006a30 f i capldll.obj
 0001:00005a50       ??0?$_Tree_const_iterator@V?$_Tree_val@U?$_Tree_simple_types@U?$pair@$$CBKPAVCaplInstanceData@@@std@@@std@@@std@@@std@@QAE@ABV01@@Z 10006a50 f i capldll.obj
 0001:00005a70       ??0?$_Tree_const_iterator@V?$_Tree_val@U?$_Tree_simple_types@U?$pair@$$CBKPAVCaplInstanceData@@@std@@@std@@@std@@@std@@QAE@PAU?$_Tree_node@U?$pair@$$CBKPAVCaplInstanceData@@@std@@PAX@1@PBV?$_Tree_val@U?$_Tree_simple_types@U?$pair@$$CBKPAVCaplInstanceData@@@std@@@std@@@1@@Z 10006a70 f i capldll.obj
 0001:00005a90       ??0?$_Tree_const_iterator@V?$_Tree_val@U?$_Tree_simple_types@U?$pair@$$CBKPAVCaplInstanceData@@@std@@@std@@@std@@@std@@QAE@XZ 10006a90 f i capldll.obj
 0001:00005ab0       ??0?$_Tree_const_iterator@V?$_Tree_val@U?$_Tree_simple_types@U?$pair@$$CBKPAVVIACapl@@@std@@@std@@@std@@@std@@QAE@ABV01@@Z 10006ab0 f i capldll.obj
 0001:00005ad0       ??0?$_Tree_const_iterator@V?$_Tree_val@U?$_Tree_simple_types@U?$pair@$$CBKPAVVIACapl@@@std@@@std@@@std@@@std@@QAE@PAU?$_Tree_node@U?$pair@$$CBKPAVVIACapl@@@std@@PAX@1@PBV?$_Tree_val@U?$_Tree_simple_types@U?$pair@$$CBKPAVVIACapl@@@std@@@std@@@1@@Z 10006ad0 f i capldll.obj
 0001:00005af0       ??0?$_Tree_const_iterator@V?$_Tree_val@U?$_Tree_simple_types@U?$pair@$$CBKPAVVIACapl@@@std@@@std@@@std@@@std@@QAE@XZ 10006af0 f i capldll.obj
 0001:00005b10       ??0?$_Tree_iterator@V?$_Tree_val@U?$_Tree_simple_types@U?$pair@$$CBKPAVCaplInstanceData@@@std@@@std@@@std@@@std@@QAE@ABV01@@Z 10006b10 f i capldll.obj
 0001:00005b30       ??0?$_Tree_iterator@V?$_Tree_val@U?$_Tree_simple_types@U?$pair@$$CBKPAVCaplInstanceData@@@std@@@std@@@std@@@std@@QAE@PAU?$_Tree_node@U?$pair@$$CBKPAVCaplInstanceData@@@std@@PAX@1@PBV?$_Tree_val@U?$_Tree_simple_types@U?$pair@$$CBKPAVCaplInstanceData@@@std@@@std@@@1@@Z 10006b30 f i capldll.obj
 0001:00005b50       ??0?$_Tree_iterator@V?$_Tree_val@U?$_Tree_simple_types@U?$pair@$$CBKPAVVIACapl@@@std@@@std@@@std@@@std@@QAE@ABV01@@Z 10006b50 f i capldll.obj
 0001:00005b70       ??0?$_Tree_iterator@V?$_Tree_val@U?$_Tree_simple_types@U?$pair@$$CBKPAVVIACapl@@@std@@@std@@@std@@@std@@QAE@PAU?$_Tree_node@U?$pair@$$CBKPAVVIACapl@@@std@@PAX@1@PBV?$_Tree_val@U?$_Tree_simple_types@U?$pair@$$CBKPAVVIACapl@@@std@@@std@@@1@@Z 10006b70 f i capldll.obj
 0001:00005b90       ??0?$_Tree_unchecked_const_iterator@V?$_Tree_val@U?$_Tree_simple_types@U?$pair@$$CBKPAVCaplInstanceData@@@std@@@std@@@std@@U_Iterator_base12@2@@std@@QAE@ABV01@@Z 10006b90 f i capldll.obj
 0001:00005bc0       ??0?$_Tree_unchecked_const_iterator@V?$_Tree_val@U?$_Tree_simple_types@U?$pair@$$CBKPAVCaplInstanceData@@@std@@@std@@@std@@U_Iterator_base12@2@@std@@QAE@PAU?$_Tree_node@U?$pair@$$CBKPAVCaplInstanceData@@@std@@PAX@1@PBV?$_Tree_val@U?$_Tree_simple_types@U?$pair@$$CBKPAVCaplInstanceData@@@std@@@std@@@1@@Z 10006bc0 f i capldll.obj
 0001:00005c30       ??0?$_Tree_unchecked_const_iterator@V?$_Tree_val@U?$_Tree_simple_types@U?$pair@$$CBKPAVCaplInstanceData@@@std@@@std@@@std@@U_Iterator_base12@2@@std@@QAE@XZ 10006c30 f i capldll.obj
 0001:00005c50       ??0?$_Tree_unchecked_const_iterator@V?$_Tree_val@U?$_Tree_simple_types@U?$pair@$$CBKPAVVIACapl@@@std@@@std@@@std@@U_Iterator_base12@2@@std@@QAE@ABV01@@Z 10006c50 f i capldll.obj
 0001:00005c80       ??0?$_Tree_unchecked_const_iterator@V?$_Tree_val@U?$_Tree_simple_types@U?$pair@$$CBKPAVVIACapl@@@std@@@std@@@std@@U_Iterator_base12@2@@std@@QAE@PAU?$_Tree_node@U?$pair@$$CBKPAVVIACapl@@@std@@PAX@1@PBV?$_Tree_val@U?$_Tree_simple_types@U?$pair@$$CBKPAVVIACapl@@@std@@@std@@@1@@Z 10006c80 f i capldll.obj
 0001:00005cf0       ??0?$_Tree_unchecked_const_iterator@V?$_Tree_val@U?$_Tree_simple_types@U?$pair@$$CBKPAVVIACapl@@@std@@@std@@@std@@U_Iterator_base12@2@@std@@QAE@XZ 10006cf0 f i capldll.obj
 0001:00005d10       ??0?$_Tree_val@U?$_Tree_simple_types@U?$pair@$$CBKPAVCaplInstanceData@@@std@@@std@@@std@@QAE@XZ 10006d10 f i capldll.obj
 0001:00005d40       ??0?$_Tree_val@U?$_Tree_simple_types@U?$pair@$$CBKPAVVIACapl@@@std@@@std@@@std@@QAE@XZ 10006d40 f i capldll.obj
 0001:00005d70       ??0?$_Wrap_alloc@V?$allocator@U?$_Tree_node@U?$pair@$$CBKPAVCaplInstanceData@@@std@@PAX@std@@@std@@@std@@QAE@XZ 10006d70 f i capldll.obj
 0001:00005d90       ??0?$_Wrap_alloc@V?$allocator@U?$_Tree_node@U?$pair@$$CBKPAVVIACapl@@@std@@PAX@std@@@std@@@std@@QAE@XZ 10006d90 f i capldll.obj
 0001:00005db0       ??0?$allocator@U?$_Tree_node@U?$pair@$$CBKPAVCaplInstanceData@@@std@@PAX@std@@@std@@QAE@XZ 10006db0 f i capldll.obj
 0001:00005dc0       ??0?$allocator@U?$_Tree_node@U?$pair@$$CBKPAVVIACapl@@@std@@PAX@std@@@std@@QAE@XZ 10006dc0 f i capldll.obj
 0001:00005dd0       ??0?$allocator@U?$pair@$$CBKPAVCaplInstanceData@@@std@@@std@@QAE@XZ 10006dd0 f i capldll.obj
 0001:00005de0       ??0?$allocator@U?$pair@$$CBKPAVVIACapl@@@std@@@std@@QAE@XZ 10006de0 f i capldll.obj
 0001:00005df0       ??0?$map@KPAVCaplInstanceData@@U?$less@K@std@@V?$allocator@U?$pair@$$CBKPAVCaplInstanceData@@@std@@@3@@std@@QAE@XZ 10006df0 f i capldll.obj
 0001:00005e20       ??0?$map@KPAVVIACapl@@U?$less@K@std@@V?$allocator@U?$pair@$$CBKPAVVIACapl@@@std@@@3@@std@@QAE@XZ 10006e20 f i capldll.obj
 0001:00005e50       ??0?$tuple@$$$V@std@@QAE@ABV01@@Z 10006e50 f i capldll.obj
 0001:00005e60       ??0?$tuple@$$$V@std@@QAE@XZ 10006e60 f i capldll.obj
 0001:00005e70       ??0?$tuple@ABK@std@@QAE@ABK@Z 10006e70 f i capldll.obj
 0001:00005ea0       ??0_Container_base12@std@@QAE@XZ 10006ea0 f i capldll.obj
 0001:00005ec0       ??0_Container_proxy@std@@QAE@XZ 10006ec0 f i capldll.obj
 0001:00005ef0       ??0_Ignore@std@@QAE@XZ     10006ef0 f i capldll.obj
 0001:00005f00       ??0_Iterator_base12@std@@QAE@ABU01@@Z 10006f00 f i capldll.obj
 0001:00005f30       ??0_Iterator_base12@std@@QAE@XZ 10006f30 f i capldll.obj
 0001:00005f60       ??1?$_Iterator012@Ubidirectional_iterator_tag@std@@U?$pair@$$CBKPAVCaplInstanceData@@@2@HPBU32@ABU32@U_Iterator_base12@2@@std@@QAE@XZ 10006f60 f i capldll.obj
 0001:00005f80       ??1?$_Iterator012@Ubidirectional_iterator_tag@std@@U?$pair@$$CBKPAVVIACapl@@@2@HPBU32@ABU32@U_Iterator_base12@2@@std@@QAE@XZ 10006f80 f i capldll.obj
 0001:00005fa0       ??1?$_Tree@V?$_Tmap_traits@KPAVCaplInstanceData@@U?$less@K@std@@V?$allocator@U?$pair@$$CBKPAVCaplInstanceData@@@std@@@3@$0A@@std@@@std@@QAE@XZ 10006fa0 f i capldll.obj
 0001:00005fc0       ??1?$_Tree@V?$_Tmap_traits@KPAVVIACapl@@U?$less@K@std@@V?$allocator@U?$pair@$$CBKPAVVIACapl@@@std@@@3@$0A@@std@@@std@@QAE@XZ 10006fc0 f i capldll.obj
 0001:00005fe0       ??1?$_Tree_alloc@$0A@U?$_Tree_base_types@U?$pair@$$CBKPAVCaplInstanceData@@@std@@V?$allocator@U?$pair@$$CBKPAVCaplInstanceData@@@std@@@2@@std@@@std@@QAE@XZ 10006fe0 f i capldll.obj
 0001:00006010       ??1?$_Tree_alloc@$0A@U?$_Tree_base_types@U?$pair@$$CBKPAVVIACapl@@@std@@V?$allocator@U?$pair@$$CBKPAVVIACapl@@@std@@@2@@std@@@std@@QAE@XZ 10007010 f i capldll.obj
 0001:00006040       ??1?$_Tree_buy@U?$pair@$$CBKPAVCaplInstanceData@@@std@@V?$allocator@U?$pair@$$CBKPAVCaplInstanceData@@@std@@@2@@std@@QAE@XZ 10007040 f i capldll.obj
 0001:00006060       ??1?$_Tree_buy@U?$pair@$$CBKPAVVIACapl@@@std@@V?$allocator@U?$pair@$$CBKPAVVIACapl@@@std@@@2@@std@@QAE@XZ 10007060 f i capldll.obj
 0001:00006080       ??1?$_Tree_comp@$0A@V?$_Tmap_traits@KPAVCaplInstanceData@@U?$less@K@std@@V?$allocator@U?$pair@$$CBKPAVCaplInstanceData@@@std@@@3@$0A@@std@@@std@@QAE@XZ 10007080 f i capldll.obj
 0001:000060a0       ??1?$_Tree_comp@$0A@V?$_Tmap_traits@KPAVVIACapl@@U?$less@K@std@@V?$allocator@U?$pair@$$CBKPAVVIACapl@@@std@@@3@$0A@@std@@@std@@QAE@XZ 100070a0 f i capldll.obj
 0001:000060c0       ??1?$_Tree_const_iterator@V?$_Tree_val@U?$_Tree_simple_types@U?$pair@$$CBKPAVCaplInstanceData@@@std@@@std@@@std@@@std@@QAE@XZ 100070c0 f i capldll.obj
 0001:000060e0       ??1?$_Tree_const_iterator@V?$_Tree_val@U?$_Tree_simple_types@U?$pair@$$CBKPAVVIACapl@@@std@@@std@@@std@@@std@@QAE@XZ 100070e0 f i capldll.obj
 0001:00006100       ??1?$_Tree_iterator@V?$_Tree_val@U?$_Tree_simple_types@U?$pair@$$CBKPAVCaplInstanceData@@@std@@@std@@@std@@@std@@QAE@XZ 10007100 f i capldll.obj
 0001:00006120       ??1?$_Tree_iterator@V?$_Tree_val@U?$_Tree_simple_types@U?$pair@$$CBKPAVVIACapl@@@std@@@std@@@std@@@std@@QAE@XZ 10007120 f i capldll.obj
 0001:00006140       ??1?$_Tree_unchecked_const_iterator@V?$_Tree_val@U?$_Tree_simple_types@U?$pair@$$CBKPAVCaplInstanceData@@@std@@@std@@@std@@U_Iterator_base12@2@@std@@QAE@XZ 10007140 f i capldll.obj
 0001:00006160       ??1?$_Tree_unchecked_const_iterator@V?$_Tree_val@U?$_Tree_simple_types@U?$pair@$$CBKPAVVIACapl@@@std@@@std@@@std@@U_Iterator_base12@2@@std@@QAE@XZ 10007160 f i capldll.obj
 0001:00006180       ??1?$_Tree_val@U?$_Tree_simple_types@U?$pair@$$CBKPAVCaplInstanceData@@@std@@@std@@@std@@QAE@XZ 10007180 f i capldll.obj
 0001:000061a0       ??1?$_Tree_val@U?$_Tree_simple_types@U?$pair@$$CBKPAVVIACapl@@@std@@@std@@@std@@QAE@XZ 100071a0 f i capldll.obj
 0001:000061c0       ??1?$map@KPAVCaplInstanceData@@U?$less@K@std@@V?$allocator@U?$pair@$$CBKPAVCaplInstanceData@@@std@@@3@@std@@QAE@XZ 100071c0 f i capldll.obj
 0001:000061e0       ??1?$map@KPAVVIACapl@@U?$less@K@std@@V?$allocator@U?$pair@$$CBKPAVVIACapl@@@std@@@3@@std@@QAE@XZ 100071e0 f i capldll.obj
 0001:00006200       ??1?$pair@V?$_Tree_iterator@V?$_Tree_val@U?$_Tree_simple_types@U?$pair@$$CBKPAVCaplInstanceData@@@std@@@std@@@std@@@std@@V12@@std@@QAE@XZ 10007200 f i capldll.obj
 0001:00006220       ??1?$pair@V?$_Tree_iterator@V?$_Tree_val@U?$_Tree_simple_types@U?$pair@$$CBKPAVCaplInstanceData@@@std@@@std@@@std@@@std@@_N@std@@QAE@XZ 10007220 f i capldll.obj
 0001:00006240       ??1?$pair@V?$_Tree_iterator@V?$_Tree_val@U?$_Tree_simple_types@U?$pair@$$CBKPAVVIACapl@@@std@@@std@@@std@@@std@@_N@std@@QAE@XZ 10007240 f i capldll.obj
 0001:00006260       ??1_Container_base12@std@@QAE@XZ 10007260 f i capldll.obj
 0001:00006280       ??1_Iterator_base12@std@@QAE@XZ 10007280 f i capldll.obj
 0001:000062b0       ??2@YAPAXIPAX@Z            100072b0 f i capldll.obj
 0001:000062c0       ??3@YAXPAX0@Z              100072c0 f i capldll.obj
 0001:000062d0       ??4?$_Iterator012@Ubidirectional_iterator_tag@std@@U?$pair@$$CBKPAVCaplInstanceData@@@2@HPBU32@ABU32@U_Iterator_base12@2@@std@@QAEAAU01@ABU01@@Z 100072d0 f i capldll.obj
 0001:000062f0       ??4?$_Iterator012@Ubidirectional_iterator_tag@std@@U?$pair@$$CBKPAVVIACapl@@@2@HPBU32@ABU32@U_Iterator_base12@2@@std@@QAEAAU01@ABU01@@Z 100072f0 f i capldll.obj
 0001:00006310       ??4?$_Tree_const_iterator@V?$_Tree_val@U?$_Tree_simple_types@U?$pair@$$CBKPAVCaplInstanceData@@@std@@@std@@@std@@@std@@QAEAAV01@ABV01@@Z 10007310 f i capldll.obj
 0001:00006330       ??4?$_Tree_const_iterator@V?$_Tree_val@U?$_Tree_simple_types@U?$pair@$$CBKPAVVIACapl@@@std@@@std@@@std@@@std@@QAEAAV01@ABV01@@Z 10007330 f i capldll.obj
 0001:00006350       ??4?$_Tree_iterator@V?$_Tree_val@U?$_Tree_simple_types@U?$pair@$$CBKPAVCaplInstanceData@@@std@@@std@@@std@@@std@@QAEAAV01@ABV01@@Z 10007350 f i capldll.obj
 0001:00006370       ??4?$_Tree_iterator@V?$_Tree_val@U?$_Tree_simple_types@U?$pair@$$CBKPAVVIACapl@@@std@@@std@@@std@@@std@@QAEAAV01@ABV01@@Z 10007370 f i capldll.obj
 0001:00006390       ??4?$_Tree_unchecked_const_iterator@V?$_Tree_val@U?$_Tree_simple_types@U?$pair@$$CBKPAVCaplInstanceData@@@std@@@std@@@std@@U_Iterator_base12@2@@std@@QAEAAV01@ABV01@@Z 10007390 f i capldll.obj
 0001:000063c0       ??4?$_Tree_unchecked_const_iterator@V?$_Tree_val@U?$_Tree_simple_types@U?$pair@$$CBKPAVVIACapl@@@std@@@std@@@std@@U_Iterator_base12@2@@std@@QAEAAV01@ABV01@@Z 100073c0 f i capldll.obj
 0001:000063f0       ??4_Iterator_base12@std@@QAEAAU01@ABU01@@Z 100073f0 f i capldll.obj
 0001:00006480       ??8?$_Tree_const_iterator@V?$_Tree_val@U?$_Tree_simple_types@U?$pair@$$CBKPAVCaplInstanceData@@@std@@@std@@@std@@@std@@QBE_NABV01@@Z 10007480 f i capldll.obj
 0001:00006540       ??8?$_Tree_const_iterator@V?$_Tree_val@U?$_Tree_simple_types@U?$pair@$$CBKPAVVIACapl@@@std@@@std@@@std@@@std@@QBE_NABV01@@Z 10007540 f i capldll.obj
 0001:00006600       ??9?$_Tree_const_iterator@V?$_Tree_val@U?$_Tree_simple_types@U?$pair@$$CBKPAVCaplInstanceData@@@std@@@std@@@std@@@std@@QBE_NABV01@@Z 10007600 f i capldll.obj
 0001:00006640       ??9?$_Tree_const_iterator@V?$_Tree_val@U?$_Tree_simple_types@U?$pair@$$CBKPAVVIACapl@@@std@@@std@@@std@@@std@@QBE_NABV01@@Z 10007640 f i capldll.obj
 0001:00006680       ??A?$map@KPAVCaplInstanceData@@U?$less@K@std@@V?$allocator@U?$pair@$$CBKPAVCaplInstanceData@@@std@@@3@@std@@QAEAAPAVCaplInstanceData@@ABK@Z 10007680 f i capldll.obj
 0001:00006800       ??A?$map@KPAVVIACapl@@U?$less@K@std@@V?$allocator@U?$pair@$$CBKPAVVIACapl@@@std@@@3@@std@@QAEAAPAVVIACapl@@ABK@Z 10007800 f i capldll.obj
 0001:00006980       ??C?$_Tree_iterator@V?$_Tree_val@U?$_Tree_simple_types@U?$pair@$$CBKPAVCaplInstanceData@@@std@@@std@@@std@@@std@@QBEPAU?$pair@$$CBKPAVCaplInstanceData@@@1@XZ 10007980 f i capldll.obj
 0001:000069a0       ??C?$_Tree_iterator@V?$_Tree_val@U?$_Tree_simple_types@U?$pair@$$CBKPAVVIACapl@@@std@@@std@@@std@@@std@@QBEPAU?$pair@$$CBKPAVVIACapl@@@1@XZ 100079a0 f i capldll.obj
 0001:000069c0       ??D?$_Tree_const_iterator@V?$_Tree_val@U?$_Tree_simple_types@U?$pair@$$CBKPAVCaplInstanceData@@@std@@@std@@@std@@@std@@QBEABU?$pair@$$CBKPAVCaplInstanceData@@@1@XZ 100079c0 f i capldll.obj
 0001:00006a70       ??D?$_Tree_const_iterator@V?$_Tree_val@U?$_Tree_simple_types@U?$pair@$$CBKPAVVIACapl@@@std@@@std@@@std@@@std@@QBEABU?$pair@$$CBKPAVVIACapl@@@1@XZ 10007a70 f i capldll.obj
 0001:00006b20       ??D?$_Tree_iterator@V?$_Tree_val@U?$_Tree_simple_types@U?$pair@$$CBKPAVCaplInstanceData@@@std@@@std@@@std@@@std@@QBEAAU?$pair@$$CBKPAVCaplInstanceData@@@1@XZ 10007b20 f i capldll.obj
 0001:00006b40       ??D?$_Tree_iterator@V?$_Tree_val@U?$_Tree_simple_types@U?$pair@$$CBKPAVVIACapl@@@std@@@std@@@std@@@std@@QBEAAU?$pair@$$CBKPAVVIACapl@@@1@XZ 10007b40 f i capldll.obj
 0001:00006b60       ??E?$_Tree_const_iterator@V?$_Tree_val@U?$_Tree_simple_types@U?$pair@$$CBKPAVCaplInstanceData@@@std@@@std@@@std@@@std@@QAE?AV01@H@Z 10007b60 f i capldll.obj
 0001:00006bf0       ??E?$_Tree_const_iterator@V?$_Tree_val@U?$_Tree_simple_types@U?$pair@$$CBKPAVCaplInstanceData@@@std@@@std@@@std@@@std@@QAEAAV01@XZ 10007bf0 f i capldll.obj
 0001:00006ca0       ??E?$_Tree_const_iterator@V?$_Tree_val@U?$_Tree_simple_types@U?$pair@$$CBKPAVVIACapl@@@std@@@std@@@std@@@std@@QAE?AV01@H@Z 10007ca0 f i capldll.obj
 0001:00006d30       ??E?$_Tree_const_iterator@V?$_Tree_val@U?$_Tree_simple_types@U?$pair@$$CBKPAVVIACapl@@@std@@@std@@@std@@@std@@QAEAAV01@XZ 10007d30 f i capldll.obj
 0001:00006de0       ??E?$_Tree_iterator@V?$_Tree_val@U?$_Tree_simple_types@U?$pair@$$CBKPAVCaplInstanceData@@@std@@@std@@@std@@@std@@QAEAAV01@XZ 10007de0 f i capldll.obj
 0001:00006e00       ??E?$_Tree_unchecked_const_iterator@V?$_Tree_val@U?$_Tree_simple_types@U?$pair@$$CBKPAVCaplInstanceData@@@std@@@std@@@std@@U_Iterator_base12@2@@std@@QAEAAV01@XZ 10007e00 f i capldll.obj
 0001:00006ec0       ??E?$_Tree_unchecked_const_iterator@V?$_Tree_val@U?$_Tree_simple_types@U?$pair@$$CBKPAVVIACapl@@@std@@@std@@@std@@U_Iterator_base12@2@@std@@QAEAAV01@XZ 10007ec0 f i capldll.obj
 0001:00006f80       ??F?$_Tree_const_iterator@V?$_Tree_val@U?$_Tree_simple_types@U?$pair@$$CBKPAVCaplInstanceData@@@std@@@std@@@std@@@std@@QAEAAV01@XZ 10007f80 f i capldll.obj
 0001:000070a0       ??F?$_Tree_const_iterator@V?$_Tree_val@U?$_Tree_simple_types@U?$pair@$$CBKPAVVIACapl@@@std@@@std@@@std@@@std@@QAEAAV01@XZ 100080a0 f i capldll.obj
 0001:000071c0       ??F?$_Tree_iterator@V?$_Tree_val@U?$_Tree_simple_types@U?$pair@$$CBKPAVCaplInstanceData@@@std@@@std@@@std@@@std@@QAEAAV01@XZ 100081c0 f i capldll.obj
 0001:000071e0       ??F?$_Tree_iterator@V?$_Tree_val@U?$_Tree_simple_types@U?$pair@$$CBKPAVVIACapl@@@std@@@std@@@std@@@std@@QAEAAV01@XZ 100081e0 f i capldll.obj
 0001:00007200       ??F?$_Tree_unchecked_const_iterator@V?$_Tree_val@U?$_Tree_simple_types@U?$pair@$$CBKPAVCaplInstanceData@@@std@@@std@@@std@@U_Iterator_base12@2@@std@@QAEAAV01@XZ 10008200 f i capldll.obj
 0001:000072f0       ??F?$_Tree_unchecked_const_iterator@V?$_Tree_val@U?$_Tree_simple_types@U?$pair@$$CBKPAVVIACapl@@@std@@@std@@@std@@U_Iterator_base12@2@@std@@QAEAAV01@XZ 100082f0 f i capldll.obj
 0001:000073e0       ??R?$less@K@std@@QBE_NABK0@Z 100083e0 f i capldll.obj
 0001:00007410       ?_Adopt@_Iterator_base12@std@@QAEXPBU_Container_base12@2@@Z 10008410 f i capldll.obj
 0001:000074d0       ?_Alloc_proxy@?$_Tree_alloc@$0A@U?$_Tree_base_types@U?$pair@$$CBKPAVCaplInstanceData@@@std@@V?$allocator@U?$pair@$$CBKPAVCaplInstanceData@@@std@@@2@@std@@@std@@QAEXXZ 100084d0 f i capldll.obj
 0001:00007530       ?_Alloc_proxy@?$_Tree_alloc@$0A@U?$_Tree_base_types@U?$pair@$$CBKPAVVIACapl@@@std@@V?$allocator@U?$pair@$$CBKPAVVIACapl@@@std@@@2@@std@@@std@@QAEXXZ 10008530 f i capldll.obj
 0001:00007590       ?_Buyheadnode@?$_Tree_alloc@$0A@U?$_Tree_base_types@U?$pair@$$CBKPAVCaplInstanceData@@@std@@V?$allocator@U?$pair@$$CBKPAVCaplInstanceData@@@std@@@2@@std@@@std@@QAEPAU?$_Tree_node@U?$pair@$$CBKPAVCaplInstanceData@@@std@@PAX@2@XZ 10008590 f i capldll.obj
 0001:000076f0       ?_Buyheadnode@?$_Tree_alloc@$0A@U?$_Tree_base_types@U?$pair@$$CBKPAVVIACapl@@@std@@V?$allocator@U?$pair@$$CBKPAVVIACapl@@@std@@@2@@std@@@std@@QAEPAU?$_Tree_node@U?$pair@$$CBKPAVVIACapl@@@std@@PAX@2@XZ 100086f0 f i capldll.obj
 0001:00007850       ?_Buynode0@?$_Tree_buy@U?$pair@$$CBKPAVCaplInstanceData@@@std@@V?$allocator@U?$pair@$$CBKPAVCaplInstanceData@@@std@@@2@@std@@QAEPAU?$_Tree_node@U?$pair@$$CBKPAVCaplInstanceData@@@std@@PAX@2@XZ 10008850 f i capldll.obj
 0001:000079a0       ?_Buynode0@?$_Tree_buy@U?$pair@$$CBKPAVVIACapl@@@std@@V?$allocator@U?$pair@$$CBKPAVVIACapl@@@std@@@2@@std@@QAEPAU?$_Tree_node@U?$pair@$$CBKPAVVIACapl@@@std@@PAX@2@XZ 100089a0 f i capldll.obj
 0001:00007af0       ?_Clrcont@_Iterator_base12@std@@QAEXXZ 10008af0 f i capldll.obj
 0001:00007b10       ?_Color@?$_Tree_val@U?$_Tree_simple_types@U?$pair@$$CBKPAVCaplInstanceData@@@std@@@std@@@std@@SAAADPAU?$_Tree_node@U?$pair@$$CBKPAVCaplInstanceData@@@std@@PAX@2@@Z 10008b10 f i capldll.obj
 0001:00007b20       ?_Color@?$_Tree_val@U?$_Tree_simple_types@U?$pair@$$CBKPAVVIACapl@@@std@@@std@@@std@@SAAADPAU?$_Tree_node@U?$pair@$$CBKPAVVIACapl@@@std@@PAX@2@@Z 10008b20 f i capldll.obj
 0001:00007b30       ?_Destroy_if_not_nil@?$_Tree@V?$_Tmap_traits@KPAVCaplInstanceData@@U?$less@K@std@@V?$allocator@U?$pair@$$CBKPAVCaplInstanceData@@@std@@@3@$0A@@std@@@std@@IAEXPAU?$_Tree_node@U?$pair@$$CBKPAVCaplInstanceData@@@std@@PAX@2@@Z 10008b30 f i capldll.obj
 0001:00007b90       ?_Destroy_if_not_nil@?$_Tree@V?$_Tmap_traits@KPAVVIACapl@@U?$less@K@std@@V?$allocator@U?$pair@$$CBKPAVVIACapl@@@std@@@3@$0A@@std@@@std@@IAEXPAU?$_Tree_node@U?$pair@$$CBKPAVVIACapl@@@std@@PAX@2@@Z 10008b90 f i capldll.obj
 0001:00007bf0       ?_Eqrange@?$_Tree@V?$_Tmap_traits@KPAVCaplInstanceData@@U?$less@K@std@@V?$allocator@U?$pair@$$CBKPAVCaplInstanceData@@@std@@@3@$0A@@std@@@std@@IAE?AU?$pair@V?$_Tree_iterator@V?$_Tree_val@U?$_Tree_simple_types@U?$pair@$$CBKPAVCaplInstanceData@@@std@@@std@@@std@@@std@@V12@@2@ABK@Z 10008bf0 f i capldll.obj
 0001:00007e40       ?_Erase@?$_Tree@V?$_Tmap_traits@KPAVCaplInstanceData@@U?$less@K@std@@V?$allocator@U?$pair@$$CBKPAVCaplInstanceData@@@std@@@3@$0A@@std@@@std@@IAEXPAU?$_Tree_node@U?$pair@$$CBKPAVCaplInstanceData@@@std@@PAX@2@@Z 10008e40 f i capldll.obj
 0001:00007ee0       ?_Erase@?$_Tree@V?$_Tmap_traits@KPAVVIACapl@@U?$less@K@std@@V?$allocator@U?$pair@$$CBKPAVVIACapl@@@std@@@3@$0A@@std@@@std@@IAEXPAU?$_Tree_node@U?$pair@$$CBKPAVVIACapl@@@std@@PAX@2@@Z 10008ee0 f i capldll.obj
 0001:00007f80       ?_Free_proxy@?$_Tree_alloc@$0A@U?$_Tree_base_types@U?$pair@$$CBKPAVCaplInstanceData@@@std@@V?$allocator@U?$pair@$$CBKPAVCaplInstanceData@@@std@@@2@@std@@@std@@QAEXXZ 10008f80 f i capldll.obj
 0001:00007fe0       ?_Free_proxy@?$_Tree_alloc@$0A@U?$_Tree_base_types@U?$pair@$$CBKPAVVIACapl@@@std@@V?$allocator@U?$pair@$$CBKPAVVIACapl@@@std@@@2@@std@@@std@@QAEXXZ 10008fe0 f i capldll.obj
 0001:00008040       ?_Freeheadnode@?$_Tree_alloc@$0A@U?$_Tree_base_types@U?$pair@$$CBKPAVCaplInstanceData@@@std@@V?$allocator@U?$pair@$$CBKPAVCaplInstanceData@@@std@@@2@@std@@@std@@QAEXPAU?$_Tree_node@U?$pair@$$CBKPAVCaplInstanceData@@@std@@PAX@2@@Z 10009040 f i capldll.obj
 0001:000080f0       ?_Freeheadnode@?$_Tree_alloc@$0A@U?$_Tree_base_types@U?$pair@$$CBKPAVVIACapl@@@std@@V?$allocator@U?$pair@$$CBKPAVVIACapl@@@std@@@2@@std@@@std@@QAEXPAU?$_Tree_node@U?$pair@$$CBKPAVVIACapl@@@std@@PAX@2@@Z 100090f0 f i capldll.obj
 0001:000081a0       ?_Freenode0@?$_Tree_buy@U?$pair@$$CBKPAVCaplInstanceData@@@std@@V?$allocator@U?$pair@$$CBKPAVCaplInstanceData@@@std@@@2@@std@@QAEXPAU?$_Tree_node@U?$pair@$$CBKPAVCaplInstanceData@@@std@@PAX@2@@Z 100091a0 f i capldll.obj
 0001:00008250       ?_Freenode0@?$_Tree_buy@U?$pair@$$CBKPAVVIACapl@@@std@@V?$allocator@U?$pair@$$CBKPAVVIACapl@@@std@@@2@@std@@QAEXPAU?$_Tree_node@U?$pair@$$CBKPAVVIACapl@@@std@@PAX@2@@Z 10009250 f i capldll.obj
 0001:00008300       ?_Get_rest@?$tuple@ABK@std@@QAEAAV?$tuple@$$$V@2@XZ 10009300 f i capldll.obj
 0001:00008310       ?_Getal@?$_Tree_alloc@$0A@U?$_Tree_base_types@U?$pair@$$CBKPAVCaplInstanceData@@@std@@V?$allocator@U?$pair@$$CBKPAVCaplInstanceData@@@std@@@2@@std@@@std@@QBE?AU?$_Wrap_alloc@V?$allocator@U?$_Tree_node@U?$pair@$$CBKPAVCaplInstanceData@@@std@@PAX@std@@@std@@@2@XZ 10009310 f i capldll.obj
 0001:00008330       ?_Getal@?$_Tree_alloc@$0A@U?$_Tree_base_types@U?$pair@$$CBKPAVVIACapl@@@std@@V?$allocator@U?$pair@$$CBKPAVVIACapl@@@std@@@2@@std@@@std@@QBE?AU?$_Wrap_alloc@V?$allocator@U?$_Tree_node@U?$pair@$$CBKPAVVIACapl@@@std@@PAX@std@@@std@@@2@XZ 10009330 f i capldll.obj
 0001:00008350       ?_Getcomp@?$_Tree_comp@$0A@V?$_Tmap_traits@KPAVCaplInstanceData@@U?$less@K@std@@V?$allocator@U?$pair@$$CBKPAVCaplInstanceData@@@std@@@3@$0A@@std@@@std@@QBE?AU?$less@K@2@XZ 10009350 f i capldll.obj
 0001:00008360       ?_Getcomp@?$_Tree_comp@$0A@V?$_Tmap_traits@KPAVVIACapl@@U?$less@K@std@@V?$allocator@U?$pair@$$CBKPAVVIACapl@@@std@@@3@$0A@@std@@@std@@QBE?AU?$less@K@2@XZ 10009360 f i capldll.obj
 0001:00008370       ?_Getcont@_Iterator_base12@std@@QBEPBU_Container_base12@2@XZ 10009370 f i capldll.obj
 0001:000083a0       ?_Getpfirst@_Container_base12@std@@QBEPAPAU_Iterator_base12@2@XZ 100093a0 f i capldll.obj
 0001:000083d0       ?_Getpnext@_Iterator_base12@std@@QAEPAPAU12@XZ 100093d0 f i capldll.obj
 0001:000083f0       ?_Isnil@?$_Tree_val@U?$_Tree_simple_types@U?$pair@$$CBKPAVCaplInstanceData@@@std@@@std@@@std@@SAAADPAU?$_Tree_node@U?$pair@$$CBKPAVCaplInstanceData@@@std@@PAX@2@@Z 100093f0 f i capldll.obj
 0001:00008400       ?_Isnil@?$_Tree_val@U?$_Tree_simple_types@U?$pair@$$CBKPAVVIACapl@@@std@@@std@@@std@@SAAADPAU?$_Tree_node@U?$pair@$$CBKPAVVIACapl@@@std@@PAX@2@@Z 10009400 f i capldll.obj
 0001:00008410       ?_Key@?$_Tree@V?$_Tmap_traits@KPAVCaplInstanceData@@U?$less@K@std@@V?$allocator@U?$pair@$$CBKPAVCaplInstanceData@@@std@@@3@$0A@@std@@@std@@IBEABKPAU?$_Tree_node@U?$pair@$$CBKPAVCaplInstanceData@@@std@@PAX@2@@Z 10009410 f i capldll.obj
 0001:00008440       ?_Key@?$_Tree@V?$_Tmap_traits@KPAVVIACapl@@U?$less@K@std@@V?$allocator@U?$pair@$$CBKPAVVIACapl@@@std@@@3@$0A@@std@@@std@@IBEABKPAU?$_Tree_node@U?$pair@$$CBKPAVVIACapl@@@std@@PAX@2@@Z 10009440 f i capldll.obj
 0001:00008470       ?_Kfn@?$_Tree@V?$_Tmap_traits@KPAVCaplInstanceData@@U?$less@K@std@@V?$allocator@U?$pair@$$CBKPAVCaplInstanceData@@@std@@@3@$0A@@std@@@std@@IBEABKABU?$pair@$$CBKPAVCaplInstanceData@@@2@@Z 10009470 f i capldll.obj
 0001:00008490       ?_Kfn@?$_Tree@V?$_Tmap_traits@KPAVVIACapl@@U?$less@K@std@@V?$allocator@U?$pair@$$CBKPAVVIACapl@@@std@@@3@$0A@@std@@@std@@IBEABKABU?$pair@$$CBKPAVVIACapl@@@2@@Z 10009490 f i capldll.obj
 0001:000084b0       ?_Lbound@?$_Tree@V?$_Tmap_traits@KPAVCaplInstanceData@@U?$less@K@std@@V?$allocator@U?$pair@$$CBKPAVCaplInstanceData@@@std@@@3@$0A@@std@@@std@@IAEPAU?$_Tree_node@U?$pair@$$CBKPAVCaplInstanceData@@@std@@PAX@2@ABK@Z 100094b0 f i capldll.obj
 0001:00008560       ?_Lbound@?$_Tree@V?$_Tmap_traits@KPAVVIACapl@@U?$less@K@std@@V?$allocator@U?$pair@$$CBKPAVVIACapl@@@std@@@3@$0A@@std@@@std@@IAEPAU?$_Tree_node@U?$pair@$$CBKPAVVIACapl@@@std@@PAX@2@ABK@Z 10009560 f i capldll.obj
 0001:00008610       ?_Left@?$_Tree_val@U?$_Tree_simple_types@U?$pair@$$CBKPAVCaplInstanceData@@@std@@@std@@@std@@SAAAPAU?$_Tree_node@U?$pair@$$CBKPAVCaplInstanceData@@@std@@PAX@2@PAU32@@Z 10009610 f i capldll.obj
 0001:00008620       ?_Left@?$_Tree_val@U?$_Tree_simple_types@U?$pair@$$CBKPAVVIACapl@@@std@@@std@@@std@@SAAAPAU?$_Tree_node@U?$pair@$$CBKPAVVIACapl@@@std@@PAX@2@PAU32@@Z 10009620 f i capldll.obj
 0001:00008630       ?_Lmost@?$_Tree@V?$_Tmap_traits@KPAVCaplInstanceData@@U?$less@K@std@@V?$allocator@U?$pair@$$CBKPAVCaplInstanceData@@@std@@@3@$0A@@std@@@std@@IBEAAPAU?$_Tree_node@U?$pair@$$CBKPAVCaplInstanceData@@@std@@PAX@2@XZ 10009630 f i capldll.obj
 0001:00008650       ?_Lmost@?$_Tree@V?$_Tmap_traits@KPAVVIACapl@@U?$less@K@std@@V?$allocator@U?$pair@$$CBKPAVVIACapl@@@std@@@3@$0A@@std@@@std@@IBEAAPAU?$_Tree_node@U?$pair@$$CBKPAVVIACapl@@@std@@PAX@2@XZ 10009650 f i capldll.obj
 0001:00008670       ?_Lrotate@?$_Tree@V?$_Tmap_traits@KPAVCaplInstanceData@@U?$less@K@std@@V?$allocator@U?$pair@$$CBKPAVCaplInstanceData@@@std@@@3@$0A@@std@@@std@@IAEXPAU?$_Tree_node@U?$pair@$$CBKPAVCaplInstanceData@@@std@@PAX@2@@Z 10009670 f i capldll.obj
 0001:000087a0       ?_Lrotate@?$_Tree@V?$_Tmap_traits@KPAVVIACapl@@U?$less@K@std@@V?$allocator@U?$pair@$$CBKPAVVIACapl@@@std@@@3@$0A@@std@@@std@@IAEXPAU?$_Tree_node@U?$pair@$$CBKPAVVIACapl@@@std@@PAX@2@@Z 100097a0 f i capldll.obj
 0001:000088d0       ?_Max@?$_Tree_val@U?$_Tree_simple_types@U?$pair@$$CBKPAVCaplInstanceData@@@std@@@std@@@std@@SAPAU?$_Tree_node@U?$pair@$$CBKPAVCaplInstanceData@@@std@@PAX@2@PAU32@@Z 100098d0 f i capldll.obj
 0001:00008910       ?_Max@?$_Tree_val@U?$_Tree_simple_types@U?$pair@$$CBKPAVVIACapl@@@std@@@std@@@std@@SAPAU?$_Tree_node@U?$pair@$$CBKPAVVIACapl@@@std@@PAX@2@PAU32@@Z 10009910 f i capldll.obj
 0001:00008950       ?_Min@?$_Tree_val@U?$_Tree_simple_types@U?$pair@$$CBKPAVCaplInstanceData@@@std@@@std@@@std@@SAPAU?$_Tree_node@U?$pair@$$CBKPAVCaplInstanceData@@@std@@PAX@2@PAU32@@Z 10009950 f i capldll.obj
 0001:00008990       ?_Min@?$_Tree_val@U?$_Tree_simple_types@U?$pair@$$CBKPAVVIACapl@@@std@@@std@@@std@@SAPAU?$_Tree_node@U?$pair@$$CBKPAVVIACapl@@@std@@PAX@2@PAU32@@Z 10009990 f i capldll.obj
 0001:000089d0       ?_Mynode@?$_Tree_unchecked_const_iterator@V?$_Tree_val@U?$_Tree_simple_types@U?$pair@$$CBKPAVCaplInstanceData@@@std@@@std@@@std@@U_Iterator_base12@2@@std@@QBEPAU?$_Tree_node@U?$pair@$$CBKPAVCaplInstanceData@@@std@@PAX@2@XZ 100099d0 f i capldll.obj
 0001:000089f0       ?_Mynode@?$_Tree_unchecked_const_iterator@V?$_Tree_val@U?$_Tree_simple_types@U?$pair@$$CBKPAVVIACapl@@@std@@@std@@@std@@U_Iterator_base12@2@@std@@QBEPAU?$_Tree_node@U?$pair@$$CBKPAVVIACapl@@@std@@PAX@2@XZ 100099f0 f i capldll.obj
 0001:00008a10       ?_Myval@?$_Tree_val@U?$_Tree_simple_types@U?$pair@$$CBKPAVCaplInstanceData@@@std@@@std@@@std@@SAAAU?$pair@$$CBKPAVCaplInstanceData@@@2@PAU?$_Tree_node@U?$pair@$$CBKPAVCaplInstanceData@@@std@@PAX@2@@Z 10009a10 f i capldll.obj
 0001:00008a20       ?_Myval@?$_Tree_val@U?$_Tree_simple_types@U?$pair@$$CBKPAVVIACapl@@@std@@@std@@@std@@SAAAU?$pair@$$CBKPAVVIACapl@@@2@PAU?$_Tree_node@U?$pair@$$CBKPAVVIACapl@@@std@@PAX@2@@Z 10009a20 f i capldll.obj
 0001:00008a30       ?_Orphan_all@_Container_base12@std@@QAEXXZ 10009a30 f i capldll.obj
 0001:00008aa0       ?_Orphan_me@_Iterator_base12@std@@QAEXXZ 10009aa0 f i capldll.obj
 0001:00008b20       ?_Orphan_ptr@?$_Tree@V?$_Tmap_traits@KPAVCaplInstanceData@@U?$less@K@std@@V?$allocator@U?$pair@$$CBKPAVCaplInstanceData@@@std@@@3@$0A@@std@@@std@@IBEXAAV12@PAU?$_Tree_node@U?$pair@$$CBKPAVCaplInstanceData@@@std@@PAX@2@@Z 10009b20 f i capldll.obj
 0001:00008bf0       ?_Orphan_ptr@?$_Tree@V?$_Tmap_traits@KPAVVIACapl@@U?$less@K@std@@V?$allocator@U?$pair@$$CBKPAVVIACapl@@@std@@@3@$0A@@std@@@std@@IBEXAAV12@PAU?$_Tree_node@U?$pair@$$CBKPAVVIACapl@@@std@@PAX@2@@Z 10009bf0 f i capldll.obj
 0001:00008cc0       ?_Parent@?$_Tree_val@U?$_Tree_simple_types@U?$pair@$$CBKPAVCaplInstanceData@@@std@@@std@@@std@@SAAAPAU?$_Tree_node@U?$pair@$$CBKPAVCaplInstanceData@@@std@@PAX@2@PAU32@@Z 10009cc0 f i capldll.obj
 0001:00008cd0       ?_Parent@?$_Tree_val@U?$_Tree_simple_types@U?$pair@$$CBKPAVVIACapl@@@std@@@std@@@std@@SAAAPAU?$_Tree_node@U?$pair@$$CBKPAVVIACapl@@@std@@PAX@2@PAU32@@Z 10009cd0 f i capldll.obj
 0001:00008ce0       ?_Right@?$_Tree_val@U?$_Tree_simple_types@U?$pair@$$CBKPAVCaplInstanceData@@@std@@@std@@@std@@SAAAPAU?$_Tree_node@U?$pair@$$CBKPAVCaplInstanceData@@@std@@PAX@2@PAU32@@Z 10009ce0 f i capldll.obj
 0001:00008cf0       ?_Right@?$_Tree_val@U?$_Tree_simple_types@U?$pair@$$CBKPAVVIACapl@@@std@@@std@@@std@@SAAAPAU?$_Tree_node@U?$pair@$$CBKPAVVIACapl@@@std@@PAX@2@PAU32@@Z 10009cf0 f i capldll.obj
 0001:00008d00       ?_Rmost@?$_Tree@V?$_Tmap_traits@KPAVCaplInstanceData@@U?$less@K@std@@V?$allocator@U?$pair@$$CBKPAVCaplInstanceData@@@std@@@3@$0A@@std@@@std@@IBEAAPAU?$_Tree_node@U?$pair@$$CBKPAVCaplInstanceData@@@std@@PAX@2@XZ 10009d00 f i capldll.obj
 0001:00008d20       ?_Rmost@?$_Tree@V?$_Tmap_traits@KPAVVIACapl@@U?$less@K@std@@V?$allocator@U?$pair@$$CBKPAVVIACapl@@@std@@@3@$0A@@std@@@std@@IBEAAPAU?$_Tree_node@U?$pair@$$CBKPAVVIACapl@@@std@@PAX@2@XZ 10009d20 f i capldll.obj
 0001:00008d40       ?_Root@?$_Tree@V?$_Tmap_traits@KPAVCaplInstanceData@@U?$less@K@std@@V?$allocator@U?$pair@$$CBKPAVCaplInstanceData@@@std@@@3@$0A@@std@@@std@@IBEAAPAU?$_Tree_node@U?$pair@$$CBKPAVCaplInstanceData@@@std@@PAX@2@XZ 10009d40 f i capldll.obj
 0001:00008d60       ?_Root@?$_Tree@V?$_Tmap_traits@KPAVVIACapl@@U?$less@K@std@@V?$allocator@U?$pair@$$CBKPAVVIACapl@@@std@@@3@$0A@@std@@@std@@IBEAAPAU?$_Tree_node@U?$pair@$$CBKPAVVIACapl@@@std@@PAX@2@XZ 10009d60 f i capldll.obj
 0001:00008d80       ?_Rrotate@?$_Tree@V?$_Tmap_traits@KPAVCaplInstanceData@@U?$less@K@std@@V?$allocator@U?$pair@$$CBKPAVCaplInstanceData@@@std@@@3@$0A@@std@@@std@@IAEXPAU?$_Tree_node@U?$pair@$$CBKPAVCaplInstanceData@@@std@@PAX@2@@Z 10009d80 f i capldll.obj
 0001:00008eb0       ?_Rrotate@?$_Tree@V?$_Tmap_traits@KPAVVIACapl@@U?$less@K@std@@V?$allocator@U?$pair@$$CBKPAVVIACapl@@@std@@@3@$0A@@std@@@std@@IAEXPAU?$_Tree_node@U?$pair@$$CBKPAVVIACapl@@@std@@PAX@2@@Z 10009eb0 f i capldll.obj
 0001:00008fe0       ?_Tidy@?$_Tree@V?$_Tmap_traits@KPAVCaplInstanceData@@U?$less@K@std@@V?$allocator@U?$pair@$$CBKPAVCaplInstanceData@@@std@@@3@$0A@@std@@@std@@IAEXXZ 10009fe0 f i capldll.obj
 0001:000090c0       ?_Tidy@?$_Tree@V?$_Tmap_traits@KPAVVIACapl@@U?$less@K@std@@V?$allocator@U?$pair@$$CBKPAVVIACapl@@@std@@@3@$0A@@std@@@std@@IAEXXZ 1000a0c0 f i capldll.obj
 0001:000091a0       ?allocate@?$_Wrap_alloc@V?$allocator@U?$_Tree_node@U?$pair@$$CBKPAVCaplInstanceData@@@std@@PAX@std@@@std@@@std@@QAEPAU?$_Tree_node@U?$pair@$$CBKPAVCaplInstanceData@@@std@@PAX@2@I@Z 1000a1a0 f i capldll.obj
 0001:000091c0       ?allocate@?$_Wrap_alloc@V?$allocator@U?$_Tree_node@U?$pair@$$CBKPAVVIACapl@@@std@@PAX@std@@@std@@@std@@QAEPAU?$_Tree_node@U?$pair@$$CBKPAVVIACapl@@@std@@PAX@2@I@Z 1000a1c0 f i capldll.obj
 0001:000091e0       ?allocate@?$_Wrap_alloc@V?$allocator@U_Container_proxy@std@@@std@@@std@@QAEPAU_Container_proxy@2@I@Z 1000a1e0 f i capldll.obj
 0001:00009200       ?allocate@?$allocator@U?$_Tree_node@U?$pair@$$CBKPAVCaplInstanceData@@@std@@PAX@std@@@std@@QAEPAU?$_Tree_node@U?$pair@$$CBKPAVCaplInstanceData@@@std@@PAX@2@I@Z 1000a200 f i capldll.obj
 0001:00009220       ?allocate@?$allocator@U?$_Tree_node@U?$pair@$$CBKPAVVIACapl@@@std@@PAX@std@@@std@@QAEPAU?$_Tree_node@U?$pair@$$CBKPAVVIACapl@@@std@@PAX@2@I@Z 1000a220 f i capldll.obj
 0001:00009240       ?allocate@?$allocator@U_Container_proxy@std@@@std@@QAEPAU_Container_proxy@2@I@Z 1000a240 f i capldll.obj
 0001:00009260       ?begin@?$_Tree@V?$_Tmap_traits@KPAVCaplInstanceData@@U?$less@K@std@@V?$allocator@U?$pair@$$CBKPAVCaplInstanceData@@@std@@@3@$0A@@std@@@std@@QAE?AV?$_Tree_iterator@V?$_Tree_val@U?$_Tree_simple_types@U?$pair@$$CBKPAVCaplInstanceData@@@std@@@std@@@std@@@2@XZ 1000a260 f i capldll.obj
 0001:00009290       ?begin@?$_Tree@V?$_Tmap_traits@KPAVVIACapl@@U?$less@K@std@@V?$allocator@U?$pair@$$CBKPAVVIACapl@@@std@@@3@$0A@@std@@@std@@QAE?AV?$_Tree_iterator@V?$_Tree_val@U?$_Tree_simple_types@U?$pair@$$CBKPAVVIACapl@@@std@@@std@@@std@@@2@XZ 1000a290 f i capldll.obj
 0001:000092c0       ?clear@?$_Tree@V?$_Tmap_traits@KPAVCaplInstanceData@@U?$less@K@std@@V?$allocator@U?$pair@$$CBKPAVCaplInstanceData@@@std@@@3@$0A@@std@@@std@@QAEXXZ 1000a2c0 f i capldll.obj
 0001:00009330       ?clear@?$_Tree@V?$_Tmap_traits@KPAVVIACapl@@U?$less@K@std@@V?$allocator@U?$pair@$$CBKPAVVIACapl@@@std@@@3@$0A@@std@@@std@@QAEXXZ 1000a330 f i capldll.obj
 0001:000093a0       ?deallocate@?$_Wrap_alloc@V?$allocator@U?$_Tree_node@U?$pair@$$CBKPAVCaplInstanceData@@@std@@PAX@std@@@std@@@std@@QAEXPAU?$_Tree_node@U?$pair@$$CBKPAVCaplInstanceData@@@std@@PAX@2@I@Z 1000a3a0 f i capldll.obj
 0001:000093c0       ?deallocate@?$_Wrap_alloc@V?$allocator@U?$_Tree_node@U?$pair@$$CBKPAVVIACapl@@@std@@PAX@std@@@std@@@std@@QAEXPAU?$_Tree_node@U?$pair@$$CBKPAVVIACapl@@@std@@PAX@2@I@Z 1000a3c0 f i capldll.obj
 0001:000093e0       ?deallocate@?$_Wrap_alloc@V?$allocator@U_Container_proxy@std@@@std@@@std@@QAEXPAU_Container_proxy@2@I@Z 1000a3e0 f i capldll.obj
 0001:00009400       ?deallocate@?$allocator@U?$_Tree_node@U?$pair@$$CBKPAVCaplInstanceData@@@std@@PAX@std@@@std@@QAEXPAU?$_Tree_node@U?$pair@$$CBKPAVCaplInstanceData@@@std@@PAX@2@I@Z 1000a400 f i capldll.obj
 0001:00009420       ?deallocate@?$allocator@U?$_Tree_node@U?$pair@$$CBKPAVVIACapl@@@std@@PAX@std@@@std@@QAEXPAU?$_Tree_node@U?$pair@$$CBKPAVVIACapl@@@std@@PAX@2@I@Z 1000a420 f i capldll.obj
 0001:00009440       ?deallocate@?$allocator@U_Container_proxy@std@@@std@@QAEXPAU_Container_proxy@2@I@Z 1000a440 f i capldll.obj
 0001:00009460       ?end@?$_Tree@V?$_Tmap_traits@KPAVCaplInstanceData@@U?$less@K@std@@V?$allocator@U?$pair@$$CBKPAVCaplInstanceData@@@std@@@3@$0A@@std@@@std@@QAE?AV?$_Tree_iterator@V?$_Tree_val@U?$_Tree_simple_types@U?$pair@$$CBKPAVCaplInstanceData@@@std@@@std@@@std@@@2@XZ 1000a460 f i capldll.obj
 0001:00009490       ?end@?$_Tree@V?$_Tmap_traits@KPAVVIACapl@@U?$less@K@std@@V?$allocator@U?$pair@$$CBKPAVVIACapl@@@std@@@3@$0A@@std@@@std@@QAE?AV?$_Tree_iterator@V?$_Tree_val@U?$_Tree_simple_types@U?$pair@$$CBKPAVVIACapl@@@std@@@std@@@std@@@2@XZ 1000a490 f i capldll.obj
 0001:000094c0       ?equal_range@?$_Tree@V?$_Tmap_traits@KPAVCaplInstanceData@@U?$less@K@std@@V?$allocator@U?$pair@$$CBKPAVCaplInstanceData@@@std@@@3@$0A@@std@@@std@@QAE?AU?$pair@V?$_Tree_iterator@V?$_Tree_val@U?$_Tree_simple_types@U?$pair@$$CBKPAVCaplInstanceData@@@std@@@std@@@std@@@std@@V12@@2@ABK@Z 1000a4c0 f i capldll.obj
 0001:00009500       ?erase@?$_Tree@V?$_Tmap_traits@KPAVCaplInstanceData@@U?$less@K@std@@V?$allocator@U?$pair@$$CBKPAVCaplInstanceData@@@std@@@3@$0A@@std@@@std@@QAE?AV?$_Tree_iterator@V?$_Tree_val@U?$_Tree_simple_types@U?$pair@$$CBKPAVCaplInstanceData@@@std@@@std@@@std@@@2@V?$_Tree_const_iterator@V?$_Tree_val@U?$_Tree_simple_types@U?$pair@$$CBKPAVCaplInstanceData@@@std@@@std@@@std@@@2@0@Z 1000a500 f i capldll.obj
 0001:000096e0       ?erase@?$_Tree@V?$_Tmap_traits@KPAVCaplInstanceData@@U?$less@K@std@@V?$allocator@U?$pair@$$CBKPAVCaplInstanceData@@@std@@@3@$0A@@std@@@std@@QAE?AV?$_Tree_iterator@V?$_Tree_val@U?$_Tree_simple_types@U?$pair@$$CBKPAVCaplInstanceData@@@std@@@std@@@std@@@2@V?$_Tree_const_iterator@V?$_Tree_val@U?$_Tree_simple_types@U?$pair@$$CBKPAVCaplInstanceData@@@std@@@std@@@std@@@2@@Z 1000a6e0 f i capldll.obj
 0001:00009ef0       ?erase@?$_Tree@V?$_Tmap_traits@KPAVCaplInstanceData@@U?$less@K@std@@V?$allocator@U?$pair@$$CBKPAVCaplInstanceData@@@std@@@3@$0A@@std@@@std@@QAEIABK@Z 1000aef0 f i capldll.obj
 0001:00009ff0       ?erase@?$_Tree@V?$_Tmap_traits@KPAVVIACapl@@U?$less@K@std@@V?$allocator@U?$pair@$$CBKPAVVIACapl@@@std@@@3@$0A@@std@@@std@@QAE?AV?$_Tree_iterator@V?$_Tree_val@U?$_Tree_simple_types@U?$pair@$$CBKPAVVIACapl@@@std@@@std@@@std@@@2@V?$_Tree_const_iterator@V?$_Tree_val@U?$_Tree_simple_types@U?$pair@$$CBKPAVVIACapl@@@std@@@std@@@std@@@2@0@Z 1000aff0 f i capldll.obj
 0001:0000a1d0       ?erase@?$_Tree@V?$_Tmap_traits@KPAVVIACapl@@U?$less@K@std@@V?$allocator@U?$pair@$$CBKPAVVIACapl@@@std@@@3@$0A@@std@@@std@@QAE?AV?$_Tree_iterator@V?$_Tree_val@U?$_Tree_simple_types@U?$pair@$$CBKPAVVIACapl@@@std@@@std@@@std@@@2@V?$_Tree_const_iterator@V?$_Tree_val@U?$_Tree_simple_types@U?$pair@$$CBKPAVVIACapl@@@std@@@std@@@std@@@2@@Z 1000b1d0 f i capldll.obj
 0001:0000a9e0       ?find@?$_Tree@V?$_Tmap_traits@KPAVCaplInstanceData@@U?$less@K@std@@V?$allocator@U?$pair@$$CBKPAVCaplInstanceData@@@std@@@3@$0A@@std@@@std@@QAE?AV?$_Tree_iterator@V?$_Tree_val@U?$_Tree_simple_types@U?$pair@$$CBKPAVCaplInstanceData@@@std@@@std@@@std@@@2@ABK@Z 1000b9e0 f i capldll.obj
 0001:0000ab90       ?find@?$_Tree@V?$_Tmap_traits@KPAVVIACapl@@U?$less@K@std@@V?$allocator@U?$pair@$$CBKPAVVIACapl@@@std@@@3@$0A@@std@@@std@@QAE?AV?$_Tree_iterator@V?$_Tree_val@U?$_Tree_simple_types@U?$pair@$$CBKPAVVIACapl@@@std@@@std@@@std@@@2@ABK@Z 1000bb90 f i capldll.obj
 0001:0000ad40       ?lower_bound@?$_Tree@V?$_Tmap_traits@KPAVCaplInstanceData@@U?$less@K@std@@V?$allocator@U?$pair@$$CBKPAVCaplInstanceData@@@std@@@3@$0A@@std@@@std@@QAE?AV?$_Tree_iterator@V?$_Tree_val@U?$_Tree_simple_types@U?$pair@$$CBKPAVCaplInstanceData@@@std@@@std@@@std@@@2@ABK@Z 1000bd40 f i capldll.obj
 0001:0000ad80       ?lower_bound@?$_Tree@V?$_Tmap_traits@KPAVVIACapl@@U?$less@K@std@@V?$allocator@U?$pair@$$CBKPAVVIACapl@@@std@@@3@$0A@@std@@@std@@QAE?AV?$_Tree_iterator@V?$_Tree_val@U?$_Tree_simple_types@U?$pair@$$CBKPAVVIACapl@@@std@@@std@@@std@@@2@ABK@Z 1000bd80 f i capldll.obj
 0001:0000adc0       ?max_size@?$_Tree@V?$_Tmap_traits@KPAVCaplInstanceData@@U?$less@K@std@@V?$allocator@U?$pair@$$CBKPAVCaplInstanceData@@@std@@@3@$0A@@std@@@std@@QBEIXZ 1000bdc0 f i capldll.obj
 0001:0000ade0       ?max_size@?$_Tree@V?$_Tmap_traits@KPAVVIACapl@@U?$less@K@std@@V?$allocator@U?$pair@$$CBKPAVVIACapl@@@std@@@3@$0A@@std@@@std@@QBEIXZ 1000bde0 f i capldll.obj
 0001:0000ae00       ?max_size@?$_Wrap_alloc@V?$allocator@U?$_Tree_node@U?$pair@$$CBKPAVCaplInstanceData@@@std@@PAX@std@@@std@@@std@@QBEIXZ 1000be00 f i capldll.obj
 0001:0000ae20       ?max_size@?$_Wrap_alloc@V?$allocator@U?$_Tree_node@U?$pair@$$CBKPAVVIACapl@@@std@@PAX@std@@@std@@@std@@QBEIXZ 1000be20 f i capldll.obj
 0001:0000ae40       ?max_size@?$allocator@U?$_Tree_node@U?$pair@$$CBKPAVCaplInstanceData@@@std@@PAX@std@@@std@@QBEIXZ 1000be40 f i capldll.obj
 0001:0000ae50       ?max_size@?$allocator@U?$_Tree_node@U?$pair@$$CBKPAVVIACapl@@@std@@PAX@std@@@std@@QBEIXZ 1000be50 f i capldll.obj
 0001:0000ae60       ?max_size@?$allocator_traits@V?$allocator@U?$_Tree_node@U?$pair@$$CBKPAVCaplInstanceData@@@std@@PAX@std@@@std@@@std@@SAIABV?$allocator@U?$_Tree_node@U?$pair@$$CBKPAVCaplInstanceData@@@std@@PAX@std@@@2@@Z 1000be60 f i capldll.obj
 0001:0000ae70       ?max_size@?$allocator_traits@V?$allocator@U?$_Tree_node@U?$pair@$$CBKPAVVIACapl@@@std@@PAX@std@@@std@@@std@@SAIABV?$allocator@U?$_Tree_node@U?$pair@$$CBKPAVVIACapl@@@std@@PAX@std@@@2@@Z 1000be70 f i capldll.obj
 0001:0000ae80       ?pointer_to@?$pointer_traits@PAU?$pair@$$CBKPAVCaplInstanceData@@@std@@@std@@SAPAU?$pair@$$CBKPAVCaplInstanceData@@@2@AAU32@@Z 1000be80 f i capldll.obj
 0001:0000aea0       ?pointer_to@?$pointer_traits@PAU?$pair@$$CBKPAVVIACapl@@@std@@@std@@SAPAU?$pair@$$CBKPAVVIACapl@@@2@AAU32@@Z 1000bea0 f i capldll.obj
 0001:0000aec0       ?size@?$_Tree@V?$_Tmap_traits@KPAVCaplInstanceData@@U?$less@K@std@@V?$allocator@U?$pair@$$CBKPAVCaplInstanceData@@@std@@@3@$0A@@std@@@std@@QBEIXZ 1000bec0 f i capldll.obj
 0001:0000aee0       ?size@?$_Tree@V?$_Tmap_traits@KPAVVIACapl@@U?$less@K@std@@V?$allocator@U?$pair@$$CBKPAVVIACapl@@@std@@@3@$0A@@std@@@std@@QBEIXZ 1000bee0 f i capldll.obj
 0001:0000af00       _hypot                     1000bf00 f i capldll.obj
 0001:0000af28       _HeapAlloc@12              1000bf28 f   kernel32:KERNEL32.dll
 0001:0000af2e       _HeapFree@12               1000bf2e f   kernel32:KERNEL32.dll
 0001:0000af34       _GetProcessHeap@0          1000bf34 f   kernel32:KERNEL32.dll
 0001:0000af3a       _GetModuleFileNameA@12     1000bf3a f   kernel32:KERNEL32.dll
 0001:0000af40       ??0_Init_locks@std@@QAE@XZ 1000bf40 f   libcpmtd:xlock.obj
 0001:0000af90       ??0_Lockit@std@@QAE@H@Z    1000bf90 f   libcpmtd:xlock.obj
 0001:0000afe0       ??0_Lockit@std@@QAE@XZ     1000bfe0 f   libcpmtd:xlock.obj
 0001:0000b030       ??1_Init_locks@std@@QAE@XZ 1000c030 f   libcpmtd:xlock.obj
 0001:0000b080       ??1_Lockit@std@@QAE@XZ     1000c080 f   libcpmtd:xlock.obj
 0001:0000b0c0       ?_Init_locks_ctor@_Init_locks@std@@CAXPAV12@@Z 1000c0c0 f   libcpmtd:xlock.obj
 0001:0000b110       ?_Init_locks_dtor@_Init_locks@std@@CAXPAV12@@Z 1000c110 f   libcpmtd:xlock.obj
 0001:0000b160       ?_Lockit_ctor@_Lockit@std@@CAXPAV12@@Z 1000c160 f   libcpmtd:xlock.obj
 0001:0000b180       ?_Lockit_ctor@_Lockit@std@@CAXPAV12@H@Z 1000c180 f   libcpmtd:xlock.obj
 0001:0000b1c0       ?_Lockit_ctor@_Lockit@std@@SAXH@Z 1000c1c0 f   libcpmtd:xlock.obj
 0001:0000b1f0       ?_Lockit_dtor@_Lockit@std@@CAXPAV12@@Z 1000c1f0 f   libcpmtd:xlock.obj
 0001:0000b210       ?_Lockit_dtor@_Lockit@std@@SAXH@Z 1000c210 f   libcpmtd:xlock.obj
 0001:0000b240       ?_Debug_message@std@@YAXPBG0I@Z 1000c240 f   libcpmtd:stdthrow.obj
 0001:0000b260       ?_Debug_message@std@@YAXPB_W0I@Z 1000c260 f   libcpmtd:stdthrow.obj
 0001:0000b290       ??$_Allocate@D@std@@YAPADIPAD@Z 1000c290 f i libcpmtd:xthrow.obj
 0001:0000b2d0       ??$_Debug_pointer@D@std@@YAXPBDPB_WI@Z 1000c2d0 f i libcpmtd:xthrow.obj
 0001:0000b2f0       ??$addressof@D@std@@YAPADAAD@Z 1000c2f0 f i libcpmtd:xthrow.obj
 0001:0000b300       ??$construct@PADAAPAD@?$_Wrap_alloc@V?$allocator@D@std@@@std@@QAEXPAPADAAPAD@Z 1000c300 f i libcpmtd:xthrow.obj
 0001:0000b330       ??$construct@PADAAPAD@?$allocator@D@std@@QAEXPAPADAAPAD@Z 1000c330 f i libcpmtd:xthrow.obj
 0001:0000b3c0       ??$construct@PADAAPAD@?$allocator_traits@V?$allocator@D@std@@@std@@SAXAAV?$allocator@D@1@PAPADAAPAD@Z 1000c3c0 f i libcpmtd:xthrow.obj
 0001:0000b3e0       ??$destroy@PAD@?$_Wrap_alloc@V?$allocator@D@std@@@std@@QAEXPAPAD@Z 1000c3e0 f i libcpmtd:xthrow.obj
 0001:0000b400       ??$destroy@PAD@?$allocator@D@std@@QAEXPAPAD@Z 1000c400 f i libcpmtd:xthrow.obj
 0001:0000b410       ??$destroy@PAD@?$allocator_traits@V?$allocator@D@std@@@std@@SAXAAV?$allocator@D@1@PAPAD@Z 1000c410 f i libcpmtd:xthrow.obj
 0001:0000b430       ??$forward@AAPAD@std@@YAAAPADAAPAD@Z 1000c430 f i libcpmtd:xthrow.obj
 0001:0000b440       ??0?$_String_alloc@$0A@U?$_String_base_types@DV?$allocator@D@std@@@std@@@std@@QAE@ABV?$allocator@D@1@@Z 1000c440 f i libcpmtd:xthrow.obj
 0001:0000b4a0       ??0?$_String_val@U?$_Simple_types@D@std@@@std@@QAE@XZ 1000c4a0 f i libcpmtd:xthrow.obj
 0001:0000b4d0       ??0?$_Wrap_alloc@V?$allocator@D@std@@@std@@QAE@XZ 1000c4d0 f i libcpmtd:xthrow.obj
 0001:0000b4f0       ??0?$allocator@D@std@@QAE@XZ 1000c4f0 f i libcpmtd:xthrow.obj
 0001:0000b500       ??0?$allocator@U_Container_proxy@std@@@std@@QAE@XZ 1000c500 f i libcpmtd:xthrow.obj
 0001:0000b510       ??0?$basic_string@DU?$char_traits@D@std@@V?$allocator@D@2@@std@@QAE@PBD@Z 1000c510 f i libcpmtd:xthrow.obj
 0001:0000b590       ??0_Generic_error_category@std@@QAE@XZ 1000c590 f i libcpmtd:xthrow.obj
 0001:0000b5b0       ??0_Iostream_error_category@std@@QAE@XZ 1000c5b0 f i libcpmtd:xthrow.obj
 0001:0000b5d0       ??0_System_error_category@std@@QAE@XZ 1000c5d0 f i libcpmtd:xthrow.obj
 0001:0000b5f0       ??0bad_alloc@std@@QAE@ABV01@@Z 1000c5f0 f i libcpmtd:xthrow.obj
 0001:0000b620       ??0bad_alloc@std@@QAE@XZ   1000c620 f i libcpmtd:xthrow.obj
 0001:0000b650       ??0bad_function_call@std@@QAE@ABV01@@Z 1000c650 f i libcpmtd:xthrow.obj
 0001:0000b680       ??0bad_function_call@std@@QAE@PBD@Z 1000c680 f i libcpmtd:xthrow.obj
 0001:0000b6b0       ??0error_category@std@@QAE@XZ 1000c6b0 f i libcpmtd:xthrow.obj
 0001:0000b6d0       ??0error_condition@std@@QAE@HABVerror_category@1@@Z 1000c6d0 f i libcpmtd:xthrow.obj
 0001:0000b700       ??0id@locale@std@@QAE@I@Z  1000c700 f i libcpmtd:xthrow.obj
 0001:0000b720       ??0invalid_argument@std@@QAE@ABV01@@Z 1000c720 f i libcpmtd:xthrow.obj
 0001:0000b750       ??0invalid_argument@std@@QAE@PBD@Z 1000c750 f i libcpmtd:xthrow.obj
 0001:0000b780       ??0length_error@std@@QAE@ABV01@@Z 1000c780 f i libcpmtd:xthrow.obj
 0001:0000b7b0       ??0length_error@std@@QAE@PBD@Z 1000c7b0 f i libcpmtd:xthrow.obj
 0001:0000b7e0       ??0logic_error@std@@QAE@ABV01@@Z 1000c7e0 f i libcpmtd:xthrow.obj
 0001:0000b810       ??0logic_error@std@@QAE@PBD@Z 1000c810 f i libcpmtd:xthrow.obj
 0001:0000b840       ??0out_of_range@std@@QAE@ABV01@@Z 1000c840 f i libcpmtd:xthrow.obj
 0001:0000b870       ??0out_of_range@std@@QAE@PBD@Z 1000c870 f i libcpmtd:xthrow.obj
 0001:0000b8a0       ??0overflow_error@std@@QAE@ABV01@@Z 1000c8a0 f i libcpmtd:xthrow.obj
 0001:0000b8d0       ??0overflow_error@std@@QAE@PBD@Z 1000c8d0 f i libcpmtd:xthrow.obj
 0001:0000b900       ??0regex_error@std@@QAE@ABV01@@Z 1000c900 f i libcpmtd:xthrow.obj
 0001:0000b940       ??0regex_error@std@@QAE@W4error_type@regex_constants@1@@Z 1000c940 f i libcpmtd:xthrow.obj
 0001:0000b980       ??0runtime_error@std@@QAE@ABV01@@Z 1000c980 f i libcpmtd:xthrow.obj
 0001:0000b9b0       ??0runtime_error@std@@QAE@PBD@Z 1000c9b0 f i libcpmtd:xthrow.obj
 0001:0000b9e0       ??1?$_String_alloc@$0A@U?$_String_base_types@DV?$allocator@D@std@@@std@@@std@@QAE@XZ 1000c9e0 f i libcpmtd:xthrow.obj
 0001:0000ba00       ??1?$_String_val@U?$_Simple_types@D@std@@@std@@QAE@XZ 1000ca00 f i libcpmtd:xthrow.obj
 0001:0000ba20       ??1_Generic_error_category@std@@UAE@XZ 1000ca20 f i libcpmtd:xthrow.obj
 0001:0000ba40       ??1_Iostream_error_category@std@@UAE@XZ 1000ca40 f i libcpmtd:xthrow.obj
 0001:0000ba60       ??1_System_error_category@std@@UAE@XZ 1000ca60 f i libcpmtd:xthrow.obj
 0001:0000ba80       ??1bad_alloc@std@@UAE@XZ   1000ca80 f i libcpmtd:xthrow.obj
 0001:0000baa0       ??1bad_function_call@std@@UAE@XZ 1000caa0 f i libcpmtd:xthrow.obj
 0001:0000bac0       ??1error_category@std@@UAE@XZ 1000cac0 f i libcpmtd:xthrow.obj
 0001:0000bae0       ??1invalid_argument@std@@UAE@XZ 1000cae0 f i libcpmtd:xthrow.obj
 0001:0000bb00       ??1length_error@std@@UAE@XZ 1000cb00 f i libcpmtd:xthrow.obj
 0001:0000bb20       ??1logic_error@std@@UAE@XZ 1000cb20 f i libcpmtd:xthrow.obj
 0001:0000bb40       ??1out_of_range@std@@UAE@XZ 1000cb40 f i libcpmtd:xthrow.obj
 0001:0000bb60       ??1overflow_error@std@@UAE@XZ 1000cb60 f i libcpmtd:xthrow.obj
 0001:0000bb80       ??1regex_error@std@@UAE@XZ 1000cb80 f i libcpmtd:xthrow.obj
 0001:0000bba0       ??1runtime_error@std@@UAE@XZ 1000cba0 f i libcpmtd:xthrow.obj
 0001:0000bbc0       ??8error_category@std@@QBE_NABV01@@Z 1000cbc0 f i libcpmtd:xthrow.obj
 0001:0000bbf0       ??8error_condition@std@@QBE_NABV01@@Z 1000cbf0 f i libcpmtd:xthrow.obj
 0001:0000bc50       ??_G_Generic_error_category@std@@UAEPAXI@Z 1000cc50 f i libcpmtd:xthrow.obj
 0001:0000bc50       ??_E_Generic_error_category@std@@UAEPAXI@Z 1000cc50 f i libcpmtd:xthrow.obj
 0001:0000bc80       ??_G_Iostream_error_category@std@@UAEPAXI@Z 1000cc80 f i libcpmtd:xthrow.obj
 0001:0000bc80       ??_E_Iostream_error_category@std@@UAEPAXI@Z 1000cc80 f i libcpmtd:xthrow.obj
 0001:0000bcb0       ??_E_System_error_category@std@@UAEPAXI@Z 1000ccb0 f i libcpmtd:xthrow.obj
 0001:0000bcb0       ??_G_System_error_category@std@@UAEPAXI@Z 1000ccb0 f i libcpmtd:xthrow.obj
 0001:0000bce0       ??_Ebad_alloc@std@@UAEPAXI@Z 1000cce0 f i libcpmtd:xthrow.obj
 0001:0000bce0       ??_Gbad_alloc@std@@UAEPAXI@Z 1000cce0 f i libcpmtd:xthrow.obj
 0001:0000bd10       ??_Gbad_function_call@std@@UAEPAXI@Z 1000cd10 f i libcpmtd:xthrow.obj
 0001:0000bd10       ??_Ebad_function_call@std@@UAEPAXI@Z 1000cd10 f i libcpmtd:xthrow.obj
 0001:0000bd40       ??_Gerror_category@std@@UAEPAXI@Z 1000cd40 f i libcpmtd:xthrow.obj
 0001:0000bd40       ??_Eerror_category@std@@UAEPAXI@Z 1000cd40 f i libcpmtd:xthrow.obj
 0001:0000bd70       ??_Einvalid_argument@std@@UAEPAXI@Z 1000cd70 f i libcpmtd:xthrow.obj
 0001:0000bd70       ??_Ginvalid_argument@std@@UAEPAXI@Z 1000cd70 f i libcpmtd:xthrow.obj
 0001:0000bda0       ??_Glength_error@std@@UAEPAXI@Z 1000cda0 f i libcpmtd:xthrow.obj
 0001:0000bda0       ??_Elength_error@std@@UAEPAXI@Z 1000cda0 f i libcpmtd:xthrow.obj
 0001:0000bdd0       ??_Elogic_error@std@@UAEPAXI@Z 1000cdd0 f i libcpmtd:xthrow.obj
 0001:0000bdd0       ??_Glogic_error@std@@UAEPAXI@Z 1000cdd0 f i libcpmtd:xthrow.obj
 0001:0000be00       ??_Gout_of_range@std@@UAEPAXI@Z 1000ce00 f i libcpmtd:xthrow.obj
 0001:0000be00       ??_Eout_of_range@std@@UAEPAXI@Z 1000ce00 f i libcpmtd:xthrow.obj
 0001:0000be30       ??_Goverflow_error@std@@UAEPAXI@Z 1000ce30 f i libcpmtd:xthrow.obj
 0001:0000be30       ??_Eoverflow_error@std@@UAEPAXI@Z 1000ce30 f i libcpmtd:xthrow.obj
 0001:0000be60       ??_Gregex_error@std@@UAEPAXI@Z 1000ce60 f i libcpmtd:xthrow.obj
 0001:0000be60       ??_Eregex_error@std@@UAEPAXI@Z 1000ce60 f i libcpmtd:xthrow.obj
 0001:0000be90       ??_Gruntime_error@std@@UAEPAXI@Z 1000ce90 f i libcpmtd:xthrow.obj
 0001:0000be90       ??_Eruntime_error@std@@UAEPAXI@Z 1000ce90 f i libcpmtd:xthrow.obj
 0001:0000bec0       ?_Alloc_proxy@?$_String_alloc@$0A@U?$_String_base_types@DV?$allocator@D@std@@@std@@@std@@QAEXXZ 1000cec0 f i libcpmtd:xthrow.obj
 0001:0000bf10       ?_Copy@?$basic_string@DU?$char_traits@D@std@@V?$allocator@D@2@@std@@QAEXII@Z 1000cf10 f i libcpmtd:xthrow.obj
 0001:0000c0d0       ?_Eos@?$basic_string@DU?$char_traits@D@std@@V?$allocator@D@2@@std@@QAEXI@Z 1000d0d0 f i libcpmtd:xthrow.obj
 0001:0000c110       ?_Free_proxy@?$_String_alloc@$0A@U?$_String_base_types@DV?$allocator@D@std@@@std@@@std@@QAEXXZ 1000d110 f i libcpmtd:xthrow.obj
 0001:0000c160       ?_Getal@?$_String_alloc@$0A@U?$_String_base_types@DV?$allocator@D@std@@@std@@@std@@QBE?AU?$_Wrap_alloc@V?$allocator@D@std@@@2@XZ 1000d160 f i libcpmtd:xthrow.obj
 0001:0000c180       ?_Grow@?$basic_string@DU?$char_traits@D@std@@V?$allocator@D@2@@std@@QAE_NI_N@Z 1000d180 f i libcpmtd:xthrow.obj
 0001:0000c230       ?_Inside@?$basic_string@DU?$char_traits@D@std@@V?$allocator@D@2@@std@@QAE_NPBD@Z 1000d230 f i libcpmtd:xthrow.obj
 0001:0000c270       ?_Myptr@?$_String_val@U?$_Simple_types@D@std@@@std@@QAEPADXZ 1000d270 f i libcpmtd:xthrow.obj
 0001:0000c2b0       ?_Myptr@?$_String_val@U?$_Simple_types@D@std@@@std@@QBEPBDXZ 1000d2b0 f i libcpmtd:xthrow.obj
 0001:0000c2f0       ?_Stringify@regex_error@std@@CAPBDW4error_type@regex_constants@2@@Z 1000d2f0 f i libcpmtd:xthrow.obj
 0001:0000c3c0       ?_Tidy@?$basic_string@DU?$char_traits@D@std@@V?$allocator@D@2@@std@@QAEX_NI@Z 1000d3c0 f i libcpmtd:xthrow.obj
 0001:0000c470       ?_Xbad_alloc@std@@YAXXZ    1000d470 f   libcpmtd:xthrow.obj
 0001:0000c490       ?_Xbad_function_call@std@@YAXXZ 1000d490 f   libcpmtd:xthrow.obj
 0001:0000c4c0       ?_Xinvalid_argument@std@@YAXPBD@Z 1000d4c0 f   libcpmtd:xthrow.obj
 0001:0000c4f0       ?_Xlen@?$basic_string@DU?$char_traits@D@std@@V?$allocator@D@2@@std@@QBEXXZ 1000d4f0 f i libcpmtd:xthrow.obj
 0001:0000c510       ?_Xlength_error@std@@YAXPBD@Z 1000d510 f   libcpmtd:xthrow.obj
 0001:0000c540       ?_Xout_of_range@std@@YAXPBD@Z 1000d540 f   libcpmtd:xthrow.obj
 0001:0000c570       ?_Xoverflow_error@std@@YAXPBD@Z 1000d570 f   libcpmtd:xthrow.obj
 0001:0000c5a0       ?_Xran@?$basic_string@DU?$char_traits@D@std@@V?$allocator@D@2@@std@@QBEXXZ 1000d5a0 f i libcpmtd:xthrow.obj
 0001:0000c5c0       ?_Xregex_error@std@@YAXW4error_type@regex_constants@1@@Z 1000d5c0 f   libcpmtd:xthrow.obj
 0001:0000c5f0       ?_Xruntime_error@std@@YAXPBD@Z 1000d5f0 f   libcpmtd:xthrow.obj
 0001:0000c620       ?allocate@?$_Wrap_alloc@V?$allocator@D@std@@@std@@QAEPADI@Z 1000d620 f i libcpmtd:xthrow.obj
 0001:0000c640       ?allocate@?$allocator@D@std@@QAEPADI@Z 1000d640 f i libcpmtd:xthrow.obj
 0001:0000c660       ?assign@?$basic_string@DU?$char_traits@D@std@@V?$allocator@D@2@@std@@QAEAAV12@ABV12@II@Z 1000d660 f i libcpmtd:xthrow.obj
 0001:0000c710       ?assign@?$basic_string@DU?$char_traits@D@std@@V?$allocator@D@2@@std@@QAEAAV12@PBD@Z 1000d710 f i libcpmtd:xthrow.obj
 0001:0000c750       ?assign@?$basic_string@DU?$char_traits@D@std@@V?$allocator@D@2@@std@@QAEAAV12@PBDI@Z 1000d750 f i libcpmtd:xthrow.obj
 0001:0000c7f0       ?assign@?$char_traits@D@std@@SAXAADABD@Z 1000d7f0 f i libcpmtd:xthrow.obj
 0001:0000c800       ?category@error_code@std@@QBEABVerror_category@2@XZ 1000d800 f i libcpmtd:xthrow.obj
 0001:0000c820       ?category@error_condition@std@@QBEABVerror_category@2@XZ 1000d820 f i libcpmtd:xthrow.obj
 0001:0000c840       ?copy@?$char_traits@D@std@@SAPADPADPBDI@Z 1000d840 f i libcpmtd:xthrow.obj
 0001:0000c870       ?deallocate@?$_Wrap_alloc@V?$allocator@D@std@@@std@@QAEXPADI@Z 1000d870 f i libcpmtd:xthrow.obj
 0001:0000c890       ?deallocate@?$allocator@D@std@@QAEXPADI@Z 1000d890 f i libcpmtd:xthrow.obj
 0001:0000c8b0       ?default_error_condition@_System_error_category@std@@UBE?AVerror_condition@2@H@Z 1000d8b0 f i libcpmtd:xthrow.obj
 0001:0000c900       ?default_error_condition@error_category@std@@UBE?AVerror_condition@2@H@Z 1000d900 f i libcpmtd:xthrow.obj
 0001:0000c920       ?equivalent@error_category@std@@UBE_NABVerror_code@2@H@Z 1000d920 f i libcpmtd:xthrow.obj
 0001:0000c970       ?equivalent@error_category@std@@UBE_NHABVerror_condition@2@@Z 1000d970 f i libcpmtd:xthrow.obj
 0001:0000c9a0       ?erase@?$basic_string@DU?$char_traits@D@std@@V?$allocator@D@2@@std@@QAEAAV12@I@Z 1000d9a0 f i libcpmtd:xthrow.obj
 0001:0000c9d0       ?erase@?$basic_string@DU?$char_traits@D@std@@V?$allocator@D@2@@std@@QAEAAV12@II@Z 1000d9d0 f i libcpmtd:xthrow.obj
 0001:0000ca60       ?generic_category@std@@YAABVerror_category@1@XZ 1000da60 f i libcpmtd:xthrow.obj
 0001:0000ca70       ?length@?$char_traits@D@std@@SAIPBD@Z 1000da70 f i libcpmtd:xthrow.obj
 0001:0000caa0       ?max_size@?$_Wrap_alloc@V?$allocator@D@std@@@std@@QBEIXZ 1000daa0 f i libcpmtd:xthrow.obj
 0001:0000cac0       ?max_size@?$allocator@D@std@@QBEIXZ 1000dac0 f i libcpmtd:xthrow.obj
 0001:0000cad0       ?max_size@?$allocator_traits@V?$allocator@D@std@@@std@@SAIABV?$allocator@D@2@@Z 1000dad0 f i libcpmtd:xthrow.obj
 0001:0000cae0       ?max_size@?$basic_string@DU?$char_traits@D@std@@V?$allocator@D@2@@std@@QBEIXZ 1000dae0 f i libcpmtd:xthrow.obj
 0001:0000cb20       ?message@_Generic_error_category@std@@UBE?AV?$basic_string@DU?$char_traits@D@std@@V?$allocator@D@2@@2@H@Z 1000db20 f i libcpmtd:xthrow.obj
 0001:0000cb80       ?message@_Iostream_error_category@std@@UBE?AV?$basic_string@DU?$char_traits@D@std@@V?$allocator@D@2@@2@H@Z 1000db80 f i libcpmtd:xthrow.obj
 0001:0000cbe0       ?message@_System_error_category@std@@UBE?AV?$basic_string@DU?$char_traits@D@std@@V?$allocator@D@2@@2@H@Z 1000dbe0 f i libcpmtd:xthrow.obj
 0001:0000cc40       ?move@?$char_traits@D@std@@SAPADPADPBDI@Z 1000dc40 f i libcpmtd:xthrow.obj
 0001:0000cc70       ?name@_Generic_error_category@std@@UBEPBDXZ 1000dc70 f i libcpmtd:xthrow.obj
 0001:0000cc80       ?name@_Iostream_error_category@std@@UBEPBDXZ 1000dc80 f i libcpmtd:xthrow.obj
 0001:0000cc90       ?name@_System_error_category@std@@UBEPBDXZ 1000dc90 f i libcpmtd:xthrow.obj
 0001:0000cca0       ?size@?$basic_string@DU?$char_traits@D@std@@V?$allocator@D@2@@std@@QBEIXZ 1000dca0 f i libcpmtd:xthrow.obj
 0001:0000ccc0       ?system_category@std@@YAABVerror_category@1@XZ 1000dcc0 f i libcpmtd:xthrow.obj
 0001:0000ccd0       ?value@error_code@std@@QBEHXZ 1000dcd0 f i libcpmtd:xthrow.obj
 0001:0000cce0       ?value@error_condition@std@@QBEHXZ 1000dce0 f i libcpmtd:xthrow.obj
 0001:0000ccf0       ?what@bad_function_call@std@@UBEPBDXZ 1000dcf0 f i libcpmtd:xthrow.obj
 0001:0000cd00       __Mtxdst                   1000dd00 f   libcpmtd:xmtx.obj
 0001:0000cd10       __Mtxinit                  1000dd10 f   libcpmtd:xmtx.obj
 0001:0000cd30       __Mtxlock                  1000dd30 f   libcpmtd:xmtx.obj
 0001:0000cd40       __Mtxunlock                1000dd40 f   libcpmtd:xmtx.obj
 0001:0000cd50       __Once                     1000dd50 f   libcpmtd:xmtx.obj
 0001:0000cdb0       ?_Syserror_map@std@@YAPBDH@Z 1000ddb0 f   libcpmtd:syserror.obj
 0001:0000ce00       ?_Winerror_map@std@@YAPBDH@Z 1000de00 f   libcpmtd:syserror.obj
 0001:0000ce44       _GetAdaptersInfo@8         1000de44 f   IPHLPAPI:IPHLPAPI.DLL
 0001:0000ce50       ??2@YAPAXI@Z               1000de50 f   LIBCMTD:new.obj
 0001:0000cea0       ??3@YAXPAX@Z               1000dea0 f   LIBCMTD:dbgdel.obj
 0001:0000cf90       ___onexitinit              1000df90 f   LIBCMTD:onexit.obj
 0001:0000cff0       __onexit                   1000dff0 f   LIBCMTD:onexit.obj
 0001:0000d1b0       _atexit                    1000e1b0 f   LIBCMTD:onexit.obj
 0001:0000d1e0       ?_invalid_parameter@@YAXPBG00II@Z 1000e1e0 f   LIBCMTD:invarg.obj
 0001:0000d210       ?_invoke_watson@@YAXPBG00II@Z 1000e210 f   LIBCMTD:invarg.obj
 0001:0000d230       __call_reportfault         1000e230 f   LIBCMTD:invarg.obj
 0001:0000d390       __get_invalid_parameter_handler 1000e390 f   LIBCMTD:invarg.obj
 0001:0000d3c0       __initp_misc_invarg        1000e3c0 f   LIBCMTD:invarg.obj
 0001:0000d3d0       __invalid_parameter        1000e3d0 f   LIBCMTD:invarg.obj
 0001:0000d430       __invoke_watson            1000e430 f   LIBCMTD:invarg.obj
 0001:0000d470       __set_invalid_parameter_handler 1000e470 f   LIBCMTD:invarg.obj
 0001:0000d4b0       _memcpy                    1000e4b0 f   LIBCMTD:memcpy.obj
 0001:0000db00       _strcpy_s                  1000eb00 f   LIBCMTD:strcpy_s.obj
 0001:0000de00       _strlen                    1000ee00 f   LIBCMTD:strlen.obj
 0001:0000de90       __splitpath_s              1000ee90 f   LIBCMTD:splitpath_s.obj
 0001:0000e4d0       __get_printf_count_output  1000f4d0 f   LIBCMTD:printf.obj
 0001:0000e500       __printf_l                 1000f500 f   LIBCMTD:printf.obj
 0001:0000e530       __printf_p                 1000f530 f   LIBCMTD:printf.obj
 0001:0000e550       __printf_p_l               1000f550 f   LIBCMTD:printf.obj
 0001:0000e580       __printf_s_l               1000f580 f   LIBCMTD:printf.obj
 0001:0000e5b0       __set_printf_count_output  1000f5b0 f   LIBCMTD:printf.obj
 0001:0000e610       _printf                    1000f610 f   LIBCMTD:printf.obj
 0001:0000e790       _printf_s                  1000f790 f   LIBCMTD:printf.obj
 0001:0000e7b0       __cabs                     1000f7b0 f   LIBCMTD:hypot.obj
 0001:0000e7e0       __hypot                    1000f7e0 f   LIBCMTD:hypot.obj
 0001:0000eb40       ?_CrtDbgReportW@@YAHHPBGH00ZZ 1000fb40 f   LIBCMTD:dbgrptw.obj
 0001:0000eb90       __CrtDbgReportW            1000fb90 f   LIBCMTD:dbgrptw.obj
 0001:0000ebe0       __CrtDbgReportWV           1000fbe0 f i LIBCMTD:dbgrptw.obj
 0001:0000ec10       __CrtSetReportHookW2       1000fc10 f   LIBCMTD:dbgrptw.obj
 0001:0000ef60       ___crtMessageWindowW       1000ff60 f   LIBCMTD:dbgrptw.obj
 0001:0000f410       __invoke_watson_if_error   10010410 f i LIBCMTD:dbgrptw.obj
 0001:0000f440       __invoke_watson_if_oneof   10010440 f i LIBCMTD:dbgrptw.obj
 0001:0000f480       @__security_check_cookie@4 10010480 f   LIBCMTD:secchk.obj
 0001:0000f490       __CxxThrowException@8      10010490 f   LIBCMTD:throw.obj
 0001:0000f630       ?_CallCatchBlock2@@YAPAXPAUEHRegistrationNode@@PBU_s_FuncInfo@@PAXHK@Z 10010630 f   LIBCMTD:_trnsctrl_.obj
 0001:0000f6a0       ?_CallMemberFunction0@@YGXPAX0@Z 100106a0 f   LIBCMTD:_trnsctrl_.obj
 0001:0000f6b0       ?_CallMemberFunction1@@YGXPAX00@Z 100106b0 f   LIBCMTD:_trnsctrl_.obj
 0001:0000f6c0       ?_CallMemberFunction2@@YGXPAX00H@Z 100106c0 f   LIBCMTD:_trnsctrl_.obj
 0001:0000f6d0       ?_CallSETranslator@@YAHPAUEHExceptionRecord@@PAUEHRegistrationNode@@PAX2PBU_s_FuncInfo@@H1@Z 100106d0 f   LIBCMTD:_trnsctrl_.obj
 0001:0000f7c0       ?_GetRangeOfTrysToCheck@@YAPBU_s_TryBlockMapEntry@@PBU_s_FuncInfo@@HHPAI1@Z 100107c0 f   LIBCMTD:_trnsctrl_.obj
 0001:0000f850       ?_JumpToContinuation@@YGXPAXPAUEHRegistrationNode@@@Z 10010850 f   LIBCMTD:_trnsctrl_.obj
 0001:0000f890       ?_UnwindNestedFrames@@YGXPAUEHRegistrationNode@@PAUEHExceptionRecord@@@Z 10010890 f   LIBCMTD:_trnsctrl_.obj
 0001:0000f8f0       __CreateFrameInfo          100108f0 f   LIBCMTD:_trnsctrl_.obj
 0001:0000f920       __FindAndUnlinkFrame       10010920 f   LIBCMTD:_trnsctrl_.obj
 0001:0000f980       __IsExceptionObjectToBeDestroyed 10010980 f   LIBCMTD:_trnsctrl_.obj
 0001:0000f9b0       ___CxxFrameHandler         100109b0 f   LIBCMTD:_trnsctrl_.obj
 0001:0000f9f0       ___CxxFrameHandler2        100109f0 f   LIBCMTD:_trnsctrl_.obj
 0001:0000fa30       ___CxxFrameHandler3        10010a30 f   LIBCMTD:_trnsctrl_.obj
 0001:0000fa70       ___CxxLongjmpUnwind@4      10010a70 f   LIBCMTD:_trnsctrl_.obj
 0001:0000faa0       ??0type_info@@AAE@ABV0@@Z  10010aa0 f   LIBCMTD:typinfo.obj
 0001:0000fac0       ??1type_info@@UAE@XZ       10010ac0 f   LIBCMTD:typinfo.obj
 0001:0000fae0       ??4type_info@@AAEAAV0@ABV0@@Z 10010ae0 f   LIBCMTD:typinfo.obj
 0001:0000faf0       ??8type_info@@QBE_NABV0@@Z 10010af0 f   LIBCMTD:typinfo.obj
 0001:0000fb30       ??9type_info@@QBE_NABV0@@Z 10010b30 f   LIBCMTD:typinfo.obj
 0001:0000fb70       ??_Etype_info@@UAEPAXI@Z   10010b70 f i LIBCMTD:typinfo.obj
 0001:0000fb70       ??_Gtype_info@@UAEPAXI@Z   10010b70 f i LIBCMTD:typinfo.obj
 0001:0000fba0       ?_name_internal_method@type_info@@QBEPBDPAU__type_info_node@@@Z 10010ba0 f   LIBCMTD:typinfo.obj
 0001:0000fbc0       ?_type_info_dtor_internal_method@type_info@@QAEXXZ 10010bc0 f   LIBCMTD:typinfo.obj
 0001:0000fbe0       ?before@type_info@@QBE_NABV1@@Z 10010be0 f   LIBCMTD:typinfo.obj
 0001:0000fc20       ?name@type_info@@QBEPBDPAU__type_info_node@@@Z 10010c20 f   LIBCMTD:typinfo.obj
 0001:0000fc40       ?raw_name@type_info@@QBEPBDXZ 10010c40 f   LIBCMTD:typinfo.obj
 0001:0000fc60       __fpmath                   10010c60 f   LIBCMTD:fpinit.obj
 0001:0000fc80       ___setfflag                10010c80 f   LIBCMTD:fpinit.obj
 0001:0000fca0       __cfltcvt_init             10010ca0 f   LIBCMTD:fpinit.obj
 0001:0000fd60       __CRT_INIT@12              10010d60 f   LIBCMTD:dllcrt0.obj
 0001:0000ffb0       __DllMainCRTStartup@12     10010fb0 f   LIBCMTD:dllcrt0.obj
 0001:000101b0       ___DllXcptFilter           100111b0 f   LIBCMTD:dllcrt0.obj
 0001:000101e0       __lock                     100111e0 f   LIBCMTD:mlock.obj
 0001:00010220       __lockerr_exit             10011220 f   LIBCMTD:mlock.obj
 0001:00010250       __mtdeletelocks            10011250 f   LIBCMTD:mlock.obj
 0001:00010310       __mtinitlocknum            10011310 f   LIBCMTD:mlock.obj
 0001:00010430       __mtinitlocks              10011430 f   LIBCMTD:mlock.obj
 0001:000104b0       __unlock                   100114b0 f   LIBCMTD:mlock.obj
 0001:000104d0       __get_purecall_handler     100114d0 f   LIBCMTD:purevirt.obj
 0001:000104f0       __purecall                 100114f0 f   LIBCMTD:purevirt.obj
 0001:00010530       __set_purecall_handler     10011530 f   LIBCMTD:purevirt.obj
 0001:00010560       _memmove                   10011560 f   LIBCMTD:memmove.obj
 0001:00010bb0       ??0__non_rtti_object@std@@QAE@ABV01@@Z 10011bb0 f   LIBCMTD:stdexcpt.obj
 0001:00010be0       ??0__non_rtti_object@std@@QAE@PBD@Z 10011be0 f   LIBCMTD:stdexcpt.obj
 0001:00010c10       ??0bad_cast@std@@QAE@ABV01@@Z 10011c10 f   LIBCMTD:stdexcpt.obj
 0001:00010c40       ??0bad_cast@std@@QAE@PBD@Z 10011c40 f   LIBCMTD:stdexcpt.obj
 0001:00010c70       ??0bad_typeid@std@@QAE@ABV01@@Z 10011c70 f   LIBCMTD:stdexcpt.obj
 0001:00010ca0       ??0bad_typeid@std@@QAE@PBD@Z 10011ca0 f   LIBCMTD:stdexcpt.obj
 0001:00010cd0       ??0exception@std@@QAE@ABQBD@Z 10011cd0 f   LIBCMTD:stdexcpt.obj
 0001:00010d10       ??0exception@std@@QAE@ABQBDH@Z 10011d10 f   LIBCMTD:stdexcpt.obj
 0001:00010d40       ??0exception@std@@QAE@ABV01@@Z 10011d40 f   LIBCMTD:stdexcpt.obj
 0001:00010d80       ??0exception@std@@QAE@XZ   10011d80 f   LIBCMTD:stdexcpt.obj
 0001:00010db0       ??1__non_rtti_object@std@@UAE@XZ 10011db0 f   LIBCMTD:stdexcpt.obj
 0001:00010dd0       ??1bad_cast@std@@UAE@XZ    10011dd0 f   LIBCMTD:stdexcpt.obj
 0001:00010df0       ??1bad_typeid@std@@UAE@XZ  10011df0 f   LIBCMTD:stdexcpt.obj
 0001:00010e10       ??1exception@std@@UAE@XZ   10011e10 f   LIBCMTD:stdexcpt.obj
 0001:00010e30       ??4exception@std@@QAEAAV01@ABV01@@Z 10011e30 f   LIBCMTD:stdexcpt.obj
 0001:00010e80       ??_E__non_rtti_object@std@@UAEPAXI@Z 10011e80 f i LIBCMTD:stdexcpt.obj
 0001:00010e80       ??_G__non_rtti_object@std@@UAEPAXI@Z 10011e80 f i LIBCMTD:stdexcpt.obj
 0001:00010eb0       ??_Ebad_cast@std@@UAEPAXI@Z 10011eb0 f i LIBCMTD:stdexcpt.obj
 0001:00010eb0       ??_Gbad_cast@std@@UAEPAXI@Z 10011eb0 f i LIBCMTD:stdexcpt.obj
 0001:00010ee0       ??_Gbad_typeid@std@@UAEPAXI@Z 10011ee0 f i LIBCMTD:stdexcpt.obj
 0001:00010ee0       ??_Ebad_typeid@std@@UAEPAXI@Z 10011ee0 f i LIBCMTD:stdexcpt.obj
 0001:00010f10       ??_Gexception@std@@UAEPAXI@Z 10011f10 f i LIBCMTD:stdexcpt.obj
 0001:00010f10       ??_Eexception@std@@UAEPAXI@Z 10011f10 f i LIBCMTD:stdexcpt.obj
 0001:00010f40       ?_Copy_str@exception@std@@AAEXPBD@Z 10011f40 f   LIBCMTD:stdexcpt.obj
 0001:00010fa0       ?_Tidy@exception@std@@AAEXXZ 10011fa0 f   LIBCMTD:stdexcpt.obj
 0001:00010fe0       ?what@exception@std@@UBEPBDXZ 10011fe0 f   LIBCMTD:stdexcpt.obj
 0001:00011060       ___crtCloseThreadpoolTimer 10012060 f   LIBCMTD:winapisupp.obj
 0001:00011090       ___crtCloseThreadpoolWait  10012090 f   LIBCMTD:winapisupp.obj
 0001:000110c0       ___crtCreateEventExW       100120c0 f   LIBCMTD:winapisupp.obj
 0001:00011120       ___crtCreateSemaphoreExW   10012120 f   LIBCMTD:winapisupp.obj
 0001:00011180       ___crtCreateSymbolicLinkW  10012180 f   LIBCMTD:winapisupp.obj
 0001:000111c0       ___crtCreateThreadpoolTimer 100121c0 f   LIBCMTD:winapisupp.obj
 0001:00011200       ___crtCreateThreadpoolWait 10012200 f   LIBCMTD:winapisupp.obj
 0001:00011240       ___crtFlsAlloc             10012240 f   LIBCMTD:winapisupp.obj
 0001:00011270       ___crtFlsFree              10012270 f   LIBCMTD:winapisupp.obj
 0001:000112b0       ___crtFlsGetValue          100122b0 f   LIBCMTD:winapisupp.obj
 0001:000112f0       ___crtFlsSetValue          100122f0 f   LIBCMTD:winapisupp.obj
 0001:00011330       ___crtFlushProcessWriteBuffers 10012330 f   LIBCMTD:winapisupp.obj
 0001:00011360       ___crtFreeLibraryWhenCallbackReturns 10012360 f   LIBCMTD:winapisupp.obj
 0001:00011390       ___crtGetCurrentProcessorNumber 10012390 f   LIBCMTD:winapisupp.obj
 0001:000113c0       ___crtGetFileInformationByHandleEx 100123c0 f   LIBCMTD:winapisupp.obj
 0001:00011400       ___crtGetLogicalProcessorInformation 10012400 f   LIBCMTD:winapisupp.obj
 0001:00011440       ___crtGetShowWindowMode    10012440 f   LIBCMTD:winapisupp.obj
 0001:00011470       ___crtGetTickCount64       10012470 f   LIBCMTD:winapisupp.obj
 0001:000114a0       ___crtInitializeCriticalSectionEx 100124a0 f   LIBCMTD:winapisupp.obj
 0001:000114f0       ___crtIsPackagedApp        100124f0 f   LIBCMTD:winapisupp.obj
 0001:00011530       ___crtLoadWinApiPointers   10012530 f   LIBCMTD:winapisupp.obj
 0001:000119d0       ___crtSetFileInformationByHandle 100129d0 f   LIBCMTD:winapisupp.obj
 0001:00011a10       ___crtSetThreadStackGuarantee 10012a10 f   LIBCMTD:winapisupp.obj
 0001:00011a40       ___crtSetThreadpoolTimer   10012a40 f   LIBCMTD:winapisupp.obj
 0001:00011a80       ___crtSetThreadpoolWait    10012a80 f   LIBCMTD:winapisupp.obj
 0001:00011ab0       ___crtSetUnhandledExceptionFilter 10012ab0 f   LIBCMTD:winapisupp.obj
 0001:00011ac0       ___crtSleep                10012ac0 f   LIBCMTD:winapisupp.obj
 0001:00011ad0       ___crtTerminateProcess     10012ad0 f   LIBCMTD:winapisupp.obj
 0001:00011af0       ___crtUnhandledException   10012af0 f   LIBCMTD:winapisupp.obj
 0001:00011b10       ___crtWaitForThreadpoolTimerCallbacks 10012b10 f   LIBCMTD:winapisupp.obj
 0001:00011b40       _malloc                    10012b40 f   LIBCMTD:dbgmalloc.obj
 0001:00011b70       ?_query_new_handler@@YAP6AHI@ZXZ 10012b70 f   LIBCMTD:handler.obj
 0001:00011b90       ?_set_new_handler@@YAP6AHI@ZH@Z 10012b90 f   LIBCMTD:handler.obj
 0001:00011bd0       ?_set_new_handler@@YAP6AHI@ZP6AHI@Z@Z 10012bd0 f   LIBCMTD:handler.obj
 0001:00011c10       __callnewh                 10012c10 f   LIBCMTD:handler.obj
 0001:00011c50       __initp_heap_handler       10012c50 f   LIBCMTD:handler.obj
 0001:00011c60       ??0_LocaleUpdate@@QAE@PAUlocaleinfo_struct@@@Z 10012c60 f i LIBCMTD:dbgheap.obj
 0001:00011d40       ??1_LocaleUpdate@@QAE@XZ   10012d40 f i LIBCMTD:dbgheap.obj
 0001:00011d70       ?GetLocaleT@_LocaleUpdate@@QAEPAUlocaleinfo_struct@@XZ 10012d70 f i LIBCMTD:dbgheap.obj
 0001:00012210       __CrtCheckMemory           10013210 f   LIBCMTD:dbgheap.obj
 0001:00012670       __CrtDoForAllClientObjects 10013670 f   LIBCMTD:dbgheap.obj
 0001:000127a0       __CrtDumpMemoryLeaks       100137a0 f   LIBCMTD:dbgheap.obj
 0001:00012840       __CrtGetAllocHook          10013840 f   LIBCMTD:dbgheap.obj
 0001:00012850       __CrtGetCheckCount         10013850 f   LIBCMTD:dbgheap.obj
 0001:00012860       __CrtGetDumpClient         10013860 f   LIBCMTD:dbgheap.obj
 0001:00012870       __CrtIsMemoryBlock         10013870 f   LIBCMTD:dbgheap.obj
 0001:000129e0       __CrtIsValidHeapPointer    100139e0 f   LIBCMTD:dbgheap.obj
 0001:00012a20       __CrtIsValidPointer        10013a20 f   LIBCMTD:dbgheap.obj
 0001:00012a50       __CrtMemCheckpoint         10013a50 f   LIBCMTD:dbgheap.obj
 0001:00012c80       __CrtMemDifference         10013c80 f   LIBCMTD:dbgheap.obj
 0001:00012ee0       __CrtMemDumpAllObjectsSince 10013ee0 f   LIBCMTD:dbgheap.obj
 0001:00012f20       __CrtMemDumpStatistics     10013f20 f   LIBCMTD:dbgheap.obj
 0001:00013040       __CrtReportBlockType       10014040 f   LIBCMTD:dbgheap.obj
 0001:00013070       __CrtSetAllocHook          10014070 f   LIBCMTD:dbgheap.obj
 0001:00013090       __CrtSetBreakAlloc         10014090 f   LIBCMTD:dbgheap.obj
 0001:000130b0       __CrtSetCheckCount         100140b0 f   LIBCMTD:dbgheap.obj
 0001:000130d0       __CrtSetDbgBlockType       100140d0 f   LIBCMTD:dbgheap.obj
 0001:000131c0       __CrtSetDbgFlag            100141c0 f   LIBCMTD:dbgheap.obj
 0001:00013310       __CrtSetDebugFillThreshold 10014310 f   LIBCMTD:dbgheap.obj
 0001:00013330       __CrtSetDumpClient         10014330 f   LIBCMTD:dbgheap.obj
 0001:00013350       __aligned_free             10014350 f   LIBCMTD:dbgheap.obj
 0001:00013370       __aligned_free_dbg         10014370 f   LIBCMTD:dbgheap.obj
 0001:00013420       __aligned_malloc           10014420 f   LIBCMTD:dbgheap.obj
 0001:00013440       __aligned_malloc_dbg       10014440 f   LIBCMTD:dbgheap.obj
 0001:00013460       __aligned_msize            10014460 f   LIBCMTD:dbgheap.obj
 0001:00013480       __aligned_msize_dbg        10014480 f   LIBCMTD:dbgheap.obj
 0001:000135a0       __aligned_offset_malloc    100145a0 f   LIBCMTD:dbgheap.obj
 0001:000135c0       __aligned_offset_malloc_dbg 100145c0 f   LIBCMTD:dbgheap.obj
 0001:000137a0       __aligned_offset_realloc   100147a0 f   LIBCMTD:dbgheap.obj
 0001:000137d0       __aligned_offset_realloc_dbg 100147d0 f   LIBCMTD:dbgheap.obj
 0001:00013ae0       __aligned_offset_recalloc  10014ae0 f   LIBCMTD:dbgheap.obj
 0001:00013b10       __aligned_offset_recalloc_dbg 10014b10 f   LIBCMTD:dbgheap.obj
 0001:00013bd0       __aligned_realloc          10014bd0 f   LIBCMTD:dbgheap.obj
 0001:00013bf0       __aligned_realloc_dbg      10014bf0 f   LIBCMTD:dbgheap.obj
 0001:00013c20       __aligned_recalloc         10014c20 f   LIBCMTD:dbgheap.obj
 0001:00013c50       __aligned_recalloc_dbg     10014c50 f   LIBCMTD:dbgheap.obj
 0001:00013c80       __calloc_dbg               10014c80 f   LIBCMTD:dbgheap.obj
 0001:00013ce0       __calloc_dbg_impl          10014ce0 f   LIBCMTD:dbgheap.obj
 0001:00013d60       __expand                   10014d60 f   LIBCMTD:dbgheap.obj
 0001:00013d90       __expand_dbg               10014d90 f   LIBCMTD:dbgheap.obj
 0001:00013ec0       __free_dbg                 10014ec0 f   LIBCMTD:dbgheap.obj
 0001:00013f40       __free_dbg_nolock          10014f40 f   LIBCMTD:dbgheap.obj
 0001:00014440       __free_nolock              10015440 f   LIBCMTD:dbgheap.obj
 0001:00014460       __heap_alloc               10015460 f   LIBCMTD:dbgheap.obj
 0001:00014480       __heap_alloc_dbg           10015480 f   LIBCMTD:dbgheap.obj
 0001:000148a0       __malloc_dbg               100158a0 f   LIBCMTD:dbgheap.obj
 0001:000148d0       __msize                    100158d0 f   LIBCMTD:dbgheap.obj
 0001:000148f0       __msize_dbg                100158f0 f   LIBCMTD:dbgheap.obj
 0001:00014b00       __nh_malloc                10015b00 f   LIBCMTD:dbgheap.obj
 0001:00014b20       __nh_malloc_dbg            10015b20 f   LIBCMTD:dbgheap.obj
 0001:00014db0       __realloc_dbg              10015db0 f   LIBCMTD:dbgheap.obj
 0001:00014e50       __recalloc                 10015e50 f   LIBCMTD:dbgheap.obj
 0001:00014e80       __recalloc_dbg             10015e80 f   LIBCMTD:dbgheap.obj
 0001:000155a0       __except_handler4          100165a0 f   LIBCMTD:chandler4.obj
 0001:00015760       ___copy_path_to_wide_string 10016760 f   LIBCMTD:crt0dat.obj
 0001:00015950       ___copy_to_char            10016950 f   LIBCMTD:crt0dat.obj
 0001:00015b40       ___crtCorExitProcess       10016b40 f   LIBCMTD:crt0dat.obj
 0001:00015b80       ___crtExitProcess          10016b80 f   LIBCMTD:crt0dat.obj
 0001:00015ba0       ___freeCrtMemory           10016ba0 f   LIBCMTD:crt0dat.obj
 0001:00015d70       __amsg_exit                10016d70 f   LIBCMTD:crt0dat.obj
 0001:00015d90       __c_exit                   10016d90 f   LIBCMTD:crt0dat.obj
 0001:00015db0       __cexit                    10016db0 f   LIBCMTD:crt0dat.obj
 0001:00015dd0       __cinit                    10016dd0 f   LIBCMTD:crt0dat.obj
 0001:00015e70       __exit                     10016e70 f   LIBCMTD:crt0dat.obj
 0001:00015e90       __exit_app                 10016e90 f   LIBCMTD:crt0dat.obj
 0001:00015eb0       __get_pgmptr               10016eb0 f   LIBCMTD:crt0dat.obj
 0001:00015fe0       __get_wpgmptr              10016fe0 f   LIBCMTD:crt0dat.obj
 0001:00016100       __init_pointers            10017100 f   LIBCMTD:crt0dat.obj
 0001:00016190       __initterm_e               10017190 f   LIBCMTD:crt0dat.obj
 0001:000161d0       __lockexit                 100171d0 f   LIBCMTD:crt0dat.obj
 0001:000161e0       __unlockexit               100171e0 f   LIBCMTD:crt0dat.obj
 0001:000163e0       _exit                      100173e0 f   LIBCMTD:crt0dat.obj
 0001:00016400       __CrtDefaultAllocHook      10017400 f   LIBCMTD:dbghook.obj
 0001:00016410       __crt_debugger_hook        10017410 f   LIBCMTD:dbghook.obj
 0001:00016420       _memset                    10017420 f   LIBCMTD:memset.obj
 0001:000164b0       ___isa_available_init      100174b0 f   LIBCMTD:cpu_disp.obj
 0001:00016760       ___doserrno                10017760 f   LIBCMTD:dosmap.obj
 0001:00016790       __dosmaperr                10017790 f   LIBCMTD:dosmap.obj
 0001:000167c0       __errno                    100177c0 f   LIBCMTD:dosmap.obj
 0001:000167f0       __get_doserrno             100177f0 f   LIBCMTD:dosmap.obj
 0001:00016880       __get_errno                10017880 f   LIBCMTD:dosmap.obj
 0001:00016910       __get_errno_from_oserr     10017910 f   LIBCMTD:dosmap.obj
 0001:00016990       __set_doserrno             10017990 f   LIBCMTD:dosmap.obj
 0001:000169c0       __set_errno                100179c0 f   LIBCMTD:dosmap.obj
 0001:00016ab0       __ismbbalnum               10017ab0 f   LIBCMTD:ismbbyte.obj
 0001:00016ad0       __ismbbalnum_l             10017ad0 f   LIBCMTD:ismbbyte.obj
 0001:00016af0       __ismbbalpha               10017af0 f   LIBCMTD:ismbbyte.obj
 0001:00016b10       __ismbbalpha_l             10017b10 f   LIBCMTD:ismbbyte.obj
 0001:00016b30       __ismbbblank               10017b30 f   LIBCMTD:ismbbyte.obj
 0001:00016b60       __ismbbblank_l             10017b60 f   LIBCMTD:ismbbyte.obj
 0001:00016ba0       __ismbbgraph               10017ba0 f   LIBCMTD:ismbbyte.obj
 0001:00016bc0       __ismbbgraph_l             10017bc0 f   LIBCMTD:ismbbyte.obj
 0001:00016be0       __ismbbkalnum              10017be0 f   LIBCMTD:ismbbyte.obj
 0001:00016c00       __ismbbkalnum_l            10017c00 f   LIBCMTD:ismbbyte.obj
 0001:00016c20       __ismbbkana                10017c20 f   LIBCMTD:ismbbyte.obj
 0001:00016c40       __ismbbkana_l              10017c40 f   LIBCMTD:ismbbyte.obj
 0001:00016cb0       __ismbbkprint              10017cb0 f   LIBCMTD:ismbbyte.obj
 0001:00016cd0       __ismbbkprint_l            10017cd0 f   LIBCMTD:ismbbyte.obj
 0001:00016cf0       __ismbbkpunct              10017cf0 f   LIBCMTD:ismbbyte.obj
 0001:00016d10       __ismbbkpunct_l            10017d10 f   LIBCMTD:ismbbyte.obj
 0001:00016d30       __ismbblead                10017d30 f   LIBCMTD:ismbbyte.obj
 0001:00016d50       __ismbblead_l              10017d50 f   LIBCMTD:ismbbyte.obj
 0001:00016d70       __ismbbprint               10017d70 f   LIBCMTD:ismbbyte.obj
 0001:00016d90       __ismbbprint_l             10017d90 f   LIBCMTD:ismbbyte.obj
 0001:00016db0       __ismbbpunct               10017db0 f   LIBCMTD:ismbbyte.obj
 0001:00016dd0       __ismbbpunct_l             10017dd0 f   LIBCMTD:ismbbyte.obj
 0001:00016df0       __ismbbtrail               10017df0 f   LIBCMTD:ismbbyte.obj
 0001:00016e10       __ismbbtrail_l             10017e10 f   LIBCMTD:ismbbyte.obj
 0001:00016e30       _strncpy_s                 10017e30 f   LIBCMTD:strncpy_s.obj
 0001:00017250       ___initstdio               10018250 f   LIBCMTD:_file.obj
 0001:00017320       ___endstdio                10018320 f   LIBCMTD:_file.obj
 0001:00017360       ___iob_func                10018360 f   LIBCMTD:_file.obj
 0001:00017370       __lock_file                10018370 f   LIBCMTD:_file.obj
 0001:000173d0       __lock_file2               100183d0 f   LIBCMTD:_file.obj
 0001:00017410       __unlock_file              10018410 f   LIBCMTD:_file.obj
 0001:00017470       __unlock_file2             10018470 f   LIBCMTD:_file.obj
 0001:000174b0       __vprintf_l                100184b0 f   LIBCMTD:vprintf.obj
 0001:000174d0       __vprintf_p                100184d0 f   LIBCMTD:vprintf.obj
 0001:000174f0       __vprintf_p_l              100184f0 f   LIBCMTD:vprintf.obj
 0001:00017510       __vprintf_s_l              10018510 f   LIBCMTD:vprintf.obj
 0001:00017530       _vprintf                   10018530 f   LIBCMTD:vprintf.obj
 0001:00017550       _vprintf_helper            10018550 f   LIBCMTD:vprintf.obj
 0001:00017690       _vprintf_s                 10018690 f   LIBCMTD:vprintf.obj
 0001:000176b0       __ftbuf                    100186b0 f   LIBCMTD:_sftbuf.obj
 0001:00017740       __stbuf                    10018740 f   LIBCMTD:_sftbuf.obj
 0001:000178b0       __output_l                 100188b0 f   LIBCMTD:output.obj
 0001:00018f60       _get_int64_arg             10019f60 f i LIBCMTD:output.obj
 0001:00018f80       _get_int_arg               10019f80 f i LIBCMTD:output.obj
 0001:00018fa0       _get_short_arg             10019fa0 f i LIBCMTD:output.obj
 0001:00019160       __CIsqrt                   1001a160 f   LIBCMTD:sqrt.obj
 0001:00019174       _sqrt                      1001a174     LIBCMTD:sqrt.obj
 0001:00019220       __add_exp                  1001a220 f   LIBCMTD:util.obj
 0001:00019250       __decomp                   1001a250 f   LIBCMTD:util.obj
 0001:00019370       __get_exp                  1001a370 f   LIBCMTD:util.obj
 0001:000193a0       __set_bexp                 1001a3a0 f   LIBCMTD:util.obj
 0001:000193d0       __set_exp                  1001a3d0 f   LIBCMTD:util.obj
 0001:00019410       __sptype                   1001a410 f   LIBCMTD:util.obj
 0001:00019490       __errcode                  1001a490 f   LIBCMTD:fpexcept.obj
 0001:00019500       __except1                  1001a500 f   LIBCMTD:fpexcept.obj
 0001:00019600       __except2                  1001a600 f   LIBCMTD:fpexcept.obj
 0001:00019750       __handle_exc               1001a750 f   LIBCMTD:fpexcept.obj
 0001:00019a70       __handle_qnan1             1001aa70 f   LIBCMTD:fpexcept.obj
 0001:00019ad0       __handle_qnan2             1001aad0 f   LIBCMTD:fpexcept.obj
 0001:00019b40       __raise_exc                1001ab40 f   LIBCMTD:fpexcept.obj
 0001:00019b80       __raise_exc_ex             1001ab80 f   LIBCMTD:fpexcept.obj
 0001:0001a100       __raise_excf               1001b100 f   LIBCMTD:fpexcept.obj
 0001:0001a130       __set_errno_from_matherr   1001b130 f   LIBCMTD:fpexcept.obj
 0001:0001a170       __umatherr                 1001b170 f   LIBCMTD:fpexcept.obj
 0001:0001a210       ___clrfp_sse2              1001b210 f   LIBCMTD:fpctrl.obj
 0001:0001a250       ___ctrlfp_sse2             1001b250 f   LIBCMTD:fpctrl.obj
 0001:0001a2b0       ___fclrf_sse2              1001b2b0 f   LIBCMTD:fpctrl.obj
 0001:0001a2d0       ___get_fpsr_sse2           1001b2d0 f   LIBCMTD:fpctrl.obj
 0001:0001a300       ___set_fpsr_sse2           1001b300 f   LIBCMTD:fpctrl.obj
 0001:0001a3e0       ___set_statfp_sse2         1001b3e0 f   LIBCMTD:fpctrl.obj
 0001:0001a410       ___statfp_sse2             1001b410 f   LIBCMTD:fpctrl.obj
 0001:0001a440       __clrfp                    1001b440 f   LIBCMTD:fpctrl.obj
 0001:0001a460       __ctrlfp                   1001b460 f   LIBCMTD:fpctrl.obj
 0001:0001a490       __set_statfp               1001b490 f   LIBCMTD:fpctrl.obj
 0001:0001a500       __statfp                   1001b500 f   LIBCMTD:fpctrl.obj
 0001:0001a510       ___raise_securityfailure   1001b510 f   LIBCMTD:gs_report.obj
 0001:0001a560       ___report_gsfailure        1001b560 f   LIBCMTD:gs_report.obj
 0001:0001a670       ___report_rangecheckfailure 1001b670 f   LIBCMTD:gs_report.obj
 0001:0001a680       ___report_securityfailure  1001b680 f   LIBCMTD:gs_report.obj
 0001:0001a760       ___report_securityfailureEx 1001b760 f   LIBCMTD:gs_report.obj
 0001:0001a890       _memcpy_s                  1001b890 f   LIBCMTD:memcpy_s.obj
 0001:0001aa60       _wcscpy_s                  1001ba60 f   LIBCMTD:wcscpy_s.obj
 0001:0001ad70       _wcslen                    1001bd70 f   LIBCMTD:wcslen.obj
 0001:0001adb0       ___swprintf_l              1001bdb0 f   LIBCMTD:swprintf.obj
 0001:0001ade0       __scwprintf                1001bde0 f   LIBCMTD:swprintf.obj
 0001:0001ae00       __scwprintf_l              1001be00 f   LIBCMTD:swprintf.obj
 0001:0001ae30       __scwprintf_p              1001be30 f   LIBCMTD:swprintf.obj
 0001:0001ae50       __scwprintf_p_l            1001be50 f   LIBCMTD:swprintf.obj
 0001:0001ae80       __snwprintf_s              1001be80 f   LIBCMTD:swprintf.obj
 0001:0001aeb0       __snwprintf_s_l            1001beb0 f   LIBCMTD:swprintf.obj
 0001:0001aee0       __swprintf                 1001bee0 f   LIBCMTD:swprintf.obj
 0001:0001b100       __swprintf_p               1001c100 f   LIBCMTD:swprintf.obj
 0001:0001b130       __swprintf_p_l             1001c130 f   LIBCMTD:swprintf.obj
 0001:0001b160       __swprintf_s_l             1001c160 f   LIBCMTD:swprintf.obj
 0001:0001b190       _swprintf_s                1001c190 f   LIBCMTD:swprintf.obj
 0001:0001b1c0       ___fpecode                 1001c1c0 f   LIBCMTD:winsig.obj
 0001:0001b1d0       ___get_sigabrt             1001c1d0 f   LIBCMTD:winsig.obj
 0001:0001b1f0       ___pxcptinfoptrs           1001c1f0 f   LIBCMTD:winsig.obj
 0001:0001b200       __initp_misc_winsig        1001c200 f   LIBCMTD:winsig.obj
 0001:0001b330       _raise                     1001c330 f   LIBCMTD:winsig.obj
 0001:0001b6c0       _signal                    1001c6c0 f   LIBCMTD:winsig.obj
 0001:0001ba70       ___crtMessageBoxW          1001ca70 f   LIBCMTD:crtmboxw.obj
 0001:0001bd80       ___crtMessageBoxWaitThreadW@4 1001cd80 f   LIBCMTD:crtmboxw.obj
 0001:0001bdc0       __CrtDbgBreak              1001cdc0 f   LIBCMTD:dbgrptt.obj
 0001:0001bdd0       __CrtGetReportHook         1001cdd0 f   LIBCMTD:dbgrptt.obj
 0001:0001bde0       __CrtSetReportFile         1001cde0 f   LIBCMTD:dbgrptt.obj
 0001:0001bee0       __CrtSetReportHook         1001cee0 f   LIBCMTD:dbgrptt.obj
 0001:0001bf00       __CrtSetReportMode         1001cf00 f   LIBCMTD:dbgrptt.obj
 0001:0001c040       __VCrtDbgReportA           1001d040 f   LIBCMTD:dbgrptt.obj
 0001:0001c8b0       __VCrtDbgReportW           1001d8b0 f   LIBCMTD:dbgrptt.obj
 0001:0001d230       __alloca_probe             1001e230 f   LIBCMTD:chkstk.obj
 0001:0001d230       __chkstk                   1001e230 f   LIBCMTD:chkstk.obj
 0001:0001d260       ___get_flsindex            1001e260 f   LIBCMTD:tidtable.obj
 0001:0001d270       ___threadhandle            1001e270 f   LIBCMTD:tidtable.obj
 0001:0001d280       ___threadid                1001e280 f   LIBCMTD:tidtable.obj
 0001:0001d290       __freefls@4                1001e290 f   LIBCMTD:tidtable.obj
 0001:0001d490       __freeptd                  1001e490 f   LIBCMTD:tidtable.obj
 0001:0001d4d0       __getptd                   1001e4d0 f   LIBCMTD:tidtable.obj
 0001:0001d500       __getptd_noexit            1001e500 f   LIBCMTD:tidtable.obj
 0001:0001d5b0       __initptd                  1001e5b0 f   LIBCMTD:tidtable.obj
 0001:0001d6f0       __mtinit                   1001e6f0 f   LIBCMTD:tidtable.obj
 0001:0001d7a0       __mtterm                   1001e7a0 f   LIBCMTD:tidtable.obj
 0001:0001d7d0       __CallSettingFrame@12      1001e7d0 f   LIBCMTD:lowhelpr.obj
 0001:0001d7f7       __NLG_Return               1001e7f7     LIBCMTD:lowhelpr.obj
 0001:0001d820       ?_inconsistency@@YAXXZ     1001e820 f   LIBCMTD:hooks.obj
 0001:0001d8b0       ?terminate@@YAXXZ          1001e8b0 f   LIBCMTD:hooks.obj
 0001:0001d930       ?unexpected@@YAXXZ         1001e930 f   LIBCMTD:hooks.obj
 0001:0001d960       __initp_eh_hooks           1001e960 f   LIBCMTD:hooks.obj
 0001:0001d980       ___DestructExceptionObject 1001e980 f   LIBCMTD:frame.obj
 0001:0001daa0       ??0bad_exception@std@@QAE@ABV01@@Z 1001eaa0 f i LIBCMTD:frame.obj
 0001:0001dad0       ??0bad_exception@std@@QAE@PBD@Z 1001ead0 f i LIBCMTD:frame.obj
 0001:0001db00       ??1bad_exception@std@@UAE@XZ 1001eb00 f i LIBCMTD:frame.obj
 0001:0001db20       ??_Gbad_exception@std@@UAEPAXI@Z 1001eb20 f i LIBCMTD:frame.obj
 0001:0001db20       ??_Ebad_exception@std@@UAEPAXI@Z 1001eb20 f i LIBCMTD:frame.obj
 0001:0001e710       ?__uncaught_exception@@YA_NXZ 1001f710 f   LIBCMTD:frame.obj
 0001:0001e740       ?_is_exception_typeof@@YAHABVtype_info@@PAU_EXCEPTION_POINTERS@@@Z 1001f740 f   LIBCMTD:frame.obj
 0001:0001e820       __SetWinRTOutOfMemoryExceptionCallback 1001f820 f   LIBCMTD:frame.obj
 0001:0001e830       ___AdjustPointer           1001f830 f   LIBCMTD:frame.obj
 0001:0001e880       ___BuildCatchObject        1001f880 f   LIBCMTD:frame.obj
 0001:0001e990       ___BuildCatchObjectHelper  1001f990 f   LIBCMTD:frame.obj
 0001:0001ec90       ___CxxDetectRethrow        1001fc90 f   LIBCMTD:frame.obj
 0001:0001ed10       ___CxxExceptionFilter      1001fd10 f   LIBCMTD:frame.obj
 0001:0001ef10       ___CxxQueryExceptionSize   1001ff10 f   LIBCMTD:frame.obj
 0001:0001ef20       ___CxxRegisterExceptionObject 1001ff20 f   LIBCMTD:frame.obj
 0001:0001f060       ___CxxUnregisterExceptionObject 10020060 f   LIBCMTD:frame.obj
 0001:0001f1e0       ___FrameUnwindFilter       100201e0 f   LIBCMTD:frame.obj
 0001:0001f260       ___FrameUnwindToState      10020260 f   LIBCMTD:frame.obj
 0001:0001f3e0       ___GetPlatformExceptionInfo 100203e0 f   LIBCMTD:frame.obj
 0001:0001f4a0       ___InternalCxxFrameHandler 100204a0 f   LIBCMTD:frame.obj
 0001:0001f610       ___TypeMatch               10020610 f   LIBCMTD:frame.obj
 0001:0001f6f0       _strcmp                    100206f0 f   LIBCMTD:strcmp.obj
 0001:0001f780       ?_Name_base@type_info@@CAPBDPBV1@PAU__type_info_node@@@Z 10020780 f   LIBCMTD:typname.obj
 0001:0001f930       ?_Name_base_internal@type_info@@CAPBDPBV1@PAU__type_info_node@@@Z 10020930 f   LIBCMTD:typname.obj
 0001:0001faf0       ?_Type_info_dtor@type_info@@CAXPAV1@@Z 10020af0 f   LIBCMTD:typname.obj
 0001:0001fc00       ?_Type_info_dtor_internal@type_info@@CAXPAV1@@Z 10020c00 f   LIBCMTD:typname.obj
 0001:0001fd10       ___clean_type_info_names_internal 10020d10 f   LIBCMTD:typname.obj
 0001:0001fdc0       ___unDNameHelper           10020dc0 f   LIBCMTD:typname.obj
 0001:0001fe00       ?strrchr@@YAPADPADH@Z      10020e00 f i LIBCMTD:cvt.obj
 0001:0001fe20       __cfltcvt                  10020e20 f   LIBCMTD:cvt.obj
 0001:0001fe50       __cfltcvt_l                10020e50 f   LIBCMTD:cvt.obj
 0001:0001ff10       __cftoa                    10020f10 f   LIBCMTD:cvt.obj
 0001:0001ff40       __cftoa_l                  10020f40 f   LIBCMTD:cvt.obj
 0001:000207b0       __cftoe                    100217b0 f   LIBCMTD:cvt.obj
 0001:00020bf0       __cftoe_l                  10021bf0 f   LIBCMTD:cvt.obj
 0001:00020e20       __cftof                    10021e20 f   LIBCMTD:cvt.obj
 0001:000210d0       __cftof_l                  100220d0 f   LIBCMTD:cvt.obj
 0001:000212d0       __cftog                    100222d0 f   LIBCMTD:cvt.obj
 0001:00021300       __cftog_l                  10022300 f   LIBCMTD:cvt.obj
 0001:00021590       __cropzeros                10022590 f   LIBCMTD:cvt.obj
 0001:000215b0       __cropzeros_l              100225b0 f   LIBCMTD:cvt.obj
 0001:000216d0       __fassign                  100226d0 f   LIBCMTD:cvt.obj
 0001:000216f0       __fassign_l                100226f0 f   LIBCMTD:cvt.obj
 0001:00021740       __forcdecpt                10022740 f   LIBCMTD:cvt.obj
 0001:00021760       __forcdecpt_l              10022760 f   LIBCMTD:cvt.obj
 0001:00021830       __positive                 10022830 f   LIBCMTD:cvt.obj
 0001:00021890       __setdefaultprecision      10022890 f   LIBCMTD:fp8.obj
 0001:000218d0       __initp_misc_cfltcvt_tab   100228d0 f   LIBCMTD:cmiscdat.obj
 0001:00021910       __XcptFilter               10022910 f   LIBCMTD:winxfltr.obj
 0001:00021b10       ___CppXcptFilter           10022b10 f   LIBCMTD:winxfltr.obj
 0001:00021ba0       __get_heap_handle          10022ba0 f   LIBCMTD:heapinit.obj
 0001:00021be0       __heap_init                10022be0 f   LIBCMTD:heapinit.obj
 0001:00021c10       __heap_term                10022c10 f   LIBCMTD:heapinit.obj
 0001:00021c20       __ioinit                   10022c20 f   LIBCMTD:ioinit.obj
 0001:00022100       __ioterm                   10023100 f   LIBCMTD:ioinit.obj
 0001:000221a0       __set_pgmptr               100231a0 f i LIBCMTD:stdargv.obj
 0001:000221b0       __setargv                  100231b0 f   LIBCMTD:stdargv.obj
 0001:00022680       __setenvp                  10023680 f   LIBCMTD:stdenvp.obj
 0001:00022820       ___security_init_cookie    10023820 f   LIBCMTD:gs_support.obj
 0001:00022900       ___crtGetEnvironmentStringsA 10023900 f   LIBCMTD:a_env.obj
 0001:00022a00       __RTC_Initialize           10023a00 f   LIBCMTD:initsect.obj
 0001:00022a30       __RTC_Terminate            10023a30 f   LIBCMTD:initsect.obj
 0001:00022a60       __FF_MSGBANNER             10023a60 f   LIBCMTD:crt0msg.obj
 0001:00022ab0       __GET_RTERRMSG             10023ab0 f   LIBCMTD:crt0msg.obj
 0001:00022af0       __NMSG_WRITE               10023af0 f   LIBCMTD:crt0msg.obj
 0001:00022eb0       __set_abort_behavior       10023eb0 f   LIBCMTD:abort.obj
 0001:00022ee0       _abort                     10023ee0 f   LIBCMTD:abort.obj
 0001:00022f50       ___getlocaleinfo           10023f50 f   LIBCMTD:inithelp.obj
 0001:00023250       __initp_misc_purevirt      10024250 f   LIBCMTD:inithelp.obj
 0001:00023260       _free                      10024260 f   LIBCMTD:dbgfree.obj
 0001:00023280       ___addlocaleref            10024280 f   LIBCMTD:localref.obj
 0001:000233a0       ___freetlocinfo            100243a0 f   LIBCMTD:localref.obj
 0001:00023690       ___removelocaleref         10024690 f   LIBCMTD:localref.obj
 0001:000237b0       ___updatetlocinfo          100247b0 f   LIBCMTD:localref.obj
 0001:00023880       __updatetlocinfoEx_nolock  10024880 f   LIBCMTD:localref.obj
 0001:00023900       ___initmbctable            10024900 f   LIBCMTD:mbctype.obj
 0001:00023f20       ___updatetmbcinfo          10024f20 f   LIBCMTD:mbctype.obj
 0001:00024040       __getmbcp                  10025040 f   LIBCMTD:mbctype.obj
 0001:000240b0       __setmbcp                  100250b0 f   LIBCMTD:mbctype.obj
 0001:00024350       __setmbcp_nolock           10025350 f   LIBCMTD:mbctype.obj
 0001:000246d0       __chvalidator              100256d0 f   LIBCMTD:isctype.obj
 0001:00024720       __chvalidator_l            10025720 f   LIBCMTD:isctype.obj
 0001:000247e0       __isctype                  100257e0 f   LIBCMTD:isctype.obj
 0001:00024820       __isctype_l                10025820 f   LIBCMTD:isctype.obj
 0001:00024970       __free_base                10025970 f   LIBCMTD:free.obj
 0001:000249c0       __realloc_base             100259c0 f   LIBCMTD:realloc.obj
 0001:00024ac0       __expand_base              10025ac0 f   LIBCMTD:expand.obj
 0001:00024c30       __CrtDbgReport             10025c30 f   LIBCMTD:dbgrpt.obj
 0001:00024c80       __CrtDbgReportV            10025c80 f i LIBCMTD:dbgrpt.obj
 0001:00024cb0       __CrtSetReportHook2        10025cb0 f   LIBCMTD:dbgrpt.obj
 0001:00025000       ___crtMessageWindowA       10026000 f   LIBCMTD:dbgrpt.obj
 0001:000254b0       __heapchk                  100264b0 f   LIBCMTD:heapchk.obj
 0001:000254e0       __heapset                  100264e0 f   LIBCMTD:heapchk.obj
 0001:000254f0       __scprintf                 100264f0 f   LIBCMTD:sprintf.obj
 0001:00025510       __scprintf_l               10026510 f   LIBCMTD:sprintf.obj
 0001:00025540       __scprintf_p               10026540 f   LIBCMTD:sprintf.obj
 0001:00025560       __scprintf_p_l             10026560 f   LIBCMTD:sprintf.obj
 0001:00025590       __snprintf_s               10026590 f   LIBCMTD:sprintf.obj
 0001:000255c0       __snprintf_s_l             100265c0 f   LIBCMTD:sprintf.obj
 0001:000255f0       __sprintf_l                100265f0 f   LIBCMTD:sprintf.obj
 0001:00025620       __sprintf_p                10026620 f   LIBCMTD:sprintf.obj
 0001:00025650       __sprintf_p_l              10026650 f   LIBCMTD:sprintf.obj
 0001:00025680       __sprintf_s_l              10026680 f   LIBCMTD:sprintf.obj
 0001:000256b0       _sprintf                   100266b0 f   LIBCMTD:sprintf.obj
 0001:00025870       _sprintf_s                 10026870 f   LIBCMTD:sprintf.obj
 0001:000258a0       __heap_alloc_base          100268a0 f i LIBCMTD:malloc.obj
 0001:00025900       __malloc_base              10026900 f   LIBCMTD:malloc.obj
 0001:00025990       __FindPESection            10026990 f   LIBCMTD:pesect.obj
 0001:00025a10       __IsNonwritableInCurrentImage 10026a10 f   LIBCMTD:pesect.obj
 0001:00025b40       __ValidateImageBase        10026b40 f   LIBCMTD:pesect.obj
 0001:00025ba0       __local_unwind4            10026ba0 f   LIBCMTD:exsup4.obj
 0001:00025c76       __seh_longjmp_unwind4@4    10026c76 f   LIBCMTD:exsup4.obj
 0001:00025c92       @_EH4_CallFilterFunc@8     10026c92 f   LIBCMTD:exsup4.obj
 0001:00025ca9       @_EH4_TransferToHandler@8  10026ca9 f   LIBCMTD:exsup4.obj
 0001:00025cc2       @_EH4_GlobalUnwind2@8      10026cc2 f   LIBCMTD:exsup4.obj
 0001:00025cdb       @_EH4_LocalUnwind@16       10026cdb f   LIBCMTD:exsup4.obj
 0001:00025d00       __initp_misc_rand_s        10026d00 f   LIBCMTD:rand_s.obj
 0001:00025d10       _rand_s                    10026d10 f   LIBCMTD:rand_s.obj
 0001:00025f70       __VEC_memset               10026f70 f   LIBCMTD:p4_memset.obj
 0001:00026040       __fcloseall                10027040 f   LIBCMTD:closeall.obj
 0001:00026170       __fflush_nolock            10027170 f   LIBCMTD:fflush.obj
 0001:000261e0       __flush                    100271e0 f   LIBCMTD:fflush.obj
 0001:000262a0       __flushall                 100272a0 f   LIBCMTD:fflush.obj
 0001:000262b0       _fflush                    100272b0 f   LIBCMTD:fflush.obj
 0001:000264f0       __output_s_l               100274f0 f   LIBCMTD:outputs.obj
 0001:00027eb0       __output_p_l               10028eb0 f   LIBCMTD:outputp.obj
 0001:0002bcb0       __validate_param_reuseA    1002ccb0 f   LIBCMTD:outputp.obj
 0001:0002bfa0       _get_crtdouble_arg         1002cfa0 f i LIBCMTD:outputp.obj
 0001:0002c160       __fileno                   1002d160 f   LIBCMTD:fileno.obj
 0001:0002c1f0       __isatty                   1002d1f0 f   LIBCMTD:isatty.obj
 0001:0002c2b0       ___iswcsym                 1002d2b0 f i LIBCMTD:_wctype.obj
 0001:0002c2f0       ___iswcsymf                1002d2f0 f i LIBCMTD:_wctype.obj
 0001:0002c330       __isleadbyte_l             1002d330 f i LIBCMTD:_wctype.obj
 0001:0002c380       __iswalnum_l               1002d380 f i LIBCMTD:_wctype.obj
 0001:0002c3a0       __iswalpha_l               1002d3a0 f i LIBCMTD:_wctype.obj
 0001:0002c3c0       __iswblank_l               1002d3c0 f i LIBCMTD:_wctype.obj
 0001:0002c3f0       __iswcntrl_l               1002d3f0 f i LIBCMTD:_wctype.obj
 0001:0002c410       __iswcsym_l                1002d410 f i LIBCMTD:_wctype.obj
 0001:0002c450       __iswcsymf_l               1002d450 f i LIBCMTD:_wctype.obj
 0001:0002c490       __iswdigit_l               1002d490 f i LIBCMTD:_wctype.obj
 0001:0002c4b0       __iswgraph_l               1002d4b0 f i LIBCMTD:_wctype.obj
 0001:0002c4d0       __iswlower_l               1002d4d0 f i LIBCMTD:_wctype.obj
 0001:0002c4f0       __iswprint_l               1002d4f0 f i LIBCMTD:_wctype.obj
 0001:0002c510       __iswpunct_l               1002d510 f i LIBCMTD:_wctype.obj
 0001:0002c530       __iswspace_l               1002d530 f i LIBCMTD:_wctype.obj
 0001:0002c550       __iswupper_l               1002d550 f i LIBCMTD:_wctype.obj
 0001:0002c570       __iswxdigit_l              1002d570 f i LIBCMTD:_wctype.obj
 0001:0002c590       _isleadbyte                1002d590 f i LIBCMTD:_wctype.obj
 0001:0002c5b0       _iswalnum                  1002d5b0 f i LIBCMTD:_wctype.obj
 0001:0002c5d0       _iswalpha                  1002d5d0 f i LIBCMTD:_wctype.obj
 0001:0002c5f0       _iswascii                  1002d5f0 f i LIBCMTD:_wctype.obj
 0001:0002c620       _iswblank                  1002d620 f i LIBCMTD:_wctype.obj
 0001:0002c650       _iswcntrl                  1002d650 f i LIBCMTD:_wctype.obj
 0001:0002c670       _iswdigit                  1002d670 f i LIBCMTD:_wctype.obj
 0001:0002c690       _iswgraph                  1002d690 f i LIBCMTD:_wctype.obj
 0001:0002c6b0       _iswlower                  1002d6b0 f i LIBCMTD:_wctype.obj
 0001:0002c6d0       _iswprint                  1002d6d0 f i LIBCMTD:_wctype.obj
 0001:0002c6f0       _iswpunct                  1002d6f0 f i LIBCMTD:_wctype.obj
 0001:0002c710       _iswspace                  1002d710 f i LIBCMTD:_wctype.obj
 0001:0002c730       _iswupper                  1002d730 f i LIBCMTD:_wctype.obj
 0001:0002c750       _iswxdigit                 1002d750 f i LIBCMTD:_wctype.obj
 0001:0002c770       __flsbuf                   1002d770 f   LIBCMTD:_flsbuf.obj
 0001:0002ca40       __wctomb_l                 1002da40 f   LIBCMTD:wctomb.obj
 0001:0002cac0       __wctomb_s_l               1002dac0 f   LIBCMTD:wctomb.obj
 0001:0002ce10       _wctomb                    1002de10 f   LIBCMTD:wctomb.obj
 0001:0002ce60       _wctomb_s                  1002de60 f   LIBCMTD:wctomb.obj
 0001:0002ce80       __aulldiv                  1002de80 f   LIBCMTD:ulldiv.obj
 0001:0002cef0       __aullrem                  1002def0 f   LIBCMTD:ullrem.obj
 0001:0002cf70       __trandisp1                1002df70 f   LIBCMTD:87disp.obj
 0001:0002cfd7       __trandisp2                1002dfd7 f   LIBCMTD:87disp.obj
 0001:0002d063       __rttospopde               1002e063     LIBCMTD:87disp.obj
 0001:0002d068       __rttospop                 1002e068     LIBCMTD:87disp.obj
 0001:0002d06a       __rtnospop                 1002e06a     LIBCMTD:87disp.obj
 0001:0002d06c       __rttosnpop                1002e06c     LIBCMTD:87disp.obj
 0001:0002d06d       __rtnospopde               1002e06d     LIBCMTD:87disp.obj
 0001:0002d074       __rtzeropop                1002e074     LIBCMTD:87disp.obj
 0001:0002d076       __rtzeronpop               1002e076     LIBCMTD:87disp.obj
 0001:0002d07b       __rtonepop                 1002e07b     LIBCMTD:87disp.obj
 0001:0002d07d       __rtonenpop                1002e07d     LIBCMTD:87disp.obj
 0001:0002d082       __tosnan1                  1002e082     LIBCMTD:87disp.obj
 0001:0002d0ad       __nosnan2                  1002e0ad     LIBCMTD:87disp.obj
 0001:0002d0af       __tosnan2                  1002e0af     LIBCMTD:87disp.obj
 0001:0002d0d7       __nan2                     1002e0d7     LIBCMTD:87disp.obj
 0001:0002d116       __rtindfpop                1002e116     LIBCMTD:87disp.obj
 0001:0002d118       __rtindfnpop               1002e118     LIBCMTD:87disp.obj
 0001:0002d129       __rttosnpopde              1002e129     LIBCMTD:87disp.obj
 0001:0002d133       __rtchsifneg               1002e133     LIBCMTD:87disp.obj
 0001:0002d140       __startTwoArgErrorHandling 1002e140 f   LIBCMTD:genexcep.obj
 0001:0002d157       __startOneArgErrorHandling 1002e157 f   LIBCMTD:genexcep.obj
 0001:0002d1a0       __twoToTOS                 1002e1a0 f   LIBCMTD:common.obj
 0001:0002d1b5       __load_CW                  1002e1b5 f   LIBCMTD:common.obj
 0001:0002d1cc       __convertTOStoQNaN         1002e1cc f   LIBCMTD:common.obj
 0001:0002d1e5       __fload_withFB             1002e1e5 f   LIBCMTD:common.obj
 0001:0002d228       __checkTOS_withFB          1002e228 f   LIBCMTD:common.obj
 0001:0002d23e       __fast_exit                1002e23e f   LIBCMTD:common.obj
 0001:0002d24b       __math_exit                1002e24b f   LIBCMTD:common.obj
 0001:0002d275       __check_overflow_exit      1002e275 f   LIBCMTD:common.obj
 0001:0002d289       __check_range_exit         1002e289 f   LIBCMTD:common.obj
 0001:0002d330       __matherr                  1002e330 f   LIBCMTD:matherr.obj
 0001:0002d340       ___vswprintf_l             1002e340 f   LIBCMTD:vswprint.obj
 0001:0002d360       __vscwprintf               1002e360 f   LIBCMTD:vswprint.obj
 0001:0002d380       __vscwprintf_helper        1002e380 f   LIBCMTD:vswprint.obj
 0001:0002d470       __vscwprintf_l             1002e470 f   LIBCMTD:vswprint.obj
 0001:0002d490       __vscwprintf_p             1002e490 f   LIBCMTD:vswprint.obj
 0001:0002d4b0       __vscwprintf_p_l           1002e4b0 f   LIBCMTD:vswprint.obj
 0001:0002d4d0       __vswprintf                1002e4d0 f   LIBCMTD:vswprint.obj
 0001:0002d4f0       __vswprintf_l              1002e4f0 f   LIBCMTD:vswprint.obj
 0001:0002d710       __vsnwprintf_s             1002e710 f   LIBCMTD:vswprnc.obj
 0001:0002d740       __vsnwprintf_s_l           1002e740 f   LIBCMTD:vswprnc.obj
 0001:0002db10       __vswprintf_c              1002eb10 f   LIBCMTD:vswprnc.obj
 0001:0002db60       __vswprintf_c_l            1002eb60 f   LIBCMTD:vswprnc.obj
 0001:0002dbb0       __vswprintf_helper         1002ebb0 f   LIBCMTD:vswprnc.obj
 0001:0002de20       __vswprintf_p              1002ee20 f   LIBCMTD:vswprnc.obj
 0001:0002de70       __vswprintf_p_l            1002ee70 f   LIBCMTD:vswprnc.obj
 0001:0002dec0       __vswprintf_s_l            1002eec0 f   LIBCMTD:vswprnc.obj
 0001:0002e150       _vswprintf_s               1002f150 f   LIBCMTD:vswprnc.obj
 0001:0002e170       __woutput_l                1002f170 f   LIBCMTD:woutput.obj
 0001:0002f760       _strcat_s                  10030760 f   LIBCMTD:strcat_s.obj
 0001:0002fb60       _wcscat_s                  10030b60 f   LIBCMTD:wcscat_s.obj
 0001:000303a0       __i64toa_s                 100313a0 f   LIBCMTD:xtoas.obj
 0001:000303f0       __itoa_s                   100313f0 f   LIBCMTD:xtoas.obj
 0001:00030450       __ltoa_s                   10031450 f   LIBCMTD:xtoas.obj
 0001:00030490       __ui64toa_s                10031490 f   LIBCMTD:xtoas.obj
 0001:000304b0       __ultoa_s                  100314b0 f   LIBCMTD:xtoas.obj
 0001:000308b0       __mbstowcs_l               100318b0 f   LIBCMTD:mbstowcs.obj
 0001:000308d0       __mbstowcs_l_helper        100318d0 f   LIBCMTD:mbstowcs.obj
 0001:00030c60       __mbstowcs_s_l             10031c60 f   LIBCMTD:mbstowcs.obj
 0001:00031020       _mbstowcs                  10032020 f   LIBCMTD:mbstowcs.obj
 0001:00031070       _mbstowcs_s                10032070 f   LIBCMTD:mbstowcs.obj
 0001:00031100       __wcstombs_l               10032100 f   LIBCMTD:wcstombs.obj
 0001:00031120       __wcstombs_l_helper        10032120 f   LIBCMTD:wcstombs.obj
 0001:00031630       __wcstombs_s_l             10032630 f   LIBCMTD:wcstombs.obj
 0001:00031990       _wcstombs                  10032990 f   LIBCMTD:wcstombs.obj
 0001:000319b0       _wcstombs_s                100329b0 f   LIBCMTD:wcstombs.obj
 0001:00031e20       __i64tow_s                 10032e20 f   LIBCMTD:xtows.obj
 0001:00031e70       __itow_s                   10032e70 f   LIBCMTD:xtows.obj
 0001:00031ed0       __ltow_s                   10032ed0 f   LIBCMTD:xtows.obj
 0001:00031f10       __ui64tow_s                10032f10 f   LIBCMTD:xtows.obj
 0001:00031f30       __ultow_s                  10032f30 f   LIBCMTD:xtows.obj
 0001:00032350       __vsnprintf_c              10033350 f   LIBCMTD:vsnprnc.obj
 0001:000323a0       __vsnprintf_c_l            100333a0 f   LIBCMTD:vsnprnc.obj
 0001:000323f0       __vsnprintf_helper         100333f0 f   LIBCMTD:vsnprnc.obj
 0001:000325f0       __vsnprintf_s              100335f0 f   LIBCMTD:vsnprnc.obj
 0001:00032620       __vsnprintf_s_l            10033620 f   LIBCMTD:vsnprnc.obj
 0001:000329e0       __vsprintf_p               100339e0 f   LIBCMTD:vsnprnc.obj
 0001:00032a30       __vsprintf_p_l             10033a30 f   LIBCMTD:vsnprnc.obj
 0001:00032a80       __vsprintf_s_l             10033a80 f   LIBCMTD:vsnprnc.obj
 0001:00032d10       _vsprintf_s                10033d10 f   LIBCMTD:vsnprnc.obj
 0001:00032d30       __global_unwind2           10033d30 f   LIBCMTD:exsup.obj
 0001:00032d95       __local_unwind2            10033d95 f   LIBCMTD:exsup.obj
 0001:00032e19       __abnormal_termination     10033e19 f   LIBCMTD:exsup.obj
 0001:00032e3c       __NLG_Notify1              10033e3c f   LIBCMTD:exsup.obj
 0001:00032e45       __NLG_Notify               10033e45 f   LIBCMTD:exsup.obj
 0001:00032e5c       __NLG_Dispatch2            10033e5c     LIBCMTD:exsup.obj
 0001:00032e5c       __NLG_Dispatch             10033e5c     LIBCMTD:exsup.obj
 0001:00032e64       __NLG_Call                 10033e64 f   LIBCMTD:exsup.obj
 0001:00032e66       __NLG_Return2              10033e66     LIBCMTD:exsup.obj
 0001:00032e70       ?_ValidateExecute@@YAHP6GHXZ@Z 10033e70 f   LIBCMTD:validate.obj
 0001:00032e90       ?_ValidateRead@@YAHPBXI@Z  10033e90 f   LIBCMTD:validate.obj
 0001:00032eb0       ?_ValidateWrite@@YAHPAXI@Z 10033eb0 f   LIBCMTD:validate.obj
 0001:00032ed0       ??0Block@_HeapManager@@QAE@XZ 10033ed0 f i LIBCMTD:undname.obj
 0001:00032ef0       ??0DName@@QAE@AAPBDD@Z     10033ef0 f   LIBCMTD:undname.obj
 0001:000331b0       ??0DName@@QAE@ABV0@@Z      100341b0 f i LIBCMTD:undname.obj
 0001:000331d0       ??0DName@@QAE@D@Z          100341d0 f   LIBCMTD:undname.obj
 0001:000332b0       ??0DName@@QAE@PAV0@@Z      100342b0 f   LIBCMTD:undname.obj
 0001:000333f0       ??0DName@@QAE@PBD@Z        100343f0 f   LIBCMTD:undname.obj
 0001:000334e0       ??0DName@@QAE@W4DNameStatus@@@Z 100344e0 f   LIBCMTD:undname.obj
 0001:00033600       ??0DName@@QAE@XZ           10034600 f i LIBCMTD:undname.obj
 0001:000336c0       ??0DName@@QAE@_J@Z         100346c0 f   LIBCMTD:undname.obj
 0001:00033840       ??0DName@@QAE@_K@Z         10034840 f   LIBCMTD:undname.obj
 0001:00033980       ??0DNameNode@@IAE@XZ       10034980 f   LIBCMTD:undname.obj
 0001:000339a0       ??0DNameStatusNode@@AAE@W4DNameStatus@@@Z 100349a0 f   LIBCMTD:undname.obj
 0001:000339f0       ??0Replicator@@QAE@XZ      100349f0 f i LIBCMTD:undname.obj
 0001:00033a10       ??0UnDecorator@@QAE@PADPBDHP6APADJ@ZK@Z 10034a10 f i LIBCMTD:undname.obj
 0001:00033ab0       ??0charNode@@QAE@D@Z       10034ab0 f   LIBCMTD:undname.obj
 0001:00033ae0       ??0pDNameNode@@QAE@PAVDName@@@Z 10034ae0 f   LIBCMTD:undname.obj
 0001:00033b40       ??0pairNode@@QAE@PAVDNameNode@@0@Z 10034b40 f   LIBCMTD:undname.obj
 0001:00033b80       ??0pcharNode@@QAE@PBDH@Z   10034b80 f   LIBCMTD:undname.obj
 0001:00033c20       ??2@YAPAXIAAV_HeapManager@@H@Z 10034c20 f i LIBCMTD:undname.obj
 0001:00033c40       ??4DName@@QAEAAV0@ABV0@@Z  10034c40 f   LIBCMTD:undname.obj
 0001:00033c60       ??4DName@@QAEAAV0@D@Z      10034c60 f i LIBCMTD:undname.obj
 0001:00033d40       ??4DName@@QAEAAV0@PAV0@@Z  10034d40 f   LIBCMTD:undname.obj
 0001:00033e70       ??4DName@@QAEAAV0@PBD@Z    10034e70 f   LIBCMTD:undname.obj
 0001:00033f50       ??4DName@@QAEAAV0@W4DNameStatus@@@Z 10034f50 f   LIBCMTD:undname.obj
 0001:00034050       ??AReplicator@@QBE?AVDName@@H@Z 10035050 f   LIBCMTD:undname.obj
 0001:000340c0       ??BUnDecorator@@QAEPADXZ   100350c0 f i LIBCMTD:undname.obj
 0001:00034370       ??H@YA?AVDName@@DABV0@@Z   10035370 f i LIBCMTD:undname.obj
 0001:000343a0       ??H@YA?AVDName@@PBDABV0@@Z 100353a0 f i LIBCMTD:undname.obj
 0001:000343d0       ??H@YA?AVDName@@W4DNameStatus@@ABV0@@Z 100353d0 f i LIBCMTD:undname.obj
 0001:00034400       ??HDName@@QBE?AV0@ABV0@@Z  10035400 f   LIBCMTD:undname.obj
 0001:00034440       ??HDName@@QBE?AV0@D@Z      10035440 f   LIBCMTD:undname.obj
 0001:00034480       ??HDName@@QBE?AV0@PAV0@@Z  10035480 f   LIBCMTD:undname.obj
 0001:000344c0       ??HDName@@QBE?AV0@PBD@Z    100354c0 f   LIBCMTD:undname.obj
 0001:00034500       ??HDName@@QBE?AV0@W4DNameStatus@@@Z 10035500 f   LIBCMTD:undname.obj
 0001:00034540       ??YDName@@QAEAAV0@ABV0@@Z  10035540 f   LIBCMTD:undname.obj
 0001:000345b0       ??YDName@@QAEAAV0@D@Z      100355b0 f   LIBCMTD:undname.obj
 0001:00034630       ??YDName@@QAEAAV0@PAV0@@Z  10035630 f   LIBCMTD:undname.obj
 0001:000346e0       ??YDName@@QAEAAV0@PBD@Z    100356e0 f   LIBCMTD:undname.obj
 0001:00034780       ??YDName@@QAEAAV0@W4DNameStatus@@@Z 10035780 f   LIBCMTD:undname.obj
 0001:000347e0       ??YReplicator@@QAEAAV0@ABVDName@@@Z 100357e0 f   LIBCMTD:undname.obj
 0001:00034870       ??_5DName@@QAEAAV0@ABV0@@Z 10035870 f   LIBCMTD:undname.obj
 0001:000348d0       ?Constructor@_HeapManager@@QAEXP6APAXI@ZP6AXPAX@Z@Z 100358d0 f i LIBCMTD:undname.obj
 0001:00034910       ?Destructor@_HeapManager@@QAEXXZ 10035910 f i LIBCMTD:undname.obj
 0001:00034960       ?UScore@UnDecorator@@SAPBDW4Tokens@@@Z 10035960 f   LIBCMTD:undname.obj
 0001:00034990       ?append@DName@@AAEXPAVDNameNode@@@Z 10035990 f   LIBCMTD:undname.obj
 0001:00034a20       ?composeDeclaration@UnDecorator@@CA?AVDName@@ABV2@@Z 10035a20 f i LIBCMTD:undname.obj
 0001:000366a0       ?dbGetString@DName@@QBEPADXZ 100376a0 f   LIBCMTD:undname.obj
 0001:000366c0       ?doAccessSpecifiers@UnDecorator@@SAHXZ 100376c0 f i LIBCMTD:undname.obj
 0001:000366f0       ?doAllocationLanguage@UnDecorator@@SAHXZ 100376f0 f i LIBCMTD:undname.obj
 0001:00036720       ?doAllocationModel@UnDecorator@@SAHXZ 10037720 f i LIBCMTD:undname.obj
 0001:00036750       ?doEcsu@UnDecorator@@SAHXZ 10037750 f i LIBCMTD:undname.obj
 0001:00036780       ?doEllipsis@UnDecorator@@SAHXZ 10037780 f i LIBCMTD:undname.obj
 0001:000367b0       ?doFunctionReturns@UnDecorator@@SAHXZ 100377b0 f i LIBCMTD:undname.obj
 0001:000367e0       ?doMSKeywords@UnDecorator@@SAHXZ 100377e0 f i LIBCMTD:undname.obj
 0001:00036810       ?doMemberTypes@UnDecorator@@SAHXZ 10037810 f i LIBCMTD:undname.obj
 0001:00036840       ?doNameOnly@UnDecorator@@SAHXZ 10037840 f i LIBCMTD:undname.obj
 0001:00036850       ?doNoIdentCharCheck@UnDecorator@@SAHXZ 10037850 f i LIBCMTD:undname.obj
 0001:00036860       ?doPchar@DName@@AAEXPBDH@Z 10037860 f   LIBCMTD:undname.obj
 0001:000369a0       ?doPtr64@UnDecorator@@SAHXZ 100379a0 f i LIBCMTD:undname.obj
 0001:000369d0       ?doRestrictionSpec@UnDecorator@@SAHXZ 100379d0 f i LIBCMTD:undname.obj
 0001:00036a00       ?doThisTypes@UnDecorator@@SAHXZ 10037a00 f i LIBCMTD:undname.obj
 0001:00036a30       ?doThrowTypes@UnDecorator@@SAHXZ 10037a30 f i LIBCMTD:undname.obj
 0001:00036a60       ?doTypeOnly@UnDecorator@@SAHXZ 10037a60 f i LIBCMTD:undname.obj
 0001:00036a70       ?doUnderScore@UnDecorator@@SAHXZ 10037a70 f i LIBCMTD:undname.obj
 0001:00036aa0       ?getArgumentList@UnDecorator@@CA?AVDName@@XZ 10037aa0 f   LIBCMTD:undname.obj
 0001:00036bf0       ?getArgumentTypes@UnDecorator@@CA?AVDName@@XZ 10037bf0 f   LIBCMTD:undname.obj
 0001:00036d50       ?getArrayType@UnDecorator@@CA?AVDName@@ABV2@@Z 10037d50 f i LIBCMTD:undname.obj
 0001:00036f90       ?getBasedType@UnDecorator@@CA?AVDName@@XZ 10037f90 f   LIBCMTD:undname.obj
 0001:00037050       ?getBasicDataType@UnDecorator@@CA?AVDName@@ABV2@@Z 10038050 f   LIBCMTD:undname.obj
 0001:00037610       ?getCallIndex@UnDecorator@@CA?AVDName@@XZ 10038610 f i LIBCMTD:undname.obj
 0001:00037630       ?getCallingConvention@UnDecorator@@CA?AVDName@@XZ 10038630 f   LIBCMTD:undname.obj
 0001:000377c0       ?getDataIndirectType@UnDecorator@@CA?AVDName@@ABV2@PBD0H@Z 100387c0 f   LIBCMTD:undname.obj
 0001:00037ee0       ?getDataIndirectType@UnDecorator@@CA?AVDName@@XZ 10038ee0 f i LIBCMTD:undname.obj
 0001:00037f20       ?getDataType@UnDecorator@@CA?AVDName@@PAV2@@Z 10038f20 f   LIBCMTD:undname.obj
 0001:00038040       ?getDecoratedName@UnDecorator@@CA?AVDName@@XZ 10039040 f   LIBCMTD:undname.obj
 0001:00038360       ?getDimension@UnDecorator@@CA?AVDName@@_N@Z 10039360 f   LIBCMTD:undname.obj
 0001:00038610       ?getDispatchTarget@UnDecorator@@CA?AVDName@@XZ 10039610 f   LIBCMTD:undname.obj
 0001:000386b0       ?getDisplacement@UnDecorator@@CA?AVDName@@XZ 100396b0 f i LIBCMTD:undname.obj
 0001:000386d0       ?getECSUDataType@UnDecorator@@CA?AVDName@@XZ 100396d0 f   LIBCMTD:undname.obj
 0001:000388a0       ?getECSUName@UnDecorator@@CA?AVDName@@XZ 100398a0 f i LIBCMTD:undname.obj
 0001:000388c0       ?getEnumType@UnDecorator@@CA?AVDName@@XZ 100398c0 f i LIBCMTD:undname.obj
 0001:00038a10       ?getExtendedDataIndirectType@UnDecorator@@CA?AVDName@@AAPBDAA_NH@Z 10039a10 f   LIBCMTD:undname.obj
 0001:00038c60       ?getExternalDataType@UnDecorator@@CA?AVDName@@ABV2@@Z 10039c60 f i LIBCMTD:undname.obj
 0001:00038cf0       ?getFunctionIndirectType@UnDecorator@@CA?AVDName@@ABV2@@Z 10039cf0 f   LIBCMTD:undname.obj
 0001:00039160       ?getGuardNumber@UnDecorator@@CA?AVDName@@XZ 1003a160 f i LIBCMTD:undname.obj
 0001:00039180       ?getLastChar@DName@@QBEDXZ 1003a180 f i LIBCMTD:undname.obj
 0001:000391b0       ?getLastChar@DNameStatusNode@@UBEDXZ 1003a1b0 f i LIBCMTD:undname.obj
 0001:000391e0       ?getLastChar@charNode@@UBEDXZ 1003a1e0 f i LIBCMTD:undname.obj
 0001:00039200       ?getLastChar@pDNameNode@@UBEDXZ 1003a200 f i LIBCMTD:undname.obj
 0001:00039230       ?getLastChar@pairNode@@UBEDXZ 1003a230 f i LIBCMTD:undname.obj
 0001:00039280       ?getLastChar@pcharNode@@UBEDXZ 1003a280 f i LIBCMTD:undname.obj
 0001:000392c0       ?getLexicalFrame@UnDecorator@@CA?AVDName@@XZ 1003a2c0 f i LIBCMTD:undname.obj
 0001:00039300       ?getMemory@_HeapManager@@QAEPAXIH@Z 1003a300 f   LIBCMTD:undname.obj
 0001:00039410       ?getNumberOfDimensions@UnDecorator@@CAHXZ 1003a410 f   LIBCMTD:undname.obj
 0001:00039510       ?getOperatorName@UnDecorator@@CA?AVDName@@_NPA_N@Z 1003a510 f i LIBCMTD:undname.obj
 0001:00039ea0       ?getPointerType@UnDecorator@@CA?AVDName@@ABV2@0@Z 1003aea0 f i LIBCMTD:undname.obj
 0001:00039ed0       ?getPointerTypeArray@UnDecorator@@CA?AVDName@@ABV2@0@Z 1003aed0 f i LIBCMTD:undname.obj
 0001:00039f00       ?getPrimaryDataType@UnDecorator@@CA?AVDName@@ABV2@@Z 1003af00 f   LIBCMTD:undname.obj
 0001:0003a2a0       ?getPtrRefDataType@UnDecorator@@CA?AVDName@@ABV2@H@Z 1003b2a0 f i LIBCMTD:undname.obj
 0001:0003a3e0       ?getPtrRefType@UnDecorator@@CA?AVDName@@ABV2@0PBD@Z 1003b3e0 f   LIBCMTD:undname.obj
 0001:0003a550       ?getReferenceType@UnDecorator@@CA?AVDName@@ABV2@0PBD@Z 1003b550 f i LIBCMTD:undname.obj
 0001:0003a570       ?getRestrictionSpec@UnDecorator@@CA?AVDName@@XZ 1003b570 f   LIBCMTD:undname.obj
 0001:0003a6c0       ?getReturnType@UnDecorator@@CA?AVDName@@PAV2@@Z 1003b6c0 f   LIBCMTD:undname.obj
 0001:0003a710       ?getScope@UnDecorator@@CA?AVDName@@XZ 1003b710 f   LIBCMTD:undname.obj
 0001:0003ac00       ?getScopedName@UnDecorator@@CA?AVDName@@XZ 1003bc00 f   LIBCMTD:undname.obj
 0001:0003ad20       ?getSignedDimension@UnDecorator@@CA?AVDName@@XZ 1003bd20 f   LIBCMTD:undname.obj
 0001:0003ada0       ?getStorageConvention@UnDecorator@@CA?AVDName@@XZ 1003bda0 f i LIBCMTD:undname.obj
 0001:0003adc0       ?getString@DName@@QBEPADPAD0@Z 1003bdc0 f i LIBCMTD:undname.obj
 0001:0003ae00       ?getString@DName@@QBEPADPADH@Z 1003be00 f i LIBCMTD:undname.obj
 0001:0003ae90       ?getString@DNameStatusNode@@UBEPADPAD0@Z 1003be90 f i LIBCMTD:undname.obj
 0001:0003aed0       ?getString@charNode@@UBEPADPAD0@Z 1003bed0 f i LIBCMTD:undname.obj
 0001:0003af00       ?getString@pDNameNode@@UBEPADPAD0@Z 1003bf00 f i LIBCMTD:undname.obj
 0001:0003af40       ?getString@pairNode@@UBEPADPAD0@Z 1003bf40 f i LIBCMTD:undname.obj
 0001:0003afa0       ?getString@pcharNode@@UBEPADPAD0@Z 1003bfa0 f i LIBCMTD:undname.obj
 0001:0003afd0       ?getStringEncoding@UnDecorator@@CA?AVDName@@PADH@Z 1003bfd0 f   LIBCMTD:undname.obj
 0001:0003b0e0       ?getStringHelper@@YAPADPAD00H@Z 1003c0e0 f i LIBCMTD:undname.obj
 0001:0003b120       ?getSymbolName@UnDecorator@@CA?AVDName@@XZ 1003c120 f i LIBCMTD:undname.obj
 0001:0003b1b0       ?getTemplateArgumentList@UnDecorator@@CA?AVDName@@XZ 1003c1b0 f   LIBCMTD:undname.obj
 0001:0003b4d0       ?getTemplateConstant@UnDecorator@@CA?AVDName@@XZ 1003c4d0 f   LIBCMTD:undname.obj
 0001:0003b9c0       ?getTemplateName@UnDecorator@@CA?AVDName@@_N@Z 1003c9c0 f   LIBCMTD:undname.obj
 0001:0003bb90       ?getThisType@UnDecorator@@CA?AVDName@@XZ 1003cb90 f i LIBCMTD:undname.obj
 0001:0003bbd0       ?getThrowTypes@UnDecorator@@CA?AVDName@@XZ 1003cbd0 f   LIBCMTD:undname.obj
 0001:0003bc80       ?getTypeEncoding@UnDecorator@@CAHXZ 1003cc80 f i LIBCMTD:undname.obj
 0001:0003c6c0       ?getVCallThunkType@UnDecorator@@CA?AVDName@@XZ 1003d6c0 f i LIBCMTD:undname.obj
 0001:0003c720       ?getVbTableType@UnDecorator@@CA?AVDName@@ABV2@@Z 1003d720 f i LIBCMTD:undname.obj
 0001:0003c740       ?getVdispMapType@UnDecorator@@CA?AVDName@@ABV2@@Z 1003d740 f i LIBCMTD:undname.obj
 0001:0003c7b0       ?getVfTableType@UnDecorator@@CA?AVDName@@ABV2@@Z 1003d7b0 f i LIBCMTD:undname.obj
 0001:0003c970       ?getZName@UnDecorator@@CA?AVDName@@_N0@Z 1003d970 f   LIBCMTD:undname.obj
 0001:0003cc20       ?haveTemplateParameters@UnDecorator@@SAHXZ 1003dc20 f i LIBCMTD:undname.obj
 0001:0003cc30       ?isArray@DName@@QBEHXZ     1003dc30 f i LIBCMTD:undname.obj
 0001:0003cc50       ?isComArray@DName@@QBEHXZ  1003dc50 f i LIBCMTD:undname.obj
 0001:0003cc70       ?isEmpty@DName@@QBEHXZ     1003dc70 f i LIBCMTD:undname.obj
 0001:0003cca0       ?isFull@Replicator@@QBEHXZ 1003dca0 f i LIBCMTD:undname.obj
 0001:0003ccd0       ?isNoTE@DName@@QBEHXZ      1003dcd0 f i LIBCMTD:undname.obj
 0001:0003ccf0       ?isPinPtr@DName@@QBEHXZ    1003dcf0 f i LIBCMTD:undname.obj
 0001:0003cd10       ?isPtrRef@DName@@QBEHXZ    1003dd10 f i LIBCMTD:undname.obj
 0001:0003cd30       ?isUDC@DName@@QBEHXZ       1003dd30 f i LIBCMTD:undname.obj
 0001:0003cd70       ?isUDTThunk@DName@@QBEHXZ  1003dd70 f i LIBCMTD:undname.obj
 0001:0003cdb0       ?isVCallThunk@DName@@QBEHXZ 1003ddb0 f i LIBCMTD:undname.obj
 0001:0003cdd0       ?isValid@DName@@QBEHXZ     1003ddd0 f i LIBCMTD:undname.obj
 0001:0003ce10       ?length@DName@@QBEHXZ      1003de10 f i LIBCMTD:undname.obj
 0001:0003ce40       ?length@DNameStatusNode@@UBEHXZ 1003de40 f i LIBCMTD:undname.obj
 0001:0003ce60       ?length@charNode@@UBEHXZ   1003de60 f i LIBCMTD:undname.obj
 0001:0003ce70       ?length@pDNameNode@@UBEHXZ 1003de70 f i LIBCMTD:undname.obj
 0001:0003cea0       ?length@pairNode@@UBEHXZ   1003dea0 f i LIBCMTD:undname.obj
 0001:0003cef0       ?length@pcharNode@@UBEHXZ  1003def0 f i LIBCMTD:undname.obj
 0001:0003cf10       ?make@DNameStatusNode@@SAPAV1@W4DNameStatus@@@Z 1003df10 f i LIBCMTD:undname.obj
 0001:0003cfc0       ?setIsArray@DName@@QAEXXZ  1003dfc0 f i LIBCMTD:undname.obj
 0001:0003cfe0       ?setIsComArray@DName@@QAEXXZ 1003dfe0 f i LIBCMTD:undname.obj
 0001:0003d000       ?setIsNoTE@DName@@QAEXXZ   1003e000 f i LIBCMTD:undname.obj
 0001:0003d020       ?setIsPinPtr@DName@@QAEXXZ 1003e020 f i LIBCMTD:undname.obj
 0001:0003d040       ?setIsUDC@DName@@QAEXXZ    1003e040 f i LIBCMTD:undname.obj
 0001:0003d070       ?setIsVCallThunk@DName@@QAEXXZ 1003e070 f i LIBCMTD:undname.obj
 0001:0003d090       ?setPtrRef@DName@@QAEAAV1@XZ 1003e090 f i LIBCMTD:undname.obj
 0001:0003d0b0       ?status@DName@@QBE?AW4DNameStatus@@XZ 1003e0b0 f i LIBCMTD:undname.obj
 0001:0003d1b0       ___unDName                 1003e1b0 f   LIBCMTD:undname.obj
 0001:0003d290       ___unDNameEx               1003e290 f   LIBCMTD:undname.obj
 0001:0003d370       ___isascii                 1003e370 f i LIBCMTD:_ctype.obj
 0001:0003d3a0       ___iscsym                  1003e3a0 f i LIBCMTD:_ctype.obj
 0001:0003d3e0       ___iscsymf                 1003e3e0 f i LIBCMTD:_ctype.obj
 0001:0003d420       ___toascii                 1003e420 f i LIBCMTD:_ctype.obj
 0001:0003d430       __isalnum_l                1003e430 f i LIBCMTD:_ctype.obj
 0001:0003d4b0       __isalpha_l                1003e4b0 f i LIBCMTD:_ctype.obj
 0001:0003d530       __isblank_l                1003e530 f i LIBCMTD:_ctype.obj
 0001:0003d5c0       __iscntrl_l                1003e5c0 f i LIBCMTD:_ctype.obj
 0001:0003d640       __iscsym_l                 1003e640 f i LIBCMTD:_ctype.obj
 0001:0003d680       __iscsymf_l                1003e680 f i LIBCMTD:_ctype.obj
 0001:0003d6c0       __isdigit_l                1003e6c0 f i LIBCMTD:_ctype.obj
 0001:0003d740       __isgraph_l                1003e740 f i LIBCMTD:_ctype.obj
 0001:0003d7c0       __islower_l                1003e7c0 f i LIBCMTD:_ctype.obj
 0001:0003d840       __isprint_l                1003e840 f i LIBCMTD:_ctype.obj
 0001:0003d8c0       __ispunct_l                1003e8c0 f i LIBCMTD:_ctype.obj
 0001:0003d940       __isspace_l                1003e940 f i LIBCMTD:_ctype.obj
 0001:0003d9c0       __isupper_l                1003e9c0 f i LIBCMTD:_ctype.obj
 0001:0003da40       __isxdigit_l               1003ea40 f i LIBCMTD:_ctype.obj
 0001:0003dac0       _isalnum                   1003eac0 f i LIBCMTD:_ctype.obj
 0001:0003db00       _isalpha                   1003eb00 f i LIBCMTD:_ctype.obj
 0001:0003db40       _isblank                   1003eb40 f i LIBCMTD:_ctype.obj
 0001:0003db90       _iscntrl                   1003eb90 f i LIBCMTD:_ctype.obj
 0001:0003dbc0       _isdigit                   1003ebc0 f i LIBCMTD:_ctype.obj
 0001:0003dbf0       _isgraph                   1003ebf0 f i LIBCMTD:_ctype.obj
 0001:0003dc30       _islower                   1003ec30 f i LIBCMTD:_ctype.obj
 0001:0003dc60       _isprint                   1003ec60 f i LIBCMTD:_ctype.obj
 0001:0003dca0       _ispunct                   1003eca0 f i LIBCMTD:_ctype.obj
 0001:0003dcd0       _isspace                   1003ecd0 f i LIBCMTD:_ctype.obj
 0001:0003dd00       _isupper                   1003ed00 f i LIBCMTD:_ctype.obj
 0001:0003dd30       _isxdigit                  1003ed30 f i LIBCMTD:_ctype.obj
 0001:0003dd70       __tolower                  1003ed70 f   LIBCMTD:tolower.obj
 0001:0003dd80       __tolower_l                1003ed80 f   LIBCMTD:tolower.obj
 0001:0003dfc0       _tolower                   1003efc0 f   LIBCMTD:tolower.obj
 0001:0003e010       _strrchr                   1003f010 f   LIBCMTD:strrchr.obj
 0001:0003e150       __fptostr                  1003f150 f   LIBCMTD:_fptostr.obj
 0001:0003e470       ___crt_atoflt_l            1003f470 f   LIBCMTD:atodbl.obj
 0001:0003e580       __atodbl                   1003f580 f   LIBCMTD:atodbl.obj
 0001:0003e5a0       __atodbl_l                 1003f5a0 f   LIBCMTD:atodbl.obj
 0001:0003e6a0       __atoflt                   1003f6a0 f   LIBCMTD:atodbl.obj
 0001:0003e6c0       __atoflt_l                 1003f6c0 f   LIBCMTD:atodbl.obj
 0001:0003e6e0       __atoldbl                  1003f6e0 f   LIBCMTD:atodbl.obj
 0001:0003e700       __atoldbl_l                1003f700 f   LIBCMTD:atodbl.obj
 0001:0003e800       ___dtold                   1003f800 f   LIBCMTD:cfout.obj
 0001:0003e960       __fltout2                  1003f960 f   LIBCMTD:cfout.obj
 0001:0003ea10       __alldiv                   1003fa10 f   LIBCMTD:lldiv.obj
 0001:0003eac0       __allrem                   1003fac0 f   LIBCMTD:llrem.obj
 0001:0003eb80       __allshl                   1003fb80 f   LIBCMTD:llshl.obj
 0001:0003eba0       __aullshr                  1003fba0 f   LIBCMTD:ullshr.obj
 0001:0003ebc0       __get_output_format        1003fbc0 f   LIBCMTD:outputformat.obj
 0001:0003ebd0       __set_output_format        1003fbd0 f   LIBCMTD:outputformat.obj
 0001:0003ec70       __controlfp_s              1003fc70 f   LIBCMTD:contrlfp.obj
 0001:0003ed60       __fptrap                   1003fd60 f   LIBCMTD:crt0fp.obj
 0001:0003ed70       _wcsncpy_s                 1003fd70 f   LIBCMTD:wcsncpy_s.obj
 0001:0003f1a0       ___set_app_type            100401a0 f   LIBCMTD:errmode.obj
 0001:0003f1b0       __set_error_mode           100401b0 f   LIBCMTD:errmode.obj
 0001:0003f3a0       __MallocaIsSizeInRange     100403a0 f i LIBCMTD:a_loc.obj
 0001:0003f3d0       __MarkAllocaS              100403d0 f i LIBCMTD:a_loc.obj
 0001:0003f3f0       ___crtGetLocaleInfoA       100403f0 f   LIBCMTD:a_loc.obj
 0001:0003f440       __freea                    10040440 f i LIBCMTD:a_loc.obj
 0001:0003f4b0       _GetTableIndexFromLcid     100404b0 f   LIBCMTD:winapinls.obj
 0001:0003f520       _GetTableIndexFromLocaleName 10040520 f   LIBCMTD:winapinls.obj
 0001:0003f5b0       ___crtCompareStringEx      100405b0 f   LIBCMTD:winapinls.obj
 0001:0003f620       ___crtDownlevelLCIDToLocaleName 10040620 f   LIBCMTD:winapinls.obj
 0001:0003f6f0       ___crtDownlevelLocaleNameToLCID 100406f0 f   LIBCMTD:winapinls.obj
 0001:0003f750       ___crtEnumSystemLocalesEx  10040750 f   LIBCMTD:winapinls.obj
 0001:0003f7c0       ___crtGetDateFormatEx      100407c0 f   LIBCMTD:winapinls.obj
 0001:0003f830       ___crtGetLocaleInfoEx      10040830 f   LIBCMTD:winapinls.obj
 0001:0003f890       ___crtGetTimeFormatEx      10040890 f   LIBCMTD:winapinls.obj
 0001:0003f900       ___crtGetUserDefaultLocaleName 10040900 f   LIBCMTD:winapinls.obj
 0001:0003f950       ___crtIsValidLocaleName    10040950 f   LIBCMTD:winapinls.obj
 0001:0003f990       ___crtLCMapStringEx        10040990 f   LIBCMTD:winapinls.obj
 0001:0003fa00       ___wcsnicmp_ascii          10040a00 f   LIBCMTD:winapinls.obj
 0001:0003fad0       ___free_lconv_mon          10040ad0 f   LIBCMTD:initmon.obj
 0001:0003fc80       ___init_monetary           10040c80 f   LIBCMTD:initmon.obj
 0001:00040290       ___free_lconv_num          10041290 f   LIBCMTD:initnum.obj
 0001:00040340       ___init_numeric            10041340 f   LIBCMTD:initnum.obj
 0001:00040710       ___free_lc_time            10041710 f   LIBCMTD:inittime.obj
 0001:00041040       ___init_time               10042040 f   LIBCMTD:inittime.obj
 0001:00042040       _localeconv                10043040 f   LIBCMTD:lconv.obj
 0001:000423c0       ___crtLCMapStringA         100433c0 f   LIBCMTD:a_map.obj
 0001:00042560       ___crtGetStringTypeA       10043560 f   LIBCMTD:a_str.obj
 0001:000425b0       ___init_dummy              100435b0 f   LIBCMTD:wsetloca.obj
 0001:000425c0       __locterm                  100435c0 f   LIBCMTD:wsetloca.obj
 0001:00042650       ____setlc_active_func      10043650 f   LIBCMTD:wsetloca.obj
 0001:00042660       ____unguarded_readlc_active_add_func 10043660 f   LIBCMTD:wsetloca.obj
 0001:00042670       ___copy_locale_name        10043670 f   LIBCMTD:wsetloca.obj
 0001:00042710       ___create_locale           10043710 f   LIBCMTD:wsetloca.obj
 0001:00042730       ___free_locale             10043730 f   LIBCMTD:wsetloca.obj
 0001:00042750       ___get_current_locale      10043750 f   LIBCMTD:wsetloca.obj
 0001:00042760       ___lc_lctowcs              10043760 f   LIBCMTD:wsetloca.obj
 0001:00042810       ___lc_wcstolc              10043810 f   LIBCMTD:wsetloca.obj
 0001:00042a30       __configthreadlocale       10043a30 f   LIBCMTD:wsetloca.obj
 0001:00042b90       __create_locale            10043b90 f   LIBCMTD:wsetloca.obj
 0001:00042c00       __expandlocale             10043c00 f   LIBCMTD:wsetloca.obj
 0001:000430f0       __free_locale              100440f0 f   LIBCMTD:wsetloca.obj
 0001:00043220       __get_current_locale       10044220 f   LIBCMTD:wsetloca.obj
 0001:00043340       __wcreate_locale           10044340 f   LIBCMTD:wsetloca.obj
 0001:00043530       __wcscats                  10044530 f   LIBCMTD:wsetloca.obj
 0001:000435b0       __wsetlocale               100445b0 f   LIBCMTD:wsetloca.obj
 0001:00044640       __vscprintf                10045640 f   LIBCMTD:vsprintf.obj
 0001:00044660       __vscprintf_helper         10045660 f   LIBCMTD:vsprintf.obj
 0001:00044750       __vscprintf_l              10045750 f   LIBCMTD:vsprintf.obj
 0001:00044770       __vscprintf_p              10045770 f   LIBCMTD:vsprintf.obj
 0001:00044790       __vscprintf_p_l            10045790 f   LIBCMTD:vsprintf.obj
 0001:000447b0       __vsprintf_l               100457b0 f   LIBCMTD:vsprintf.obj
 0001:00044970       _vsprintf                  10045970 f   LIBCMTD:vsprintf.obj
 0001:00044990       ___pctype_func             10045990 f   LIBCMTD:ctype.obj
 0001:000449e0       ___pwctype_func            100459e0 f   LIBCMTD:ctype.obj
 0001:000449f0       __fclose_nolock            100459f0 f   LIBCMTD:fclose.obj
 0001:00044b00       _fclose                    10045b00 f   LIBCMTD:fclose.obj
 0001:00044c20       __commit                   10045c20 f   LIBCMTD:commit.obj
 0001:00044e60       __write                    10045e60 f   LIBCMTD:write.obj
 0001:000450b0       __write_nolock             100460b0 f   LIBCMTD:write.obj
 0001:00046360       __strtol_l                 10047360 f   LIBCMTD:strtol.obj
 0001:00046380       __strtoul_l                10047380 f   LIBCMTD:strtol.obj
 0001:000463a0       _strtol                    100473a0 f   LIBCMTD:strtol.obj
 0001:000463f0       _strtoul                   100473f0 f   LIBCMTD:strtol.obj
 0001:00046440       __iswctype_l               10047440 f   LIBCMTD:iswctype.obj
 0001:00046460       _is_wctype                 10047460 f   LIBCMTD:iswctype.obj
 0001:00046480       _iswctype                  10047480 f   LIBCMTD:iswctype.obj
 0001:000464e0       __lseeki64                 100474e0 f   LIBCMTD:lseeki64.obj
 0001:00046750       __lseeki64_nolock          10047750 f   LIBCMTD:lseeki64.obj
 0001:00046820       __getbuf                   10047820 f   LIBCMTD:_getbuf.obj
 0001:000468f0       ____lc_codepage_func       100478f0 f   LIBCMTD:initctyp.obj
 0001:00046940       ____lc_collate_cp_func     10047940 f   LIBCMTD:initctyp.obj
 0001:00046990       ____lc_locale_name_func    10047990 f   LIBCMTD:initctyp.obj
 0001:000469e0       ____mb_cur_max_func        100479e0 f   LIBCMTD:initctyp.obj
 0001:00046a30       ____mb_cur_max_l_func      10047a30 f   LIBCMTD:initctyp.obj
 0001:00046a60       ___init_ctype              10047a60 f   LIBCMTD:initctyp.obj
 0001:000470a0       __87except                 100480a0 f   LIBCMTD:87except.obj
 0001:000472a0       __validate_param_reuseW    100482a0 f   LIBCMTD:woutputp.obj
 0001:00047580       __woutput_p_l              10048580 f   LIBCMTD:woutputp.obj
 0001:0004b080       __woutput_s_l              1004c080 f   LIBCMTD:woutputs.obj
 0001:0004c7d0       __fputwc_nolock            1004d7d0 f   LIBCMTD:fputwc.obj
 0001:0004cac0       _fputwc                    1004dac0 f   LIBCMTD:fputwc.obj
 0001:0004cbd0       _putwc                     1004dbd0 f   LIBCMTD:fputwc.obj
 0001:0004cbf0       __mbtowc_l                 1004dbf0 f   LIBCMTD:mbtowc.obj
 0001:0004ce30       _mbtowc                    1004de30 f   LIBCMTD:mbtowc.obj
 0001:0004ce50       __atoi64                   1004de50 f   LIBCMTD:atox.obj
 0001:0004ce70       __atoi64_l                 1004de70 f   LIBCMTD:atox.obj
 0001:0004ce90       __atoi_l                   1004de90 f   LIBCMTD:atox.obj
 0001:0004ceb0       __atol_l                   1004deb0 f   LIBCMTD:atox.obj
 0001:0004ced0       __atoll_l                  1004ded0 f   LIBCMTD:atox.obj
 0001:0004cef0       _atoi                      1004def0 f   LIBCMTD:atox.obj
 0001:0004cf10       _atol                      1004df10 f   LIBCMTD:atox.obj
 0001:0004cf30       _atoll                     1004df30 f   LIBCMTD:atox.obj
 0001:0004cf50       __CopyMan                  1004df50 f i LIBCMTD:intrncvt.obj
 0001:0004cfa0       __FillZeroMan              1004dfa0 f i LIBCMTD:intrncvt.obj
 0001:0004cfd0       __IncMan                   1004dfd0 f i LIBCMTD:intrncvt.obj
 0001:0004d080       __IsZeroMan                1004e080 f i LIBCMTD:intrncvt.obj
 0001:0004d0c0       __RoundMan                 1004e0c0 f i LIBCMTD:intrncvt.obj
 0001:0004d1a0       __ShrMan                   1004e1a0 f i LIBCMTD:intrncvt.obj
 0001:0004d290       __ZeroTail                 1004e290 f i LIBCMTD:intrncvt.obj
 0001:0004d320       ___addl                    1004e320 f i LIBCMTD:intrncvt.obj
 0001:0004d360       __ld12cvt                  1004e360 f i LIBCMTD:intrncvt.obj
 0001:0004d620       __ld12tod                  1004e620 f   LIBCMTD:intrncvt.obj
 0001:0004d640       __ld12tof                  1004e640 f   LIBCMTD:intrncvt.obj
 0001:0004d660       __ld12told                 1004e660 f   LIBCMTD:intrncvt.obj
 0001:0004d760       ___STRINGTOLD_L            1004e760 f   LIBCMTD:strgtold.obj
 0001:0004d7d0       ___ld12mul                 1004e7d0 f i LIBCMTD:strgtold.obj
 0001:0004dbe0       ___multtenpow12            1004ebe0 f i LIBCMTD:strgtold.obj
 0001:0004dcc0       ___shl_12                  1004ecc0 f i LIBCMTD:strgtold.obj
 0001:0004dd40       ___shr_12                  1004ed40 f i LIBCMTD:strgtold.obj
 0001:0004ddc0       ___strgtold12_l            1004edc0 f   LIBCMTD:strgtold.obj
 0001:0004e8b0       _$I10_OUTPUT               1004f8b0 f   LIBCMTD:x10fout.obj
 0001:0004eec0       ___add_12                  1004fec0 f i LIBCMTD:x10fout.obj
 0001:0004f170       ___control87_2             10050170 f   LIBCMTD:ieee87.obj
 0001:0004f610       __clearfp                  10050610 f   LIBCMTD:ieee87.obj
 0001:0004f650       __control87                10050650 f i LIBCMTD:ieee87.obj
 0001:0004f700       __controlfp                10050700 f   LIBCMTD:ieee87.obj
 0001:0004f720       __fpreset                  10050720 f   LIBCMTD:ieee87.obj
 0001:0004f8e0       __set_controlfp            100508e0 f   LIBCMTD:ieee87.obj
 0001:0004f970       __statusfp                 10050970 f   LIBCMTD:ieee87.obj
 0001:0004f9b0       __statusfp2                100509b0 f   LIBCMTD:ieee87.obj
 0001:0004f9f0       _wcsnlen                   100509f0 f   LIBCMTD:wcslen_s.obj
 0001:0004fa30       ___init_collate            10050a30 f   LIBCMTD:initcoll.obj
 0001:0004fbf0       _memcmp                    10050bf0 f   LIBCMTD:memcmp.obj
 0001:000504c0       _wcscmp                    100514c0 f   LIBCMTD:wcscmp.obj
 0001:00050520       _wcscspn                   10051520 f   LIBCMTD:wcscspn.obj
 0001:00050590       _wcsncmp                   10051590 f   LIBCMTD:wcsncmp.obj
 0001:000505f0       _wcspbrk                   100515f0 f   LIBCMTD:wcspbrk.obj
 0001:00051180       ___get_qualified_locale    10052180 f   LIBCMTD:getqloc.obj
 0001:00052150       ___get_qualified_locale_downlevel 10053150 f   LIBCMTD:getqloc_downlevel.obj
 0001:00052420       __close                    10053420 f   LIBCMTD:close.obj
 0001:00052660       __close_nolock             10053660 f   LIBCMTD:close.obj
 0001:00052740       __freebuf                  10053740 f   LIBCMTD:_freebuf.obj
 0001:000527d0       ___lock_fhandle            100537d0 f   LIBCMTD:osfinfo.obj
 0001:000528c0       __alloc_osfhnd             100538c0 f   LIBCMTD:osfinfo.obj
 0001:00052b60       __free_osfhnd              10053b60 f   LIBCMTD:osfinfo.obj
 0001:00052c50       __get_osfhandle            10053c50 f   LIBCMTD:osfinfo.obj
 0001:00052dd0       __open_osfhandle           10053dd0 f   LIBCMTD:osfinfo.obj
 0001:00053000       __set_osfhnd               10054000 f   LIBCMTD:osfinfo.obj
 0001:000530d0       __unlock_fhandle           100540d0 f   LIBCMTD:osfinfo.obj
 0001:00053100       __putwch                   10054100 f   LIBCMTD:putwch.obj
 0001:00053190       __putwch_nolock            10054190 f   LIBCMTD:putwch.obj
 0001:000535a0       __wcstol_l                 100545a0 f   LIBCMTD:wcstol.obj
 0001:000535c0       __wcstoul_l                100545c0 f   LIBCMTD:wcstol.obj
 0001:000535e0       _wcstol                    100545e0 f   LIBCMTD:wcstol.obj
 0001:00053600       _wcstoul                   10054600 f   LIBCMTD:wcstol.obj
 0001:00053620       __flswbuf                  10054620 f   LIBCMTD:_flswbuf.obj
 0001:00053e40       __strtof_l                 10054e40 f   LIBCMTD:strtoq.obj
 0001:00053e70       __strtoi64                 10054e70 f   LIBCMTD:strtoq.obj
 0001:00053ec0       __strtoi64_l               10054ec0 f   LIBCMTD:strtoq.obj
 0001:00053ee0       __strtoimax_l              10054ee0 f   LIBCMTD:strtoq.obj
 0001:00053f00       __strtold_l                10054f00 f   LIBCMTD:strtoq.obj
 0001:00053f20       __strtoll_l                10054f20 f   LIBCMTD:strtoq.obj
 0001:00053f40       __strtoui64                10054f40 f   LIBCMTD:strtoq.obj
 0001:00053f90       __strtoui64_l              10054f90 f   LIBCMTD:strtoq.obj
 0001:00053fb0       __strtoull_l               10054fb0 f   LIBCMTD:strtoq.obj
 0001:00053fd0       __strtoumax_l              10054fd0 f   LIBCMTD:strtoq.obj
 0001:00053ff0       _strtof                    10054ff0 f   LIBCMTD:strtoq.obj
 0001:00054020       _strtoimax                 10055020 f   LIBCMTD:strtoq.obj
 0001:00054040       _strtold                   10055040 f   LIBCMTD:strtoq.obj
 0001:00054060       _strtoll                   10055060 f   LIBCMTD:strtoq.obj
 0001:00054080       _strtoull                  10055080 f   LIBCMTD:strtoq.obj
 0001:000540a0       _strtoumax                 100550a0 f   LIBCMTD:strtoq.obj
 0001:000540c0       ___mtold12                 100550c0 f   LIBCMTD:mantold.obj
 0001:00054210       __wtoi                     10055210 f   LIBCMTD:wtox.obj
 0001:00054230       __wtoi64                   10055230 f   LIBCMTD:wtox.obj
 0001:00054250       __wtoi64_l                 10055250 f   LIBCMTD:wtox.obj
 0001:00054270       __wtoi_l                   10055270 f   LIBCMTD:wtox.obj
 0001:00054290       __wtol                     10055290 f   LIBCMTD:wtox.obj
 0001:000542b0       __wtol_l                   100552b0 f   LIBCMTD:wtox.obj
 0001:000542d0       __wtoll                    100552d0 f   LIBCMTD:wtox.obj
 0001:000542f0       __wtoll_l                  100552f0 f   LIBCMTD:wtox.obj
 0001:00054310       _wcschr                    10055310 f   LIBCMTD:wcschr.obj
 0001:00054490       __wcsicmp                  10055490 f   LIBCMTD:wcsicmp.obj
 0001:00054660       __wcsicmp_l                10055660 f   LIBCMTD:wcsicmp.obj
 0001:000548d0       __wcsnicmp                 100558d0 f   LIBCMTD:wcsnicmp.obj
 0001:00054ac0       __wcsnicmp_l               10055ac0 f   LIBCMTD:wcsnicmp.obj
 0001:00054d20       ___termconout              10055d20 f   LIBCMTD:initcon.obj
 0001:00054d50       ___initconout              10055d50 f   LIBCMTD:initcon.obj
 0001:00054d80       __wchartodigit             10055d80 f   LIBCMTD:wchtodig.obj
 0001:000550a0       __strtod_l                 100560a0 f   LIBCMTD:strtod.obj
 0001:000552b0       _strtod                    100562b0 f   LIBCMTD:strtod.obj
 0001:000552d0       __allmul                   100562d0 f   LIBCMTD:llmul.obj
 0001:00055860       __wcstof_l                 10056860 f   LIBCMTD:wcstoq.obj
 0001:00055970       __wcstoi64                 10056970 f   LIBCMTD:wcstoq.obj
 0001:000559c0       __wcstoi64_l               100569c0 f   LIBCMTD:wcstoq.obj
 0001:000559e0       __wcstoimax_l              100569e0 f   LIBCMTD:wcstoq.obj
 0001:00055a00       __wcstold_l                10056a00 f   LIBCMTD:wcstoq.obj
 0001:00055a20       __wcstoll_l                10056a20 f   LIBCMTD:wcstoq.obj
 0001:00055a40       __wcstoui64                10056a40 f   LIBCMTD:wcstoq.obj
 0001:00055a90       __wcstoui64_l              10056a90 f   LIBCMTD:wcstoq.obj
 0001:00055ab0       __wcstoull_l               10056ab0 f   LIBCMTD:wcstoq.obj
 0001:00055ad0       __wcstoumax_l              10056ad0 f   LIBCMTD:wcstoq.obj
 0001:00055af0       _wcstof                    10056af0 f   LIBCMTD:wcstoq.obj
 0001:00055b10       _wcstoimax                 10056b10 f   LIBCMTD:wcstoq.obj
 0001:00055b30       _wcstold                   10056b30 f   LIBCMTD:wcstoq.obj
 0001:00055b50       _wcstoll                   10056b50 f   LIBCMTD:wcstoq.obj
 0001:00055b70       _wcstoull                  10056b70 f   LIBCMTD:wcstoq.obj
 0001:00055b90       _wcstoumax                 10056b90 f   LIBCMTD:wcstoq.obj
 0001:00055bb0       __towlower_l               10056bb0 f   LIBCMTD:towlower.obj
 0001:00055d00       _towlower                  10056d00 f   LIBCMTD:towlower.obj
 0001:00055d20       __fltin2                   10056d20 f   LIBCMTD:cfin.obj
 0001:00055e00       __wcstod_l                 10056e00 f   LIBCMTD:wcstod.obj
 0001:00055fc0       _wcstod                    10056fc0 f   LIBCMTD:wcstod.obj
 0001:00055fe0       ___crtLCMapStringW         10056fe0 f   LIBCMTD:w_map.obj
 0001:00056020       __wfltin2                  10057020 f   LIBCMTD:wcfin.obj
 0001:00056100       ___WSTRINGTOLD_L           10057100 f   LIBCMTD:wstrgtold.obj
 0001:00056170       ___wstrgtold12_l           10057170 f   LIBCMTD:wstrgtold.obj
 0001:00056c68       _EnterCriticalSection@4    10057c68 f   kernel32:KERNEL32.dll
 0001:00056c6e       _LeaveCriticalSection@4    10057c6e f   kernel32:KERNEL32.dll
 0001:00056c74       _DeleteCriticalSection@4   10057c74 f   kernel32:KERNEL32.dll
 0001:00056c7a       _EncodePointer@4           10057c7a f   kernel32:KERNEL32.dll
 0001:00056c80       _DecodePointer@4           10057c80 f   kernel32:KERNEL32.dll
 0001:00056c86       _IsDebuggerPresent@0       10057c86 f   kernel32:KERNEL32.dll
 0001:00056c8c       _IsProcessorFeaturePresent@4 10057c8c f   kernel32:KERNEL32.dll
 0001:00056c92       _GetModuleFileNameW@12     10057c92 f   kernel32:KERNEL32.dll
 0001:00056c98       _GetModuleHandleExW@12     10057c98 f   kernel32:KERNEL32.dll
 0001:00056c9e       _RaiseException@16         10057c9e f   kernel32:KERNEL32.dll
 0001:00056ca4       _RtlUnwind@16              10057ca4 f   kernel32:KERNEL32.dll
 0001:00056caa       _GetCommandLineA@0         10057caa f   kernel32:KERNEL32.dll
 0001:00056cb0       _GetCurrentThreadId@0      10057cb0 f   kernel32:KERNEL32.dll
 0001:00056cb6       _FatalAppExitA@8           10057cb6 f   kernel32:KERNEL32.dll
 0001:00056cbc       _UnhandledExceptionFilter@4 10057cbc f   kernel32:KERNEL32.dll
 0001:00056cc2       _SetUnhandledExceptionFilter@4 10057cc2 f   kernel32:KERNEL32.dll
 0001:00056cc8       _SetLastError@4            10057cc8 f   kernel32:KERNEL32.dll
 0001:00056cce       _InitializeCriticalSectionAndSpinCount@8 10057cce f   kernel32:KERNEL32.dll
 0001:00056cd4       _CreateEventW@16           10057cd4 f   kernel32:KERNEL32.dll
 0001:00056cda       _Sleep@4                   10057cda f   kernel32:KERNEL32.dll
 0001:00056ce0       _GetCurrentProcess@0       10057ce0 f   kernel32:KERNEL32.dll
 0001:00056ce6       _TerminateProcess@8        10057ce6 f   kernel32:KERNEL32.dll
 0001:00056cec       _TlsAlloc@0                10057cec f   kernel32:KERNEL32.dll
 0001:00056cf2       _TlsGetValue@4             10057cf2 f   kernel32:KERNEL32.dll
 0001:00056cf8       _TlsSetValue@8             10057cf8 f   kernel32:KERNEL32.dll
 0001:00056cfe       _TlsFree@4                 10057cfe f   kernel32:KERNEL32.dll
 0001:00056d04       _GetStartupInfoW@4         10057d04 f   kernel32:KERNEL32.dll
 0001:00056d0a       _GetTickCount@0            10057d0a f   kernel32:KERNEL32.dll
 0001:00056d10       _GetModuleHandleW@4        10057d10 f   kernel32:KERNEL32.dll
 0001:00056d16       _GetProcAddress@8          10057d16 f   kernel32:KERNEL32.dll
 0001:00056d1c       _CreateSemaphoreW@16       10057d1c f   kernel32:KERNEL32.dll
 0001:00056d22       _HeapValidate@12           10057d22 f   kernel32:KERNEL32.dll
 0001:00056d28       _GetSystemInfo@4           10057d28 f   kernel32:KERNEL32.dll
 0001:00056d2e       _GetLastError@0            10057d2e f   kernel32:KERNEL32.dll
 0001:00056d34       _ExitProcess@4             10057d34 f   kernel32:KERNEL32.dll
 0001:00056d3a       _AreFileApisANSI@0         10057d3a f   kernel32:KERNEL32.dll
 0001:00056d40       _MultiByteToWideChar@24    10057d40 f   kernel32:KERNEL32.dll
 0001:00056d46       _WideCharToMultiByte@32    10057d46 f   kernel32:KERNEL32.dll
 0001:00056d4c       _SetConsoleCtrlHandler@8   10057d4c f   kernel32:KERNEL32.dll
 0001:00056d52       _OutputDebugStringW@4      10057d52 f   kernel32:KERNEL32.dll
 0001:00056d58       _WaitForSingleObjectEx@12  10057d58 f   kernel32:KERNEL32.dll
 0001:00056d5e       _CreateThread@24           10057d5e f   kernel32:KERNEL32.dll
 0001:00056d64       _LoadLibraryExW@12         10057d64 f   kernel32:KERNEL32.dll
 0001:00056d6a       _GetStdHandle@4            10057d6a f   kernel32:KERNEL32.dll
 0001:00056d70       _GetFileType@4             10057d70 f   kernel32:KERNEL32.dll
 0001:00056d76       _WriteFile@20              10057d76 f   kernel32:KERNEL32.dll
 0001:00056d7c       _OutputDebugStringA@4      10057d7c f   kernel32:KERNEL32.dll
 0001:00056d82       _WriteConsoleW@20          10057d82 f   kernel32:KERNEL32.dll
 0001:00056d88       _GetCurrentThread@0        10057d88 f   kernel32:KERNEL32.dll
 0001:00056d8e       _QueryPerformanceCounter@4 10057d8e f   kernel32:KERNEL32.dll
 0001:00056d94       _GetCurrentProcessId@0     10057d94 f   kernel32:KERNEL32.dll
 0001:00056d9a       _GetSystemTimeAsFileTime@4 10057d9a f   kernel32:KERNEL32.dll
 0001:00056da0       _GetEnvironmentStringsW@0  10057da0 f   kernel32:KERNEL32.dll
 0001:00056da6       _FreeEnvironmentStringsW@4 10057da6 f   kernel32:KERNEL32.dll
 0001:00056dac       _IsValidCodePage@4         10057dac f   kernel32:KERNEL32.dll
 0001:00056db2       _GetACP@0                  10057db2 f   kernel32:KERNEL32.dll
 0001:00056db8       _GetOEMCP@0                10057db8 f   kernel32:KERNEL32.dll
 0001:00056dbe       _GetCPInfo@8               10057dbe f   kernel32:KERNEL32.dll
 0001:00056dc4       _HeapReAlloc@16            10057dc4 f   kernel32:KERNEL32.dll
 0001:00056dca       _HeapSize@12               10057dca f   kernel32:KERNEL32.dll
 0001:00056dd0       _HeapQueryInformation@20   10057dd0 f   kernel32:KERNEL32.dll
 0001:00056dd6       _FreeLibrary@4             10057dd6 f   kernel32:KERNEL32.dll
 0001:00056ddc       _GetDateFormatW@24         10057ddc f   kernel32:KERNEL32.dll
 0001:00056de2       _GetTimeFormatW@24         10057de2 f   kernel32:KERNEL32.dll
 0001:00056de8       _CompareStringW@24         10057de8 f   kernel32:KERNEL32.dll
 0001:00056dee       _LCMapStringW@24           10057dee f   kernel32:KERNEL32.dll
 0001:00056df4       _GetLocaleInfoW@16         10057df4 f   kernel32:KERNEL32.dll
 0001:00056dfa       _IsValidLocale@8           10057dfa f   kernel32:KERNEL32.dll
 0001:00056e00       _GetUserDefaultLCID@0      10057e00 f   kernel32:KERNEL32.dll
 0001:00056e06       _EnumSystemLocalesW@8      10057e06 f   kernel32:KERNEL32.dll
 0001:00056e0c       _GetStringTypeW@16         10057e0c f   kernel32:KERNEL32.dll
 0001:00056e12       _FlushFileBuffers@4        10057e12 f   kernel32:KERNEL32.dll
 0001:00056e18       _GetConsoleCP@0            10057e18 f   kernel32:KERNEL32.dll
 0001:00056e1e       _GetConsoleMode@8          10057e1e f   kernel32:KERNEL32.dll
 0001:00056e24       _SetFilePointerEx@20       10057e24 f   kernel32:KERNEL32.dll
 0001:00056e2a       _CloseHandle@4             10057e2a f   kernel32:KERNEL32.dll
 0001:00056e30       _SetStdHandle@8            10057e30 f   kernel32:KERNEL32.dll
 0001:00056e36       _CreateFileW@28            10057e36 f   kernel32:KERNEL32.dll
 0002:00000000       __imp__GetAdaptersInfo@8   10059000     IPHLPAPI:IPHLPAPI.DLL
 0002:00000004       \177IPHLPAPI_NULL_THUNK_DATA 10059004     IPHLPAPI:IPHLPAPI.DLL
 0002:00000008       __imp__GetModuleFileNameA@12 10059008     kernel32:KERNEL32.dll
 0002:0000000c       __imp__GetProcessHeap@0    1005900c     kernel32:KERNEL32.dll
 0002:00000010       __imp__HeapFree@12         10059010     kernel32:KERNEL32.dll
 0002:00000014       __imp__HeapAlloc@12        10059014     kernel32:KERNEL32.dll
 0002:00000018       __imp__EnterCriticalSection@4 10059018     kernel32:KERNEL32.dll
 0002:0000001c       __imp__LeaveCriticalSection@4 1005901c     kernel32:KERNEL32.dll
 0002:00000020       __imp__DeleteCriticalSection@4 10059020     kernel32:KERNEL32.dll
 0002:00000024       __imp__EncodePointer@4     10059024     kernel32:KERNEL32.dll
 0002:00000028       __imp__DecodePointer@4     10059028     kernel32:KERNEL32.dll
 0002:0000002c       __imp__IsDebuggerPresent@0 1005902c     kernel32:KERNEL32.dll
 0002:00000030       __imp__IsProcessorFeaturePresent@4 10059030     kernel32:KERNEL32.dll
 0002:00000034       __imp__GetModuleFileNameW@12 10059034     kernel32:KERNEL32.dll
 0002:00000038       __imp__GetModuleHandleExW@12 10059038     kernel32:KERNEL32.dll
 0002:0000003c       __imp__RaiseException@16   1005903c     kernel32:KERNEL32.dll
 0002:00000040       __imp__RtlUnwind@16        10059040     kernel32:KERNEL32.dll
 0002:00000044       __imp__GetCommandLineA@0   10059044     kernel32:KERNEL32.dll
 0002:00000048       __imp__GetCurrentThreadId@0 10059048     kernel32:KERNEL32.dll
 0002:0000004c       __imp__FatalAppExitA@8     1005904c     kernel32:KERNEL32.dll
 0002:00000050       __imp__UnhandledExceptionFilter@4 10059050     kernel32:KERNEL32.dll
 0002:00000054       __imp__SetUnhandledExceptionFilter@4 10059054     kernel32:KERNEL32.dll
 0002:00000058       __imp__SetLastError@4      10059058     kernel32:KERNEL32.dll
 0002:0000005c       __imp__InitializeCriticalSectionAndSpinCount@8 1005905c     kernel32:KERNEL32.dll
 0002:00000060       __imp__CreateEventW@16     10059060     kernel32:KERNEL32.dll
 0002:00000064       __imp__Sleep@4             10059064     kernel32:KERNEL32.dll
 0002:00000068       __imp__GetCurrentProcess@0 10059068     kernel32:KERNEL32.dll
 0002:0000006c       __imp__TerminateProcess@8  1005906c     kernel32:KERNEL32.dll
 0002:00000070       __imp__TlsAlloc@0          10059070     kernel32:KERNEL32.dll
 0002:00000074       __imp__TlsGetValue@4       10059074     kernel32:KERNEL32.dll
 0002:00000078       __imp__TlsSetValue@8       10059078     kernel32:KERNEL32.dll
 0002:0000007c       __imp__TlsFree@4           1005907c     kernel32:KERNEL32.dll
 0002:00000080       __imp__GetStartupInfoW@4   10059080     kernel32:KERNEL32.dll
 0002:00000084       __imp__GetTickCount@0      10059084     kernel32:KERNEL32.dll
 0002:00000088       __imp__GetModuleHandleW@4  10059088     kernel32:KERNEL32.dll
 0002:0000008c       __imp__GetProcAddress@8    1005908c     kernel32:KERNEL32.dll
 0002:00000090       __imp__CreateSemaphoreW@16 10059090     kernel32:KERNEL32.dll
 0002:00000094       __imp__HeapValidate@12     10059094     kernel32:KERNEL32.dll
 0002:00000098       __imp__GetSystemInfo@4     10059098     kernel32:KERNEL32.dll
 0002:0000009c       __imp__GetLastError@0      1005909c     kernel32:KERNEL32.dll
 0002:000000a0       __imp__ExitProcess@4       100590a0     kernel32:KERNEL32.dll
 0002:000000a4       __imp__AreFileApisANSI@0   100590a4     kernel32:KERNEL32.dll
 0002:000000a8       __imp__MultiByteToWideChar@24 100590a8     kernel32:KERNEL32.dll
 0002:000000ac       __imp__WideCharToMultiByte@32 100590ac     kernel32:KERNEL32.dll
 0002:000000b0       __imp__SetConsoleCtrlHandler@8 100590b0     kernel32:KERNEL32.dll
 0002:000000b4       __imp__OutputDebugStringW@4 100590b4     kernel32:KERNEL32.dll
 0002:000000b8       __imp__WaitForSingleObjectEx@12 100590b8     kernel32:KERNEL32.dll
 0002:000000bc       __imp__CreateThread@24     100590bc     kernel32:KERNEL32.dll
 0002:000000c0       __imp__LoadLibraryExW@12   100590c0     kernel32:KERNEL32.dll
 0002:000000c4       __imp__GetStdHandle@4      100590c4     kernel32:KERNEL32.dll
 0002:000000c8       __imp__GetFileType@4       100590c8     kernel32:KERNEL32.dll
 0002:000000cc       __imp__WriteFile@20        100590cc     kernel32:KERNEL32.dll
 0002:000000d0       __imp__OutputDebugStringA@4 100590d0     kernel32:KERNEL32.dll
 0002:000000d4       __imp__WriteConsoleW@20    100590d4     kernel32:KERNEL32.dll
 0002:000000d8       __imp__GetCurrentThread@0  100590d8     kernel32:KERNEL32.dll
 0002:000000dc       __imp__QueryPerformanceCounter@4 100590dc     kernel32:KERNEL32.dll
 0002:000000e0       __imp__GetCurrentProcessId@0 100590e0     kernel32:KERNEL32.dll
 0002:000000e4       __imp__GetSystemTimeAsFileTime@4 100590e4     kernel32:KERNEL32.dll
 0002:000000e8       __imp__GetEnvironmentStringsW@0 100590e8     kernel32:KERNEL32.dll
 0002:000000ec       __imp__FreeEnvironmentStringsW@4 100590ec     kernel32:KERNEL32.dll
 0002:000000f0       __imp__IsValidCodePage@4   100590f0     kernel32:KERNEL32.dll
 0002:000000f4       __imp__GetACP@0            100590f4     kernel32:KERNEL32.dll
 0002:000000f8       __imp__GetOEMCP@0          100590f8     kernel32:KERNEL32.dll
 0002:000000fc       __imp__GetCPInfo@8         100590fc     kernel32:KERNEL32.dll
 0002:00000100       __imp__HeapReAlloc@16      10059100     kernel32:KERNEL32.dll
 0002:00000104       __imp__HeapSize@12         10059104     kernel32:KERNEL32.dll
 0002:00000108       __imp__HeapQueryInformation@20 10059108     kernel32:KERNEL32.dll
 0002:0000010c       __imp__FreeLibrary@4       1005910c     kernel32:KERNEL32.dll
 0002:00000110       __imp__GetDateFormatW@24   10059110     kernel32:KERNEL32.dll
 0002:00000114       __imp__GetTimeFormatW@24   10059114     kernel32:KERNEL32.dll
 0002:00000118       __imp__CompareStringW@24   10059118     kernel32:KERNEL32.dll
 0002:0000011c       __imp__LCMapStringW@24     1005911c     kernel32:KERNEL32.dll
 0002:00000120       __imp__GetLocaleInfoW@16   10059120     kernel32:KERNEL32.dll
 0002:00000124       __imp__IsValidLocale@8     10059124     kernel32:KERNEL32.dll
 0002:00000128       __imp__GetUserDefaultLCID@0 10059128     kernel32:KERNEL32.dll
 0002:0000012c       __imp__EnumSystemLocalesW@8 1005912c     kernel32:KERNEL32.dll
 0002:00000130       __imp__GetStringTypeW@16   10059130     kernel32:KERNEL32.dll
 0002:00000134       __imp__FlushFileBuffers@4  10059134     kernel32:KERNEL32.dll
 0002:00000138       __imp__GetConsoleCP@0      10059138     kernel32:KERNEL32.dll
 0002:0000013c       __imp__GetConsoleMode@8    1005913c     kernel32:KERNEL32.dll
 0002:00000140       __imp__SetFilePointerEx@20 10059140     kernel32:KERNEL32.dll
 0002:00000144       __imp__CloseHandle@4       10059144     kernel32:KERNEL32.dll
 0002:00000148       __imp__SetStdHandle@8      10059148     kernel32:KERNEL32.dll
 0002:0000014c       __imp__CreateFileW@28      1005914c     kernel32:KERNEL32.dll
 0002:00000150       \177KERNEL32_NULL_THUNK_DATA 10059150     kernel32:KERNEL32.dll
 0002:00000154       ___xc_a                    10059154     LIBCMTD:crt0init.obj
 0002:000001a8       ___xc_z                    100591a8     LIBCMTD:crt0init.obj
 0002:000001ac       ___xi_a                    100591ac     LIBCMTD:crt0init.obj
 0002:000001c0       ___xi_z                    100591c0     LIBCMTD:crt0init.obj
 0002:000001c4       ___xp_a                    100591c4     LIBCMTD:crt0init.obj
 0002:000001d4       ___xp_z                    100591d4     LIBCMTD:crt0init.obj
 0002:000001d8       ___xt_a                    100591d8     LIBCMTD:crt0init.obj
 0002:000001dc       ___xt_z                    100591dc     LIBCMTD:crt0init.obj
 0002:00000500       ??_C@_1JA@EADLBAJ@?$AAC?$AA?3?$AA?2?$AAP?$AAr?$AAo?$AAg?$AAr?$AAa?$AAm?$AA?5?$AAF?$AAi?$AAl?$AAe?$AAs?$AA?5?$AA?$CI?$AAx?$AA8?$AA6?$AA?$CJ?$AA?2?$AAM?$AAi?$AAc?$AAr?$AAo?$AAs?$AAo?$AAf?$AAt@ 10059500     capldll.obj
 0002:00000590       ??_C@_1DC@POOIKBAO@?$AAI?$AAT?$AAE?$AAR?$AAA?$AAT?$AAO?$AAR?$AA?5?$AAL?$AAI?$AAS?$AAT?$AA?5?$AAC?$AAO?$AAR?$AAR?$AAU?$AAP?$AAT?$AAE?$AAD?$AA?$CB?$AA?$AA@ 10059590     capldll.obj
 0002:000005c8       ??_C@_1IK@GEHGEPIJ@?$AAC?$AA?3?$AA?2?$AAP?$AAr?$AAo?$AAg?$AAr?$AAa?$AAm?$AA?5?$AAF?$AAi?$AAl?$AAe?$AAs?$AA?5?$AA?$CI?$AAx?$AA8?$AA6?$AA?$CJ?$AA?2?$AAM?$AAi?$AAc?$AAr?$AAo?$AAs?$AAo?$AAf?$AAt@ 100595c8     capldll.obj
 0002:00000654       ??_C@_1DO@CFEEPGGJ@?$AAm?$AAa?$AAp?$AA?1?$AAs?$AAe?$AAt?$AA?5?$AAi?$AAt?$AAe?$AAr?$AAa?$AAt?$AAo?$AAr?$AAs?$AA?5?$AAi?$AAn?$AAc?$AAo?$AAm?$AAp?$AAa?$AAt?$AAi?$AAb?$AAl?$AAe?$AA?$AA@ 10059654     capldll.obj
 0002:00000694       ??_C@_0CI@FNPHFCCM@Standard?5C?$CL?$CL?5Libraries?5Invalid?5A@ 10059694     capldll.obj
 0002:000006c0       ??_C@_1FO@GJIHNDLM@?$AA?$CC?$AAS?$AAt?$AAa?$AAn?$AAd?$AAa?$AAr?$AAd?$AA?5?$AAC?$AA?$CL?$AA?$CL?$AA?5?$AAL?$AAi?$AAb?$AAr?$AAa?$AAr?$AAi?$AAe?$AAs?$AA?5?$AAI?$AAn?$AAv?$AAa?$AAl?$AAi?$AAd?$AA?5@ 100596c0     capldll.obj
 0002:00000720       ??_C@_15GANGMFKL@?$AA?$CF?$AAs?$AA?$AA@ 10059720     capldll.obj
 0002:00000728       ??_C@_1BEC@DAJBNAHH@?$AAs?$AAt?$AAd?$AA?3?$AA?3?$AA_?$AAT?$AAr?$AAe?$AAe?$AA_?$AAc?$AAo?$AAn?$AAs?$AAt?$AA_?$AAi?$AAt?$AAe?$AAr?$AAa?$AAt?$AAo?$AAr?$AA?$DM?$AAc?$AAl?$AAa?$AAs?$AAs?$AA?5@ 10059728     capldll.obj
 0002:0000086c       ??_C@_1CG@JNLFBNGN@?$AA?$CC?$AAi?$AAn?$AAv?$AAa?$AAl?$AAi?$AAd?$AA?5?$AAa?$AAr?$AAg?$AAu?$AAm?$AAe?$AAn?$AAt?$AA?$CC?$AA?$AA@ 1005986c     capldll.obj
 0002:00000898       ??_C@_1EI@FHEHNNNM@?$AAm?$AAa?$AAp?$AA?1?$AAs?$AAe?$AAt?$AA?5?$AAi?$AAt?$AAe?$AAr?$AAa?$AAt?$AAo?$AAr?$AA?5?$AAn?$AAo?$AAt?$AA?5?$AAd?$AAe?$AAr?$AAe?$AAf?$AAe?$AAr?$AAe?$AAn?$AAc?$AAa@ 10059898     capldll.obj
 0002:000008e0       ??_C@_0CE@OFMIGAMM@Standard?5C?$CL?$CL?5Libraries?5Out?5of?5Ra@ 100598e0     capldll.obj
 0002:00000908       ??_C@_1FG@IBPIFFN@?$AA?$CC?$AAS?$AAt?$AAa?$AAn?$AAd?$AAa?$AAr?$AAd?$AA?5?$AAC?$AA?$CL?$AA?$CL?$AA?5?$AAL?$AAi?$AAb?$AAr?$AAa?$AAr?$AAi?$AAe?$AAs?$AA?5?$AAO?$AAu?$AAt?$AA?5?$AAo?$AAf?$AA?5?$AAR@ 10059908     capldll.obj
 0002:00000960       ??_C@_1BEA@DMBLGOGL@?$AAs?$AAt?$AAd?$AA?3?$AA?3?$AA_?$AAT?$AAr?$AAe?$AAe?$AA_?$AAc?$AAo?$AAn?$AAs?$AAt?$AA_?$AAi?$AAt?$AAe?$AAr?$AAa?$AAt?$AAo?$AAr?$AA?$DM?$AAc?$AAl?$AAa?$AAs?$AAs?$AA?5@ 10059960     capldll.obj
 0002:00000aa0       ??_C@_1BO@MEPPHOO@?$AA?$CC?$AAo?$AAu?$AAt?$AA?5?$AAo?$AAf?$AA?5?$AAr?$AAa?$AAn?$AAg?$AAe?$AA?$CC?$AA?$AA@ 10059aa0     capldll.obj
 0002:00000ac0       ??_C@_1BDA@BMFHJLPO@?$AAs?$AAt?$AAd?$AA?3?$AA?3?$AA_?$AAT?$AAr?$AAe?$AAe?$AA_?$AAc?$AAo?$AAn?$AAs?$AAt?$AA_?$AAi?$AAt?$AAe?$AAr?$AAa?$AAt?$AAo?$AAr?$AA?$DM?$AAc?$AAl?$AAa?$AAs?$AAs?$AA?5@ 10059ac0     capldll.obj
 0002:00000bf0       ??_C@_1EK@PPDBPCAN@?$AAm?$AAa?$AAp?$AA?1?$AAs?$AAe?$AAt?$AA?5?$AAe?$AAr?$AAa?$AAs?$AAe?$AA?5?$AAi?$AAt?$AAe?$AAr?$AAa?$AAt?$AAo?$AAr?$AA?5?$AAo?$AAu?$AAt?$AAs?$AAi?$AAd?$AAe?$AA?5?$AAr@ 10059bf0     capldll.obj
 0002:00000c40       ??_C@_1BCO@DDJKLOLI@?$AAs?$AAt?$AAd?$AA?3?$AA?3?$AA_?$AAT?$AAr?$AAe?$AAe?$AA_?$AAc?$AAo?$AAn?$AAs?$AAt?$AA_?$AAi?$AAt?$AAe?$AAr?$AAa?$AAt?$AAo?$AAr?$AA?$DM?$AAc?$AAl?$AAa?$AAs?$AAs?$AA?5@ 10059c40     capldll.obj
 0002:00000d70       ??_C@_1EG@EHJFMBHJ@?$AAm?$AAa?$AAp?$AA?1?$AAs?$AAe?$AAt?$AA?5?$AAi?$AAt?$AAe?$AAr?$AAa?$AAt?$AAo?$AAr?$AA?5?$AAn?$AAo?$AAt?$AA?5?$AAi?$AAn?$AAc?$AAr?$AAe?$AAm?$AAe?$AAn?$AAt?$AAa?$AAb@ 10059d70     capldll.obj
 0002:00000db8       ??_C@_1BEC@JAGMDJLC@?$AAs?$AAt?$AAd?$AA?3?$AA?3?$AA_?$AAT?$AAr?$AAe?$AAe?$AA_?$AAc?$AAo?$AAn?$AAs?$AAt?$AA_?$AAi?$AAt?$AAe?$AAr?$AAa?$AAt?$AAo?$AAr?$AA?$DM?$AAc?$AAl?$AAa?$AAs?$AAs?$AA?5@ 10059db8     capldll.obj
 0002:00000f00       ??_C@_1BDA@LMKKHCDL@?$AAs?$AAt?$AAd?$AA?3?$AA?3?$AA_?$AAT?$AAr?$AAe?$AAe?$AA_?$AAc?$AAo?$AAn?$AAs?$AAt?$AA_?$AAi?$AAt?$AAe?$AAr?$AAa?$AAt?$AAo?$AAr?$AA?$DM?$AAc?$AAl?$AAa?$AAs?$AAs?$AA?5@ 10059f00     capldll.obj
 0002:00001030       ??_C@_1CE@IGJMOCCK@?$AAi?$AAn?$AAv?$AAa?$AAl?$AAi?$AAd?$AA?5?$AAo?$AAp?$AAe?$AAr?$AAa?$AAt?$AAo?$AAr?$AA?$DM?$AA?$AA@ 1005a030     capldll.obj
 0002:00001058       ??_C@_1EM@MHOKKPFH@?$AAm?$AAa?$AAp?$AA?1?$AAs?$AAe?$AAt?$AA?5?$AAi?$AAn?$AAs?$AAe?$AAr?$AAt?$AA?5?$AAi?$AAt?$AAe?$AAr?$AAa?$AAt?$AAo?$AAr?$AA?5?$AAo?$AAu?$AAt?$AAs?$AAi?$AAd?$AAe?$AA?5@ 1005a058     capldll.obj
 0002:000010a8       ??_C@_1EG@OKCGOALM@?$AAm?$AAa?$AAp?$AA?1?$AAs?$AAe?$AAt?$AA?5?$AAi?$AAt?$AAe?$AAr?$AAa?$AAt?$AAo?$AAr?$AA?5?$AAn?$AAo?$AAt?$AA?5?$AAd?$AAe?$AAc?$AAr?$AAe?$AAm?$AAe?$AAn?$AAt?$AAa?$AAb@ 1005a0a8     capldll.obj
 0002:000010f0       ??_C@_1BEC@GDFOIFHD@?$AAs?$AAt?$AAd?$AA?3?$AA?3?$AA_?$AAT?$AAr?$AAe?$AAe?$AA_?$AAc?$AAo?$AAn?$AAs?$AAt?$AA_?$AAi?$AAt?$AAe?$AAr?$AAa?$AAt?$AAo?$AAr?$AA?$DM?$AAc?$AAl?$AAa?$AAs?$AAs?$AA?5@ 1005a0f0     capldll.obj
 0002:00001238       ??_C@_1BDA@EPJIMOPK@?$AAs?$AAt?$AAd?$AA?3?$AA?3?$AA_?$AAT?$AAr?$AAe?$AAe?$AA_?$AAc?$AAo?$AAn?$AAs?$AAt?$AA_?$AAi?$AAt?$AAe?$AAr?$AAa?$AAt?$AAo?$AAr?$AA?$DM?$AAc?$AAl?$AAa?$AAs?$AAs?$AA?5@ 1005a238     capldll.obj
 0002:00001368       ??_C@_0BE@JONHPENG@map?1set?$DMT?$DO?5too?5long?$AA@ 1005a368     capldll.obj
 0002:0000137c       ?value@?$integral_constant@_N$0A@@std@@2_NB 1005a37c     libcpmtd:stdthrow.obj
 0002:0000137d       ?value@?$integral_constant@_N$00@std@@2_NB 1005a37d     libcpmtd:stdthrow.obj
 0002:0000137e       ?has_quiet_NaN@_Num_float_base@std@@2_NB 1005a37e     libcpmtd:xthrow.obj
 0002:0000137f       ?has_signaling_NaN@_Num_float_base@std@@2_NB 1005a37f     libcpmtd:xthrow.obj
 0002:00001380       ?is_bounded@_Num_float_base@std@@2_NB 1005a380     libcpmtd:xthrow.obj
 0002:00001381       ?is_exact@_Num_float_base@std@@2_NB 1005a381     libcpmtd:xthrow.obj
 0002:00001382       ?is_iec559@_Num_float_base@std@@2_NB 1005a382     libcpmtd:xthrow.obj
 0002:00001383       ?is_integer@_Num_float_base@std@@2_NB 1005a383     libcpmtd:xthrow.obj
 0002:00001384       ?is_modulo@_Num_float_base@std@@2_NB 1005a384     libcpmtd:xthrow.obj
 0002:00001385       ?is_signed@_Num_float_base@std@@2_NB 1005a385     libcpmtd:xthrow.obj
 0002:00001386       ?is_specialized@_Num_float_base@std@@2_NB 1005a386     libcpmtd:xthrow.obj
 0002:00001387       ?tinyness_before@_Num_float_base@std@@2_NB 1005a387     libcpmtd:xthrow.obj
 0002:00001388       ?traps@_Num_float_base@std@@2_NB 1005a388     libcpmtd:xthrow.obj
 0002:0000138c       ?round_style@_Num_float_base@std@@2W4float_round_style@2@B 1005a38c     libcpmtd:xthrow.obj
 0002:00001390       ?radix@_Num_float_base@std@@2HB 1005a390     libcpmtd:xthrow.obj
 0002:00001394       ?value@?$integral_constant@I$01@std@@2IB 1005a394     libcpmtd:xthrow.obj
 0002:00001398       ?is_signed@?$numeric_limits@D@std@@2_NB 1005a398     libcpmtd:xthrow.obj
 0002:0000139c       ?digits@?$numeric_limits@D@std@@2HB 1005a39c     libcpmtd:xthrow.obj
 0002:000013a0       ?digits10@?$numeric_limits@D@std@@2HB 1005a3a0     libcpmtd:xthrow.obj
 0002:000013a4       ?is_signed@?$numeric_limits@_W@std@@2_NB 1005a3a4     libcpmtd:xthrow.obj
 0002:000013a8       ?digits@?$numeric_limits@_W@std@@2HB 1005a3a8     libcpmtd:xthrow.obj
 0002:000013ac       ?table_size@?$ctype@D@std@@2IB 1005a3ac     libcpmtd:xthrow.obj
 0002:000013b0       ?value@?$integral_constant@I$00@std@@2IB 1005a3b0     libcpmtd:xthrow.obj
 0002:000013b4       ?digits10@?$numeric_limits@_W@std@@2HB 1005a3b4     libcpmtd:xthrow.obj
 0002:000013b8       ?value@?$_Maximum@$S@std@@2IB 1005a3b8     libcpmtd:xthrow.obj
 0002:000013bc       ?is_modulo@?$numeric_limits@_N@std@@2_NB 1005a3bc     libcpmtd:xthrow.obj
 0002:000013bd       ?is_signed@?$numeric_limits@_N@std@@2_NB 1005a3bd     libcpmtd:xthrow.obj
 0002:000013c0       ?digits@?$numeric_limits@_N@std@@2HB 1005a3c0     libcpmtd:xthrow.obj
 0002:000013c4       ?digits10@?$numeric_limits@_N@std@@2HB 1005a3c4     libcpmtd:xthrow.obj
 0002:000013c8       ?value@?$integral_constant@I$0A@@std@@2IB 1005a3c8     libcpmtd:xthrow.obj
 0002:000013cc       ?is_signed@?$numeric_limits@C@std@@2_NB 1005a3cc     libcpmtd:xthrow.obj
 0002:000013d0       ?digits@?$numeric_limits@C@std@@2HB 1005a3d0     libcpmtd:xthrow.obj
 0002:000013d4       ?digits10@?$numeric_limits@C@std@@2HB 1005a3d4     libcpmtd:xthrow.obj
 0002:000013d8       ?is_signed@?$numeric_limits@E@std@@2_NB 1005a3d8     libcpmtd:xthrow.obj
 0002:000013dc       ?digits@?$numeric_limits@E@std@@2HB 1005a3dc     libcpmtd:xthrow.obj
 0002:000013e0       ?digits10@?$numeric_limits@E@std@@2HB 1005a3e0     libcpmtd:xthrow.obj
 0002:000013e4       ?is_signed@?$numeric_limits@F@std@@2_NB 1005a3e4     libcpmtd:xthrow.obj
 0002:000013e8       ?digits@?$numeric_limits@F@std@@2HB 1005a3e8     libcpmtd:xthrow.obj
 0002:000013ec       ?digits10@?$numeric_limits@F@std@@2HB 1005a3ec     libcpmtd:xthrow.obj
 0002:000013f0       ?is_signed@?$numeric_limits@G@std@@2_NB 1005a3f0     libcpmtd:xthrow.obj
 0002:000013f4       ?digits@?$numeric_limits@G@std@@2HB 1005a3f4     libcpmtd:xthrow.obj
 0002:000013f8       ?digits10@?$numeric_limits@G@std@@2HB 1005a3f8     libcpmtd:xthrow.obj
 0002:000013fc       ?is_signed@?$numeric_limits@H@std@@2_NB 1005a3fc     libcpmtd:xthrow.obj
 0002:00001400       ?digits@?$numeric_limits@H@std@@2HB 1005a400     libcpmtd:xthrow.obj
 0002:00001404       ?digits10@?$numeric_limits@H@std@@2HB 1005a404     libcpmtd:xthrow.obj
 0002:00001408       ?is_signed@?$numeric_limits@I@std@@2_NB 1005a408     libcpmtd:xthrow.obj
 0002:0000140c       ?digits@?$numeric_limits@I@std@@2HB 1005a40c     libcpmtd:xthrow.obj
 0002:00001410       ?digits10@?$numeric_limits@I@std@@2HB 1005a410     libcpmtd:xthrow.obj
 0002:00001414       ?is_signed@?$numeric_limits@J@std@@2_NB 1005a414     libcpmtd:xthrow.obj
 0002:00001418       ?digits@?$numeric_limits@J@std@@2HB 1005a418     libcpmtd:xthrow.obj
 0002:0000141c       ?digits10@?$numeric_limits@J@std@@2HB 1005a41c     libcpmtd:xthrow.obj
 0002:00001420       ?_Names@?$_Regex_traits@D@std@@0QBU?$_Cl_names@D@2@B 1005a420     libcpmtd:xthrow.obj
 0002:000014e0       ?is_signed@?$numeric_limits@K@std@@2_NB 1005a4e0     libcpmtd:xthrow.obj
 0002:000014e4       ?digits@?$numeric_limits@K@std@@2HB 1005a4e4     libcpmtd:xthrow.obj
 0002:000014e8       ?digits10@?$numeric_limits@K@std@@2HB 1005a4e8     libcpmtd:xthrow.obj
 0002:000014ec       ??_C@_05IIMHCHIO@alnum?$AA@ 1005a4ec     libcpmtd:xthrow.obj
 0002:000014f4       ??_C@_05IAEKHIAN@alpha?$AA@ 1005a4f4     libcpmtd:xthrow.obj
 0002:000014fc       ??_C@_05BABJKOGB@blank?$AA@ 1005a4fc     libcpmtd:xthrow.obj
 0002:00001504       ??_C@_05JMDPEFNK@cntrl?$AA@ 1005a504     libcpmtd:xthrow.obj
 0002:0000150c       ??_C@_01LPLHEDKD@d?$AA@    1005a50c     libcpmtd:xthrow.obj
 0002:00001510       ??_C@_05ODNOIFML@digit?$AA@ 1005a510     libcpmtd:xthrow.obj
 0002:00001518       ??_C@_05KCJBMLII@graph?$AA@ 1005a518     libcpmtd:xthrow.obj
 0002:00001520       ??_C@_05IPJEPLHL@lower?$AA@ 1005a520     libcpmtd:xthrow.obj
 0002:00001528       ??_C@_05IJDJACGD@print?$AA@ 1005a528     libcpmtd:xthrow.obj
 0002:00001530       ??_C@_05KOBGHFJJ@punct?$AA@ 1005a530     libcpmtd:xthrow.obj
 0002:00001538       ??_C@_05OLNILLAB@space?$AA@ 1005a538     libcpmtd:xthrow.obj
 0002:0000153e       ?is_signed@?$numeric_limits@_J@std@@2_NB 1005a53e     libcpmtd:xthrow.obj
 0002:00001540       ??_C@_01LKDEMHDF@s?$AA@    1005a540     libcpmtd:xthrow.obj
 0002:00001544       ??_C@_05NECKJAMC@upper?$AA@ 1005a544     libcpmtd:xthrow.obj
 0002:0000154c       ??_C@_01NOFIACDB@w?$AA@    1005a54c     libcpmtd:xthrow.obj
 0002:00001550       ??_C@_06BAPHGFFK@xdigit?$AA@ 1005a550     libcpmtd:xthrow.obj
 0002:00001558       ?digits@?$numeric_limits@_J@std@@2HB 1005a558     libcpmtd:xthrow.obj
 0002:0000155c       ?digits10@?$numeric_limits@_J@std@@2HB 1005a55c     libcpmtd:xthrow.obj
 0002:00001560       ?is_signed@?$numeric_limits@_K@std@@2_NB 1005a560     libcpmtd:xthrow.obj
 0002:00001564       ?digits@?$numeric_limits@_K@std@@2HB 1005a564     libcpmtd:xthrow.obj
 0002:00001568       ?digits10@?$numeric_limits@_K@std@@2HB 1005a568     libcpmtd:xthrow.obj
 0002:00001570       ?_Names@?$_Regex_traits@_W@std@@0QBU?$_Cl_names@_W@2@B 1005a570     libcpmtd:xthrow.obj
 0002:00001630       ?digits@?$numeric_limits@M@std@@2HB 1005a630     libcpmtd:xthrow.obj
 0002:00001634       ?digits10@?$numeric_limits@M@std@@2HB 1005a634     libcpmtd:xthrow.obj
 0002:00001638       ?max_digits10@?$numeric_limits@M@std@@2HB 1005a638     libcpmtd:xthrow.obj
 0002:0000163c       ?max_exponent@?$numeric_limits@M@std@@2HB 1005a63c     libcpmtd:xthrow.obj
 0002:00001640       ?max_exponent10@?$numeric_limits@M@std@@2HB 1005a640     libcpmtd:xthrow.obj
 0002:00001644       ?min_exponent@?$numeric_limits@M@std@@2HB 1005a644     libcpmtd:xthrow.obj
 0002:00001648       ??_C@_1M@KLMEPMCM@?$AAa?$AAl?$AAn?$AAu?$AAm?$AA?$AA@ 1005a648     libcpmtd:xthrow.obj
 0002:00001654       ??_C@_1M@DHGLHBMI@?$AAa?$AAl?$AAp?$AAh?$AAa?$AA?$AA@ 1005a654     libcpmtd:xthrow.obj
 0002:00001660       ?min_exponent10@?$numeric_limits@M@std@@2HB 1005a660     libcpmtd:xthrow.obj
 0002:00001664       ??_C@_1M@EJAAJBPE@?$AAb?$AAl?$AAa?$AAn?$AAk?$AA?$AA@ 1005a664     libcpmtd:xthrow.obj
 0002:00001670       ??_C@_1M@LMIMILA@?$AAc?$AAn?$AAt?$AAr?$AAl?$AA?$AA@ 1005a670     libcpmtd:xthrow.obj
 0002:0000167c       ??_C@_13GKPPEALH@?$AAd?$AA?$AA@ 1005a67c     libcpmtd:xthrow.obj
 0002:00001680       ??_C@_1M@JDAEIBKG@?$AAd?$AAi?$AAg?$AAi?$AAt?$AA?$AA@ 1005a680     libcpmtd:xthrow.obj
 0002:0000168c       ??_C@_1M@MDKNJLLK@?$AAg?$AAr?$AAa?$AAp?$AAh?$AA?$AA@ 1005a68c     libcpmtd:xthrow.obj
 0002:00001698       ??_C@_1M@LGAECJJD@?$AAl?$AAo?$AAw?$AAe?$AAr?$AA?$AA@ 1005a698     libcpmtd:xthrow.obj
 0002:000016a4       ??_C@_1M@ELNLAPLA@?$AAp?$AAr?$AAi?$AAn?$AAt?$AA?$AA@ 1005a6a4     libcpmtd:xthrow.obj
 0002:000016b0       ??_C@_1M@BPFMAOAO@?$AAp?$AAu?$AAn?$AAc?$AAt?$AA?$AA@ 1005a6b0     libcpmtd:xthrow.obj
 0002:000016bc       ??_C@_1M@LPGODFOM@?$AAs?$AAp?$AAa?$AAc?$AAe?$AA?$AA@ 1005a6bc     libcpmtd:xthrow.obj
 0002:000016c8       ??_C@_13KHDBCPJB@?$AAs?$AA?$AA@ 1005a6c8     libcpmtd:xthrow.obj
 0002:000016cc       ??_C@_1M@PLNFCNIC@?$AAu?$AAp?$AAp?$AAe?$AAr?$AA?$AA@ 1005a6cc     libcpmtd:xthrow.obj
 0002:000016d8       ??_C@_13CIFDLIMG@?$AAw?$AA?$AA@ 1005a6d8     libcpmtd:xthrow.obj
 0002:000016dc       ??_C@_1O@OAFMJDHN@?$AAx?$AAd?$AAi?$AAg?$AAi?$AAt?$AA?$AA@ 1005a6dc     libcpmtd:xthrow.obj
 0002:000016ec       ?digits@?$numeric_limits@N@std@@2HB 1005a6ec     libcpmtd:xthrow.obj
 0002:000016f0       ?digits10@?$numeric_limits@N@std@@2HB 1005a6f0     libcpmtd:xthrow.obj
 0002:000016f4       ?max_digits10@?$numeric_limits@N@std@@2HB 1005a6f4     libcpmtd:xthrow.obj
 0002:000016f8       ?max_exponent@?$numeric_limits@N@std@@2HB 1005a6f8     libcpmtd:xthrow.obj
 0002:000016fc       ?max_exponent10@?$numeric_limits@N@std@@2HB 1005a6fc     libcpmtd:xthrow.obj
 0002:00001700       ?min_exponent@?$numeric_limits@N@std@@2HB 1005a700     libcpmtd:xthrow.obj
 0002:00001704       ?min_exponent10@?$numeric_limits@N@std@@2HB 1005a704     libcpmtd:xthrow.obj
 0002:00001708       ?digits@?$numeric_limits@O@std@@2HB 1005a708     libcpmtd:xthrow.obj
 0002:0000170c       ?digits10@?$numeric_limits@O@std@@2HB 1005a70c     libcpmtd:xthrow.obj
 0002:00001710       ?max_digits10@?$numeric_limits@O@std@@2HB 1005a710     libcpmtd:xthrow.obj
 0002:00001714       ?max_exponent@?$numeric_limits@O@std@@2HB 1005a714     libcpmtd:xthrow.obj
 0002:00001718       ?max_exponent10@?$numeric_limits@O@std@@2HB 1005a718     libcpmtd:xthrow.obj
 0002:0000171c       ?min_exponent@?$numeric_limits@O@std@@2HB 1005a71c     libcpmtd:xthrow.obj
 0002:00001720       ?min_exponent10@?$numeric_limits@O@std@@2HB 1005a720     libcpmtd:xthrow.obj
 0002:00001724       ?skipws@?$_Iosb@H@std@@2W4_Fmtflags@12@B 1005a724     libcpmtd:xthrow.obj
 0002:00001728       ?unitbuf@?$_Iosb@H@std@@2W4_Fmtflags@12@B 1005a728     libcpmtd:xthrow.obj
 0002:0000172c       ?uppercase@?$_Iosb@H@std@@2W4_Fmtflags@12@B 1005a72c     libcpmtd:xthrow.obj
 0002:00001730       ?showbase@?$_Iosb@H@std@@2W4_Fmtflags@12@B 1005a730     libcpmtd:xthrow.obj
 0002:00001734       ?showpoint@?$_Iosb@H@std@@2W4_Fmtflags@12@B 1005a734     libcpmtd:xthrow.obj
 0002:00001738       ?showpos@?$_Iosb@H@std@@2W4_Fmtflags@12@B 1005a738     libcpmtd:xthrow.obj
 0002:0000173c       ?left@?$_Iosb@H@std@@2W4_Fmtflags@12@B 1005a73c     libcpmtd:xthrow.obj
 0002:00001740       ?right@?$_Iosb@H@std@@2W4_Fmtflags@12@B 1005a740     libcpmtd:xthrow.obj
 0002:00001744       ?internal@?$_Iosb@H@std@@2W4_Fmtflags@12@B 1005a744     libcpmtd:xthrow.obj
 0002:00001748       ?dec@?$_Iosb@H@std@@2W4_Fmtflags@12@B 1005a748     libcpmtd:xthrow.obj
 0002:0000174c       ?oct@?$_Iosb@H@std@@2W4_Fmtflags@12@B 1005a74c     libcpmtd:xthrow.obj
 0002:00001750       ?hex@?$_Iosb@H@std@@2W4_Fmtflags@12@B 1005a750     libcpmtd:xthrow.obj
 0002:00001754       ?_VBITS@?$vector@_NV?$allocator@_N@std@@@std@@2HB 1005a754     libcpmtd:xthrow.obj
 0002:00001758       ?scientific@?$_Iosb@H@std@@2W4_Fmtflags@12@B 1005a758     libcpmtd:xthrow.obj
 0002:0000175c       ?fixed@?$_Iosb@H@std@@2W4_Fmtflags@12@B 1005a75c     libcpmtd:xthrow.obj
 0002:00001760       ?hexfloat@?$_Iosb@H@std@@2W4_Fmtflags@12@B 1005a760     libcpmtd:xthrow.obj
 0002:00001764       ?boolalpha@?$_Iosb@H@std@@2W4_Fmtflags@12@B 1005a764     libcpmtd:xthrow.obj
 0002:00001768       ?_Stdio@?$_Iosb@H@std@@2W4_Fmtflags@12@B 1005a768     libcpmtd:xthrow.obj
 0002:0000176c       ?adjustfield@?$_Iosb@H@std@@2W4_Fmtflags@12@B 1005a76c     libcpmtd:xthrow.obj
 0002:00001770       ?basefield@?$_Iosb@H@std@@2W4_Fmtflags@12@B 1005a770     libcpmtd:xthrow.obj
 0002:00001774       ?floatfield@?$_Iosb@H@std@@2W4_Fmtflags@12@B 1005a774     libcpmtd:xthrow.obj
 0002:00001778       ?goodbit@?$_Iosb@H@std@@2W4_Iostate@12@B 1005a778     libcpmtd:xthrow.obj
 0002:0000177c       ?eofbit@?$_Iosb@H@std@@2W4_Iostate@12@B 1005a77c     libcpmtd:xthrow.obj
 0002:00001780       ?failbit@?$_Iosb@H@std@@2W4_Iostate@12@B 1005a780     libcpmtd:xthrow.obj
 0002:00001784       ?badbit@?$_Iosb@H@std@@2W4_Iostate@12@B 1005a784     libcpmtd:xthrow.obj
 0002:00001788       ?_Hardfail@?$_Iosb@H@std@@2W4_Iostate@12@B 1005a788     libcpmtd:xthrow.obj
 0002:0000178c       ?in@?$_Iosb@H@std@@2W4_Openmode@12@B 1005a78c     libcpmtd:xthrow.obj
 0002:00001790       ?out@?$_Iosb@H@std@@2W4_Openmode@12@B 1005a790     libcpmtd:xthrow.obj
 0002:00001794       ?ate@?$_Iosb@H@std@@2W4_Openmode@12@B 1005a794     libcpmtd:xthrow.obj
 0002:00001798       ?app@?$_Iosb@H@std@@2W4_Openmode@12@B 1005a798     libcpmtd:xthrow.obj
 0002:0000179c       ?trunc@?$_Iosb@H@std@@2W4_Openmode@12@B 1005a79c     libcpmtd:xthrow.obj
 0002:000017a0       ?_Nocreate@?$_Iosb@H@std@@2W4_Openmode@12@B 1005a7a0     libcpmtd:xthrow.obj
 0002:000017a4       ?_Noreplace@?$_Iosb@H@std@@2W4_Openmode@12@B 1005a7a4     libcpmtd:xthrow.obj
 0002:000017a8       ?binary@?$_Iosb@H@std@@2W4_Openmode@12@B 1005a7a8     libcpmtd:xthrow.obj
 0002:000017ac       ?beg@?$_Iosb@H@std@@2W4_Seekdir@12@B 1005a7ac     libcpmtd:xthrow.obj
 0002:000017b0       ?cur@?$_Iosb@H@std@@2W4_Seekdir@12@B 1005a7b0     libcpmtd:xthrow.obj
 0002:000017b4       ?end@?$_Iosb@H@std@@2W4_Seekdir@12@B 1005a7b4     libcpmtd:xthrow.obj
 0002:000017b8       ?has_denorm@_Num_base@std@@2W4float_denorm_style@2@B 1005a7b8     libcpmtd:xthrow.obj
 0002:000017bc       ?collate@?$_Locbase@H@std@@2HB 1005a7bc     libcpmtd:xthrow.obj
 0002:000017c0       ?ctype@?$_Locbase@H@std@@2HB 1005a7c0     libcpmtd:xthrow.obj
 0002:000017c4       ?has_denorm_loss@_Num_base@std@@2_NB 1005a7c4     libcpmtd:xthrow.obj
 0002:000017c8       ?monetary@?$_Locbase@H@std@@2HB 1005a7c8     libcpmtd:xthrow.obj
 0002:000017cc       ?has_infinity@_Num_base@std@@2_NB 1005a7cc     libcpmtd:xthrow.obj
 0002:000017d0       ?numeric@?$_Locbase@H@std@@2HB 1005a7d0     libcpmtd:xthrow.obj
 0002:000017d4       ?has_quiet_NaN@_Num_base@std@@2_NB 1005a7d4     libcpmtd:xthrow.obj
 0002:000017d8       ?time@?$_Locbase@H@std@@2HB 1005a7d8     libcpmtd:xthrow.obj
 0002:000017dc       ?messages@?$_Locbase@H@std@@2HB 1005a7dc     libcpmtd:xthrow.obj
 0002:000017e0       ?has_signaling_NaN@_Num_base@std@@2_NB 1005a7e0     libcpmtd:xthrow.obj
 0002:000017e4       ?all@?$_Locbase@H@std@@2HB 1005a7e4     libcpmtd:xthrow.obj
 0002:000017e8       ?none@?$_Locbase@H@std@@2HB 1005a7e8     libcpmtd:xthrow.obj
 0002:000017ec       ?is_bounded@_Num_base@std@@2_NB 1005a7ec     libcpmtd:xthrow.obj
 0002:000017ed       ?is_exact@_Num_base@std@@2_NB 1005a7ed     libcpmtd:xthrow.obj
 0002:000017ee       ?is_iec559@_Num_base@std@@2_NB 1005a7ee     libcpmtd:xthrow.obj
 0002:000017ef       ?is_integer@_Num_base@std@@2_NB 1005a7ef     libcpmtd:xthrow.obj
 0002:000017f0       ?is_modulo@_Num_base@std@@2_NB 1005a7f0     libcpmtd:xthrow.obj
 0002:000017f1       ?is_signed@_Num_base@std@@2_NB 1005a7f1     libcpmtd:xthrow.obj
 0002:000017f2       ?is_specialized@_Num_base@std@@2_NB 1005a7f2     libcpmtd:xthrow.obj
 0002:000017f3       ?tinyness_before@_Num_base@std@@2_NB 1005a7f3     libcpmtd:xthrow.obj
 0002:000017f4       ?traps@_Num_base@std@@2_NB 1005a7f4     libcpmtd:xthrow.obj
 0002:000017f8       ?round_style@_Num_base@std@@2W4float_round_style@2@B 1005a7f8     libcpmtd:xthrow.obj
 0002:000017fc       ?digits@_Num_base@std@@2HB 1005a7fc     libcpmtd:xthrow.obj
 0002:00001800       ?value@?$integral_constant@I$07@std@@2IB 1005a800     libcpmtd:xthrow.obj
 0002:00001804       ?digits10@_Num_base@std@@2HB 1005a804     libcpmtd:xthrow.obj
 0002:00001808       ?max_digits10@_Num_base@std@@2HB 1005a808     libcpmtd:xthrow.obj
 0002:0000180c       ?max_exponent@_Num_base@std@@2HB 1005a80c     libcpmtd:xthrow.obj
 0002:00001810       ?max_exponent10@_Num_base@std@@2HB 1005a810     libcpmtd:xthrow.obj
 0002:00001814       ?min_exponent@_Num_base@std@@2HB 1005a814     libcpmtd:xthrow.obj
 0002:00001818       ?value@?$integral_constant@H$0A@@std@@2HB 1005a818     libcpmtd:xthrow.obj
 0002:0000181c       ?min_exponent10@_Num_base@std@@2HB 1005a81c     libcpmtd:xthrow.obj
 0002:00001820       ?radix@_Num_base@std@@2HB  1005a820     libcpmtd:xthrow.obj
 0002:00001824       ?is_bounded@_Num_int_base@std@@2_NB 1005a824     libcpmtd:xthrow.obj
 0002:00001825       ?is_exact@_Num_int_base@std@@2_NB 1005a825     libcpmtd:xthrow.obj
 0002:00001826       ?is_integer@_Num_int_base@std@@2_NB 1005a826     libcpmtd:xthrow.obj
 0002:00001827       ?is_modulo@_Num_int_base@std@@2_NB 1005a827     libcpmtd:xthrow.obj
 0002:00001828       ?value@?$integral_constant@I$03@std@@2IB 1005a828     libcpmtd:xthrow.obj
 0002:0000182c       ?is_specialized@_Num_int_base@std@@2_NB 1005a82c     libcpmtd:xthrow.obj
 0002:00001830       ?radix@_Num_int_base@std@@2HB 1005a830     libcpmtd:xthrow.obj
 0002:00001834       ?has_denorm@_Num_float_base@std@@2W4float_denorm_style@2@B 1005a834     libcpmtd:xthrow.obj
 0002:00001838       ?has_denorm_loss@_Num_float_base@std@@2_NB 1005a838     libcpmtd:xthrow.obj
 0002:00001839       ?has_infinity@_Num_float_base@std@@2_NB 1005a839     libcpmtd:xthrow.obj
 0002:00001840       ??_7bad_alloc@std@@6B@     1005a840     libcpmtd:xthrow.obj
 0002:00001848       ??_C@_0P@GHFPNOJB@bad?5allocation?$AA@ 1005a848     libcpmtd:xthrow.obj
 0002:0000185c       ??_7logic_error@std@@6B@   1005a85c     libcpmtd:xthrow.obj
 0002:00001868       ??_7invalid_argument@std@@6B@ 1005a868     libcpmtd:xthrow.obj
 0002:00001874       ??_7length_error@std@@6B@  1005a874     libcpmtd:xthrow.obj
 0002:00001880       ??_7out_of_range@std@@6B@  1005a880     libcpmtd:xthrow.obj
 0002:0000188c       ??_7runtime_error@std@@6B@ 1005a88c     libcpmtd:xthrow.obj
 0002:00001898       ??_7overflow_error@std@@6B@ 1005a898     libcpmtd:xthrow.obj
 0002:000018a4       ??_7bad_function_call@std@@6B@ 1005a8a4     libcpmtd:xthrow.obj
 0002:000018ac       ??_C@_0BC@DPJNKNAF@bad?5function?5call?$AA@ 1005a8ac     libcpmtd:xthrow.obj
 0002:000018c4       ??_7error_category@std@@6B@ 1005a8c4     libcpmtd:xthrow.obj
 0002:000018e0       ??_7_Generic_error_category@std@@6B@ 1005a8e0     libcpmtd:xthrow.obj
 0002:000018f8       ??_C@_07DCLBNMLN@generic?$AA@ 1005a8f8     libcpmtd:xthrow.obj
 0002:00001900       ??_C@_0O@BFJCFAAK@unknown?5error?$AA@ 1005a900     libcpmtd:xthrow.obj
 0002:00001914       ??_7_Iostream_error_category@std@@6B@ 1005a914     libcpmtd:xthrow.obj
 0002:0000192c       ??_C@_08LLGCOLLL@iostream?$AA@ 1005a92c     libcpmtd:xthrow.obj
 0002:00001938       ??_C@_0BG@PADBLCHM@iostream?5stream?5error?$AA@ 1005a938     libcpmtd:xthrow.obj
 0002:00001954       ??_7_System_error_category@std@@6B@ 1005a954     libcpmtd:xthrow.obj
 0002:0000196c       ??_C@_06FHFOAHML@system?$AA@ 1005a96c     libcpmtd:xthrow.obj
 0002:00001978       ??_7regex_error@std@@6B@   1005a978     libcpmtd:xthrow.obj
 0002:00001980       ??_C@_0FI@CMNGHIFF@regex_error?$CIerror_collate?$CJ?3?5The?5@ 1005a980     libcpmtd:xthrow.obj
 0002:000019d8       ??_C@_0FE@LJMHKIOC@regex_error?$CIerror_ctype?$CJ?3?5The?5ex@ 1005a9d8     libcpmtd:xthrow.obj
 0002:00001a30       ??_C@_0GI@HEGGMMDL@regex_error?$CIerror_escape?$CJ?3?5The?5e@ 1005aa30     libcpmtd:xthrow.obj
 0002:00001a98       ??_C@_0FA@HFMLPGNN@regex_error?$CIerror_backref?$CJ?3?5The?5@ 1005aa98     libcpmtd:xthrow.obj
 0002:00001ae8       ??_C@_0EH@LGEANNAL@regex_error?$CIerror_brack?$CJ?3?5The?5ex@ 1005aae8     libcpmtd:xthrow.obj
 0002:00001b30       ??_C@_0EH@CAGOJGLE@regex_error?$CIerror_paren?$CJ?3?5The?5ex@ 1005ab30     libcpmtd:xthrow.obj
 0002:00001b78       ??_C@_0EH@DICJJKLO@regex_error?$CIerror_brace?$CJ?3?5The?5ex@ 1005ab78     libcpmtd:xthrow.obj
 0002:00001bc0       ??_C@_0FM@BLDIHIBB@regex_error?$CIerror_badbrace?$CJ?3?5The@ 1005abc0     libcpmtd:xthrow.obj
 0002:00001c20       ??_C@_0HA@ICNJLCMC@regex_error?$CIerror_range?$CJ?3?5The?5ex@ 1005ac20     libcpmtd:xthrow.obj
 0002:00001c90       ??_C@_0GP@PICOBCHA@regex_error?$CIerror_space?$CJ?3?5There?5@ 1005ac90     libcpmtd:xthrow.obj
 0002:00001d00       ??_C@_0FK@LCHHHEOA@regex_error?$CIerror_badrepeat?$CJ?3?5On@ 1005ad00     libcpmtd:xthrow.obj
 0002:00001d60       ??_C@_0HL@NEKOFBJA@regex_error?$CIerror_complexity?$CJ?3?5T@ 1005ad60     libcpmtd:xthrow.obj
 0002:00001de0       ??_C@_0JC@HCDLJLGO@regex_error?$CIerror_stack?$CJ?3?5There?5@ 1005ade0     libcpmtd:xthrow.obj
 0002:00001e74       ??_C@_0BJ@CHBLKGNM@regex_error?$CIerror_parse?$CJ?$AA@ 1005ae74     libcpmtd:xthrow.obj
 0002:00001e90       ??_C@_0BK@DFJCACNI@regex_error?$CIerror_syntax?$CJ?$AA@ 1005ae90     libcpmtd:xthrow.obj
 0002:00001eac       ??_C@_0M@KGKAAGCA@regex_error?$AA@ 1005aeac     libcpmtd:xthrow.obj
 0002:00001eb8       ??_C@_1FA@OCLBCAFA@?$AAf?$AA?3?$AA?2?$AAd?$AAd?$AA?2?$AAv?$AAc?$AAt?$AAo?$AAo?$AAl?$AAs?$AA?2?$AAc?$AAr?$AAt?$AA?2?$AAc?$AAr?$AAt?$AAw?$AA3?$AA2?$AA?2?$AAs?$AAt?$AAd?$AAh?$AAp?$AAp?$AA?2@ 1005aeb8     libcpmtd:xthrow.obj
 0002:00001f08       ??_C@_0BA@JFNIOLAK@string?5too?5long?$AA@ 1005af08     libcpmtd:xthrow.obj
 0002:00001f18       ??_C@_0BI@CFPLBAOH@invalid?5string?5position?$AA@ 1005af18     libcpmtd:xthrow.obj
 0002:00001f30       ??_C@_1CK@EOPGIILJ@?$AAi?$AAn?$AAv?$AAa?$AAl?$AAi?$AAd?$AA?5?$AAn?$AAu?$AAl?$AAl?$AA?5?$AAp?$AAo?$AAi?$AAn?$AAt?$AAe?$AAr?$AA?$AA@ 1005af30     libcpmtd:xthrow.obj
 0002:00002430       ??_C@_0BC@CIJDGCDI@permission?5denied?$AA@ 1005b430     libcpmtd:syserror.obj
 0002:00002444       ??_C@_0M@MIDIAGJP@file?5exists?$AA@ 1005b444     libcpmtd:syserror.obj
 0002:00002450       ??_C@_0P@FDINDDOK@no?5such?5device?$AA@ 1005b450     libcpmtd:syserror.obj
 0002:00002460       ??_C@_0BC@EJHOMAAK@filename?5too?5long?$AA@ 1005b460     libcpmtd:syserror.obj
 0002:00002474       ??_C@_0BI@NGCEHDD@device?5or?5resource?5busy?$AA@ 1005b474     libcpmtd:syserror.obj
 0002:0000248c       ??_C@_08GLNPIFBN@io?5error?$AA@ 1005b48c     libcpmtd:syserror.obj
 0002:00002498       ??_C@_0BE@JIDOCPHM@directory?5not?5empty?$AA@ 1005b498     libcpmtd:syserror.obj
 0002:000024ac       ??_C@_0BB@FCMFBGOM@invalid?5argument?$AA@ 1005b4ac     libcpmtd:syserror.obj
 0002:000024c0       ??_C@_0BD@IJDJKDEA@no?5space?5on?5device?$AA@ 1005b4c0     libcpmtd:syserror.obj
 0002:000024d4       ??_C@_0BK@NDOCBPGE@no?5such?5file?5or?5directory?$AA@ 1005b4d4     libcpmtd:syserror.obj
 0002:000024f0       ??_C@_0BH@KEFGLDAF@function?5not?5supported?$AA@ 1005b4f0     libcpmtd:syserror.obj
 0002:00002508       ??_C@_0BC@NJECKMKE@no?5lock?5available?$AA@ 1005b508     libcpmtd:syserror.obj
 0002:0000251c       ??_C@_0BC@ENOOLCNF@not?5enough?5memory?$AA@ 1005b51c     libcpmtd:syserror.obj
 0002:00002530       ??_C@_0BP@LKNGHENJ@resource?5unavailable?5try?5again?$AA@ 1005b530     libcpmtd:syserror.obj
 0002:00002550       ??_C@_0BC@PPHBOELF@cross?5device?5link?$AA@ 1005b550     libcpmtd:syserror.obj
 0002:00002564       ??_C@_0BD@MOLBPMEA@operation?5canceled?$AA@ 1005b564     libcpmtd:syserror.obj
 0002:00002578       ??_C@_0BE@GHAFMPAH@too?5many?5files?5open?$AA@ 1005b578     libcpmtd:syserror.obj
 0002:0000258c       ??_C@_0BC@FNODOBAE@permission_denied?$AA@ 1005b58c     libcpmtd:syserror.obj
 0002:000025a0       ??_C@_0P@LNDJPBFK@address_in_use?$AA@ 1005b5a0     libcpmtd:syserror.obj
 0002:000025b0       ??_C@_0BG@IPMGOJF@address_not_available?$AA@ 1005b5b0     libcpmtd:syserror.obj
 0002:000025c8       ??_C@_0BN@LCBDHODA@address_family_not_supported?$AA@ 1005b5c8     libcpmtd:syserror.obj
 0002:000025e8       ??_C@_0BP@FOJJHMCC@connection_already_in_progress?$AA@ 1005b5e8     libcpmtd:syserror.obj
 0002:00002608       ??_C@_0BE@DLHHIBGN@bad_file_descriptor?$AA@ 1005b608     libcpmtd:syserror.obj
 0002:0000261c       ??_C@_0BD@OJMJDIGI@connection_aborted?$AA@ 1005b61c     libcpmtd:syserror.obj
 0002:00002630       ??_C@_0BD@NGKCIFEP@connection_refused?$AA@ 1005b630     libcpmtd:syserror.obj
 0002:00002644       ??_C@_0BB@JOANDNCK@connection_reset?$AA@ 1005b644     libcpmtd:syserror.obj
 0002:00002658       ??_C@_0BN@JLJNLKLK@destination_address_required?$AA@ 1005b658     libcpmtd:syserror.obj
 0002:00002678       ??_C@_0M@IJGMGFGP@bad_address?$AA@ 1005b678     libcpmtd:syserror.obj
 0002:00002684       ??_C@_0BB@KKNHPPIN@host_unreachable?$AA@ 1005b684     libcpmtd:syserror.obj
 0002:00002698       ??_C@_0BG@DJGBJIIK@operation_in_progress?$AA@ 1005b698     libcpmtd:syserror.obj
 0002:000026b0       ??_C@_0M@EGEKIIMP@interrupted?$AA@ 1005b6b0     libcpmtd:syserror.obj
 0002:000026bc       ??_C@_0BB@FFIHMIPJ@invalid_argument?$AA@ 1005b6bc     libcpmtd:syserror.obj
 0002:000026d0       ??_C@_0BC@FIFLCHLO@already_connected?$AA@ 1005b6d0     libcpmtd:syserror.obj
 0002:000026e4       ??_C@_0BE@GJJJJDDA@too_many_files_open?$AA@ 1005b6e4     libcpmtd:syserror.obj
 0002:000026f8       ??_C@_0N@HPMLKHPL@message_size?$AA@ 1005b6f8     libcpmtd:syserror.obj
 0002:00002708       ??_C@_0BC@LEEIKBAL@filename_too_long?$AA@ 1005b708     libcpmtd:syserror.obj
 0002:0000271c       ??_C@_0N@FCPALPJK@network_down?$AA@ 1005b71c     libcpmtd:syserror.obj
 0002:0000272c       ??_C@_0O@EHNDLHIG@network_reset?$AA@ 1005b72c     libcpmtd:syserror.obj
 0002:0000273c       ??_C@_0BE@JFNJIDNF@network_unreachable?$AA@ 1005b73c     libcpmtd:syserror.obj
 0002:00002750       ??_C@_0BA@FDIJKJCL@no_buffer_space?$AA@ 1005b750     libcpmtd:syserror.obj
 0002:00002760       ??_C@_0BD@JHIHCGKP@no_protocol_option?$AA@ 1005b760     libcpmtd:syserror.obj
 0002:00002774       ??_C@_0O@GBCLHHD@not_connected?$AA@ 1005b774     libcpmtd:syserror.obj
 0002:00002784       ??_C@_0N@IMHKKLEM@not_a_socket?$AA@ 1005b784     libcpmtd:syserror.obj
 0002:00002794       ??_C@_0BI@ICEIDKLJ@operation_not_supported?$AA@ 1005b794     libcpmtd:syserror.obj
 0002:000027ac       ??_C@_0BH@KAPBAIJF@protocol_not_supported?$AA@ 1005b7ac     libcpmtd:syserror.obj
 0002:000027c4       ??_C@_0BE@GAOJJFPC@wrong_protocol_type?$AA@ 1005b7c4     libcpmtd:syserror.obj
 0002:000027d8       ??_C@_09NCHNLHPG@timed_out?$AA@ 1005b7d8     libcpmtd:syserror.obj
 0002:000027e4       ??_C@_0BG@GDGHKFDH@operation_would_block?$AA@ 1005b7e4     libcpmtd:syserror.obj
 0002:000027fc       ??_C@_0BN@LKKBCCDB@address?5family?5not?5supported?$AA@ 1005b7fc     libcpmtd:syserror.obj
 0002:0000281c       ??_C@_0P@LDMLAFHI@address?5in?5use?$AA@ 1005b81c     libcpmtd:syserror.obj
 0002:0000282c       ??_C@_0BG@DHPCNBJB@address?5not?5available?$AA@ 1005b82c     libcpmtd:syserror.obj
 0002:00002844       ??_C@_0BC@DFIBIBIL@already?5connected?$AA@ 1005b844     libcpmtd:syserror.obj
 0002:00002858       ??_C@_0BH@CAKOHOMI@argument?5list?5too?5long?$AA@ 1005b858     libcpmtd:syserror.obj
 0002:00002870       ??_C@_0BH@CGIMPKIM@argument?5out?5of?5domain?$AA@ 1005b870     libcpmtd:syserror.obj
 0002:00002888       ??_C@_0M@KGHGGJGL@bad?5address?$AA@ 1005b888     libcpmtd:syserror.obj
 0002:00002894       ??_C@_0BE@MPJPGCEO@bad?5file?5descriptor?$AA@ 1005b894     libcpmtd:syserror.obj
 0002:000028a8       ??_C@_0M@PMMIEFCP@bad?5message?$AA@ 1005b8a8     libcpmtd:syserror.obj
 0002:000028b4       ??_C@_0M@KPHOFDBE@broken?5pipe?$AA@ 1005b8b4     libcpmtd:syserror.obj
 0002:000028c0       ??_C@_0BD@MGNDDEGM@connection?5aborted?$AA@ 1005b8c0     libcpmtd:syserror.obj
 0002:000028d4       ??_C@_0BP@KAIHPOGN@connection?5already?5in?5progress?$AA@ 1005b8d4     libcpmtd:syserror.obj
 0002:000028f4       ??_C@_0BD@PJLIIJEL@connection?5refused?$AA@ 1005b8f4     libcpmtd:syserror.obj
 0002:00002908       ??_C@_0BB@IECNJNOI@connection?5reset?$AA@ 1005b908     libcpmtd:syserror.obj
 0002:0000291c       ??_C@_0BN@KDMIFEIP@destination?5address?5required?$AA@ 1005b91c     libcpmtd:syserror.obj
 0002:0000293c       ??_C@_0BI@BNCLIGPB@executable?5format?5error?$AA@ 1005b93c     libcpmtd:syserror.obj
 0002:00002954       ??_C@_0P@DNAJLBJK@file?5too?5large?$AA@ 1005b954     libcpmtd:syserror.obj
 0002:00002964       ??_C@_0BB@DHFDFGDM@host?5unreachable?$AA@ 1005b964     libcpmtd:syserror.obj
 0002:00002978       ??_C@_0BD@JPHBMONG@identifier?5removed?$AA@ 1005b978     libcpmtd:syserror.obj
 0002:0000298c       ??_C@_0BG@CDNPAGJK@illegal?5byte?5sequence?$AA@ 1005b98c     libcpmtd:syserror.obj
 0002:000029a4       ??_C@_0CD@BNPLBMNA@inappropriate?5io?5control?5operati@ 1005b9a4     libcpmtd:syserror.obj
 0002:000029c8       ??_C@_0N@OHAFKDEK@invalid?5seek?$AA@ 1005b9c8     libcpmtd:syserror.obj
 0002:000029d8       ??_C@_0P@FLLDBIDK@is?5a?5directory?$AA@ 1005b9d8     libcpmtd:syserror.obj
 0002:000029e8       ??_C@_0N@IFLPBIOP@message?5size?$AA@ 1005b9e8     libcpmtd:syserror.obj
 0002:000029f8       ??_C@_0N@KIIEAAIO@network?5down?$AA@ 1005b9f8     libcpmtd:syserror.obj
 0002:00002a08       ??_C@_0O@FNPDBHEE@network?5reset?$AA@ 1005ba08     libcpmtd:syserror.obj
 0002:00002a18       ??_C@_0BE@IFNCKGE@network?5unreachable?$AA@ 1005ba18     libcpmtd:syserror.obj
 0002:00002a2c       ??_C@_0BA@PFFCAOFK@no?5buffer?5space?$AA@ 1005ba2c     libcpmtd:syserror.obj
 0002:00002a3c       ??_C@_0BB@IEPBLJHK@no?5child?5process?$AA@ 1005ba3c     libcpmtd:syserror.obj
 0002:00002a50       ??_C@_07PLECNNKG@no?5link?$AA@ 1005ba50     libcpmtd:syserror.obj
 0002:00002a58       ??_C@_0BF@PBGGPKKE@no?5message?5available?$AA@ 1005ba58     libcpmtd:syserror.obj
 0002:00002a70       ??_C@_0L@EDOLMPAK@no?5message?$AA@ 1005ba70     libcpmtd:syserror.obj
 0002:00002a7c       ??_C@_0BD@EAMBFIDF@no?5protocol?5option?$AA@ 1005ba7c     libcpmtd:syserror.obj
 0002:00002a90       ??_C@_0BE@MKFDAFMP@no?5stream?5resources?$AA@ 1005ba90     libcpmtd:syserror.obj
 0002:00002aa4       ??_C@_0BK@IMCPHCBI@no?5such?5device?5or?5address?$AA@ 1005baa4     libcpmtd:syserror.obj
 0002:00002ac0       ??_C@_0BA@ENLPPKBN@no?5such?5process?$AA@ 1005bac0     libcpmtd:syserror.obj
 0002:00002ad0       ??_C@_0BA@DOCPFFJG@not?5a?5directory?$AA@ 1005bad0     libcpmtd:syserror.obj
 0002:00002ae0       ??_C@_0N@POEIPGGF@not?5a?5socket?$AA@ 1005bae0     libcpmtd:syserror.obj
 0002:00002af0       ??_C@_0N@LGAPMMPI@not?5a?5stream?$AA@ 1005baf0     libcpmtd:syserror.obj
 0002:00002b00       ??_C@_0O@GLMIBBEG@not?5connected?$AA@ 1005bb00     libcpmtd:syserror.obj
 0002:00002b10       ??_C@_0O@NHEDABJP@not?5supported?$AA@ 1005bb10     libcpmtd:syserror.obj
 0002:00002b20       ??_C@_0BG@KDKHOPCO@operation?5in?5progress?$AA@ 1005bb20     libcpmtd:syserror.obj
 0002:00002b38       ??_C@_0BI@OHIEJAAB@operation?5not?5permitted?$AA@ 1005bb38     libcpmtd:syserror.obj
 0002:00002b50       ??_C@_0BI@LNEGIFLN@operation?5not?5supported?$AA@ 1005bb50     libcpmtd:syserror.obj
 0002:00002b68       ??_C@_0BG@OEMDKMEE@operation?5would?5block?$AA@ 1005bb68     libcpmtd:syserror.obj
 0002:00002b80       ??_C@_0L@BLPOFLNJ@owner?5dead?$AA@ 1005bb80     libcpmtd:syserror.obj
 0002:00002b8c       ??_C@_0P@FNPOCJBE@protocol?5error?$AA@ 1005bb8c     libcpmtd:syserror.obj
 0002:00002b9c       ??_C@_0BH@JPPPLHJB@protocol?5not?5supported?$AA@ 1005bb9c     libcpmtd:syserror.obj
 0002:00002bb4       ??_C@_0BG@EICBIHDP@read?5only?5file?5system?$AA@ 1005bbb4     libcpmtd:syserror.obj
 0002:00002bcc       ??_C@_0BO@BJBOMOEJ@resource?5deadlock?5would?5occur?$AA@ 1005bbcc     libcpmtd:syserror.obj
 0002:00002bec       ??_C@_0BE@GOIPJJHG@result?5out?5of?5range?$AA@ 1005bbec     libcpmtd:syserror.obj
 0002:00002c00       ??_C@_0BG@MPLKFPAE@state?5not?5recoverable?$AA@ 1005bc00     libcpmtd:syserror.obj
 0002:00002c18       ??_C@_0P@DIIFGFCG@stream?5timeout?$AA@ 1005bc18     libcpmtd:syserror.obj
 0002:00002c28       ??_C@_0P@IPFDMIFL@text?5file?5busy?$AA@ 1005bc28     libcpmtd:syserror.obj
 0002:00002c38       ??_C@_09KJPPMAOI@timed?5out?$AA@ 1005bc38     libcpmtd:syserror.obj
 0002:00002c44       ??_C@_0BO@HACHBEKI@too?5many?5files?5open?5in?5system?$AA@ 1005bc44     libcpmtd:syserror.obj
 0002:00002c64       ??_C@_0P@HCOMKFCC@too?5many?5links?$AA@ 1005bc64     libcpmtd:syserror.obj
 0002:00002c74       ??_C@_0BO@EFGOJEF@too?5many?5symbolic?5link?5levels?$AA@ 1005bc74     libcpmtd:syserror.obj
 0002:00002c94       ??_C@_0BA@KGKGOOJA@value?5too?5large?$AA@ 1005bc94     libcpmtd:syserror.obj
 0002:00002ca4       ??_C@_0BE@MIEJDDNH@wrong?5protocol?5type?$AA@ 1005bca4     libcpmtd:syserror.obj
 0002:00002cb8       ??_C@_1EO@LHDAJOCM@?$AA_?$AAB?$AAL?$AAO?$AAC?$AAK?$AA_?$AAT?$AAY?$AAP?$AAE?$AA_?$AAI?$AAS?$AA_?$AAV?$AAA?$AAL?$AAI?$AAD?$AA?$CI?$AAp?$AAH?$AAe?$AAa?$AAd?$AA?9?$AA?$DO?$AAn?$AAB?$AAl?$AAo@ 1005bcb8     LIBCMTD:dbgdel.obj
 0002:00002d08       ??_C@_1FC@BHNGAOAE@?$AAf?$AA?3?$AA?2?$AAd?$AAd?$AA?2?$AAv?$AAc?$AAt?$AAo?$AAo?$AAl?$AAs?$AA?2?$AAc?$AAr?$AAt?$AA?2?$AAc?$AAr?$AAt?$AAw?$AA3?$AA2?$AA?2?$AAm?$AAi?$AAs?$AAc?$AA?2?$AAd?$AAb@ 1005bd08     LIBCMTD:dbgdel.obj
 0002:00002d5c       ??_C@_0CH@JPGODKFM@f?3?2dd?2vctools?2crt?2crtw32?2misc?2on@ 1005bd5c     LIBCMTD:onexit.obj
 0002:00002d84       ?ProcessDetach@NativeDll@<CrtImplementationDetails>@@0IB 1005bd84     LIBCMTD:invarg.obj
 0002:00002d88       ?ProcessAttach@NativeDll@<CrtImplementationDetails>@@0IB 1005bd88     LIBCMTD:invarg.obj
 0002:00002d8c       ?ThreadAttach@NativeDll@<CrtImplementationDetails>@@0IB 1005bd8c     LIBCMTD:invarg.obj
 0002:00002d90       ?ThreadDetach@NativeDll@<CrtImplementationDetails>@@0IB 1005bd90     LIBCMTD:invarg.obj
 0002:00002d94       ?ProcessVerifier@NativeDll@<CrtImplementationDetails>@@0IB 1005bd94     LIBCMTD:invarg.obj
 0002:00002d98       ??_C@_1FC@NCPEPIBI@?$AA?$CI?$AA?$CI?$AA_?$AAD?$AAs?$AAt?$AA?$CJ?$AA?$CJ?$AA?5?$AA?$CB?$AA?$DN?$AA?5?$AAN?$AAU?$AAL?$AAL?$AA?5?$AA?$CG?$AA?$CG?$AA?5?$AA?$CI?$AA?$CI?$AA_?$AAS?$AAi?$AAz?$AAe?$AAI?$AAn?$AAB?$AAy?$AAt@ 1005bd98     LIBCMTD:strcpy_s.obj
 0002:00002df0       ??_C@_1FA@ILDLFIFE@?$AAf?$AA?3?$AA?2?$AAd?$AAd?$AA?2?$AAv?$AAc?$AAt?$AAo?$AAo?$AAl?$AAs?$AA?2?$AAc?$AAr?$AAt?$AA?2?$AAc?$AAr?$AAt?$AAw?$AA3?$AA2?$AA?2?$AAh?$AA?2?$AAt?$AAc?$AAs?$AAc?$AAp@ 1005bdf0     LIBCMTD:strcpy_s.obj
 0002:00002e40       ??_C@_1BC@CFJEPFGF@?$AAs?$AAt?$AAr?$AAc?$AAp?$AAy?$AA_?$AAs?$AA?$AA@ 1005be40     LIBCMTD:strcpy_s.obj
 0002:00002e54       ??_C@_1CG@OFBJMIGJ@?$AA?$CI?$AA?$CI?$AA?$CI?$AA_?$AAS?$AAr?$AAc?$AA?$CJ?$AA?$CJ?$AA?$CJ?$AA?5?$AA?$CB?$AA?$DN?$AA?5?$AAN?$AAU?$AAL?$AAL?$AA?$AA@ 1005be54     LIBCMTD:strcpy_s.obj
 0002:00002e7c       ??_C@_1CI@HCPHDDLE@?$AAB?$AAu?$AAf?$AAf?$AAe?$AAr?$AA?5?$AAi?$AAs?$AA?5?$AAt?$AAo?$AAo?$AA?5?$AAs?$AAm?$AAa?$AAl?$AAl?$AA?$AA@ 1005be7c     LIBCMTD:strcpy_s.obj
 0002:00002ea4       ??_C@_1DM@MADKGDLO@?$AA?$CI?$AAL?$AA?$CC?$AAB?$AAu?$AAf?$AAf?$AAe?$AAr?$AA?5?$AAi?$AAs?$AA?5?$AAt?$AAo?$AAo?$AA?5?$AAs?$AAm?$AAa?$AAl?$AAl?$AA?$CC?$AA?5?$AA?$CG?$AA?$CG?$AA?5?$AA0?$AA?$CJ?$AA?$AA@ 1005bea4     LIBCMTD:strcpy_s.obj
 0002:00002ee0       ??_C@_1CI@MLPLHPBP@?$AA?$CI?$AA?$CI?$AA?$CI?$AA_?$AAP?$AAa?$AAt?$AAh?$AA?$CJ?$AA?$CJ?$AA?$CJ?$AA?5?$AA?$CB?$AA?$DN?$AA?5?$AAN?$AAU?$AAL?$AAL?$AA?$AA@ 1005bee0     LIBCMTD:splitpath_s.obj
 0002:00002f08       ??_C@_1FI@NIGODNLP@?$AAf?$AA?3?$AA?2?$AAd?$AAd?$AA?2?$AAv?$AAc?$AAt?$AAo?$AAo?$AAl?$AAs?$AA?2?$AAc?$AAr?$AAt?$AA?2?$AAc?$AAr?$AAt?$AAw?$AA3?$AA2?$AA?2?$AAh?$AA?2?$AAt?$AAs?$AAp?$AAl?$AAi@ 1005bf08     LIBCMTD:splitpath_s.obj
 0002:00002f60       ??_C@_1BK@GOODFINI@?$AA_?$AAs?$AAp?$AAl?$AAi?$AAt?$AAp?$AAa?$AAt?$AAh?$AA_?$AAs?$AA?$AA@ 1005bf60     LIBCMTD:splitpath_s.obj
 0002:00002f7c       ??_C@_1DE@MLEJGPLF@?$AA?$CI?$AAL?$AA?$CC?$AAI?$AAn?$AAv?$AAa?$AAl?$AAi?$AAd?$AA?5?$AAp?$AAa?$AAr?$AAa?$AAm?$AAe?$AAt?$AAe?$AAr?$AA?$CC?$AA?0?$AA?5?$AA0?$AA?$CJ?$AA?$AA@ 1005bf7c     LIBCMTD:splitpath_s.obj
 0002:00002fb0       ??_C@_1CC@MGIEJOME@?$AA?$CI?$AAf?$AAo?$AAr?$AAm?$AAa?$AAt?$AA?5?$AA?$CB?$AA?$DN?$AA?5?$AAN?$AAU?$AAL?$AAL?$AA?$CJ?$AA?$AA@ 1005bfb0     LIBCMTD:printf.obj
 0002:00002fd8       ??_C@_1FA@GMJBBNDK@?$AAf?$AA?3?$AA?2?$AAd?$AAd?$AA?2?$AAv?$AAc?$AAt?$AAo?$AAo?$AAl?$AAs?$AA?2?$AAc?$AAr?$AAt?$AA?2?$AAc?$AAr?$AAt?$AAw?$AA3?$AA2?$AA?2?$AAs?$AAt?$AAd?$AAi?$AAo?$AA?2?$AAp@ 1005bfd8     LIBCMTD:printf.obj
 0002:00003028       ??_C@_1O@GKDHFACN@?$AAp?$AAr?$AAi?$AAn?$AAt?$AAf?$AA?$AA@ 1005c028     LIBCMTD:printf.obj
 0002:00003038       __real@0000000000000000    1005c038     LIBCMTD:hypot.obj
 0002:0000304c       ??_C@_1BA@GLMCNLEM@?$AAW?$AAa?$AAr?$AAn?$AAi?$AAn?$AAg?$AA?$AA@ 1005c04c     LIBCMTD:dbgrptw.obj
 0002:0000305c       ??_C@_1M@ILHOPKA@?$AAE?$AAr?$AAr?$AAo?$AAr?$AA?$AA@ 1005c05c     LIBCMTD:dbgrptw.obj
 0002:00003068       ??_C@_1CC@CGHMNGDG@?$AAA?$AAs?$AAs?$AAe?$AAr?$AAt?$AAi?$AAo?$AAn?$AA?5?$AAF?$AAa?$AAi?$AAl?$AAe?$AAd?$AA?$AA@ 1005c068     LIBCMTD:dbgrptw.obj
 0002:0000308c       ??_C@_17LGKOMLJ@?$AA?4?$AA?4?$AA?4?$AA?$AA@ 1005c08c     LIBCMTD:dbgrptw.obj
 0002:00003098       ??_C@_1HI@OFEHGPPC@?$AAm?$AAo?$AAd?$AAe?$AA?5?$AA?$DN?$AA?$DN?$AA?5?$AA_?$AAC?$AAR?$AAT?$AA_?$AAR?$AAP?$AAT?$AAH?$AAO?$AAO?$AAK?$AA_?$AAI?$AAN?$AAS?$AAT?$AAA?$AAL?$AAL?$AA?5?$AA?$HM?$AA?$HM?$AA?5@ 1005c098     LIBCMTD:dbgrptw.obj
 0002:00003110       ??_C@_1EO@JACJHHCK@?$AAf?$AA?3?$AA?2?$AAd?$AAd?$AA?2?$AAv?$AAc?$AAt?$AAo?$AAo?$AAl?$AAs?$AA?2?$AAc?$AAr?$AAt?$AA?2?$AAc?$AAr?$AAt?$AAw?$AA3?$AA2?$AA?2?$AAm?$AAi?$AAs?$AAc?$AA?2?$AAd?$AAb@ 1005c110     LIBCMTD:dbgrptw.obj
 0002:00003160       ??_C@_1CI@IIHEAKEI@?$AA_?$AAC?$AAr?$AAt?$AAS?$AAe?$AAt?$AAR?$AAe?$AAp?$AAo?$AAr?$AAt?$AAH?$AAo?$AAo?$AAk?$AAW?$AA2?$AA?$AA@ 1005c160     LIBCMTD:dbgrptw.obj
 0002:00003188       ??_C@_1CG@JBJEFOCM@?$AAp?$AAf?$AAn?$AAN?$AAe?$AAw?$AAH?$AAo?$AAo?$AAk?$AA?5?$AA?$CB?$AA?$DN?$AA?5?$AAN?$AAU?$AAL?$AAL?$AA?$AA@ 1005c188     LIBCMTD:dbgrptw.obj
 0002:000031b0       ??_C@_1FI@PHIAFFHM@?$AA?$CI?$AA?$CC?$AAT?$AAh?$AAe?$AA?5?$AAh?$AAo?$AAo?$AAk?$AA?5?$AAf?$AAu?$AAn?$AAc?$AAt?$AAi?$AAo?$AAn?$AA?5?$AAi?$AAs?$AA?5?$AAn?$AAo?$AAt?$AA?5?$AAi?$AAn?$AA?5?$AAt?$AAh@ 1005c1b0     LIBCMTD:dbgrptw.obj
 0002:00003208       ??_C@_0CH@BBGAHGHC@f?3?2dd?2vctools?2crt?2crtw32?2misc?2db@ 1005c208     LIBCMTD:dbgrptw.obj
 0002:00003230       ??_C@_1CI@PGJIFDEK@?$AA_?$AA_?$AAc?$AAr?$AAt?$AAM?$AAe?$AAs?$AAs?$AAa?$AAg?$AAe?$AAW?$AAi?$AAn?$AAd?$AAo?$AAw?$AAW?$AA?$AA@ 1005c230     LIBCMTD:dbgrptw.obj
 0002:00003258       ??_C@_1GI@DEDNNLCI@?$AAw?$AAc?$AAs?$AAc?$AAp?$AAy?$AA_?$AAs?$AA?$CI?$AAs?$AAz?$AAE?$AAx?$AAe?$AAN?$AAa?$AAm?$AAe?$AA?0?$AA?5?$AA2?$AA6?$AA0?$AA?0?$AA?5?$AAL?$AA?$CC?$AA?$DM?$AAp?$AAr?$AAo?$AAg@ 1005c258     LIBCMTD:dbgrptw.obj
 0002:000032c0       ??_C@_1CO@EAEJAADC@?$AA?$DM?$AAp?$AAr?$AAo?$AAg?$AAr?$AAa?$AAm?$AA?5?$AAn?$AAa?$AAm?$AAe?$AA?5?$AAu?$AAn?$AAk?$AAn?$AAo?$AAw?$AAn?$AA?$DO?$AA?$AA@ 1005c2c0     LIBCMTD:dbgrptw.obj
 0002:000032f0       ??_C@_1NO@LECLLHOL@?$AAm?$AAe?$AAm?$AAc?$AAp?$AAy?$AA_?$AAs?$AA?$CI?$AAs?$AAz?$AAS?$AAh?$AAo?$AAr?$AAt?$AAP?$AAr?$AAo?$AAg?$AAN?$AAa?$AAm?$AAe?$AA?0?$AA?5?$AAs?$AAi?$AAz?$AAe?$AAo?$AAf@ 1005c2f0     LIBCMTD:dbgrptw.obj
 0002:000033d0       ??_C@_1OG@PMPPFHAF@?$AA?6?$AA?6?$AAF?$AAo?$AAr?$AA?5?$AAi?$AAn?$AAf?$AAo?$AAr?$AAm?$AAa?$AAt?$AAi?$AAo?$AAn?$AA?5?$AAo?$AAn?$AA?5?$AAh?$AAo?$AAw?$AA?5?$AAy?$AAo?$AAu?$AAr?$AA?5?$AAp?$AAr@ 1005c3d0     LIBCMTD:dbgrptw.obj
 0002:000034b8       ??_C@_11LOCGONAA@?$AA?$AA@ 1005c4b8     LIBCMTD:dbgrptw.obj
 0002:000034bc       ??_C@_1BK@PEDCIPMA@?$AAE?$AAx?$AAp?$AAr?$AAe?$AAs?$AAs?$AAi?$AAo?$AAn?$AA?3?$AA?5?$AA?$AA@ 1005c4bc     LIBCMTD:dbgrptw.obj
 0002:000034d8       ??_C@_15IABLJNFO@?$AA?6?$AA?6?$AA?$AA@ 1005c4d8     LIBCMTD:dbgrptw.obj
 0002:000034e0       ??_C@_1BA@GLLGCPCK@?$AA?6?$AAL?$AAi?$AAn?$AAe?$AA?3?$AA?5?$AA?$AA@ 1005c4e0     LIBCMTD:dbgrptw.obj
 0002:000034f0       ??_C@_1BA@LNHECFIM@?$AA?6?$AAF?$AAi?$AAl?$AAe?$AA?3?$AA?5?$AA?$AA@ 1005c4f0     LIBCMTD:dbgrptw.obj
 0002:00003500       ??_C@_1BE@CGCJKGHI@?$AA?6?$AAM?$AAo?$AAd?$AAu?$AAl?$AAe?$AA?3?$AA?5?$AA?$AA@ 1005c500     LIBCMTD:dbgrptw.obj
 0002:00003518       ??_C@_1KM@HNMIBKJH@?$AAD?$AAe?$AAb?$AAu?$AAg?$AA?5?$AA?$CF?$AAs?$AA?$CB?$AA?6?$AA?6?$AAP?$AAr?$AAo?$AAg?$AAr?$AAa?$AAm?$AA?3?$AA?5?$AA?$CF?$AAs?$AA?$CF?$AAs?$AA?$CF?$AAs?$AA?$CF?$AAs?$AA?$CF?$AAs?$AA?$CF?$AAs@ 1005c518     LIBCMTD:dbgrptw.obj
 0002:000035c4       ??_C@_1BI@KALLJECN@?$AA?$CI?$AA?$CK?$AA_?$AAe?$AAr?$AAr?$AAn?$AAo?$AA?$CI?$AA?$CJ?$AA?$CJ?$AA?$AA@ 1005c5c4     LIBCMTD:dbgrptw.obj
 0002:000035e0       ??_C@_1JI@EACPGHID@?$AAw?$AAc?$AAs?$AAc?$AAp?$AAy?$AA_?$AAs?$AA?$CI?$AAs?$AAz?$AAO?$AAu?$AAt?$AAM?$AAe?$AAs?$AAs?$AAa?$AAg?$AAe?$AA?0?$AA?5?$AA4?$AA0?$AA9?$AA6?$AA?0?$AA?5?$AAL?$AA?$CC?$AA_@ 1005c5e0     LIBCMTD:dbgrptw.obj
 0002:00003678       ??_C@_1FG@BBOLDHGF@?$AA_?$AAC?$AAr?$AAt?$AAD?$AAb?$AAg?$AAR?$AAe?$AAp?$AAo?$AAr?$AAt?$AA?3?$AA?5?$AAS?$AAt?$AAr?$AAi?$AAn?$AAg?$AA?5?$AAt?$AAo?$AAo?$AA?5?$AAl?$AAo?$AAn?$AAg?$AA?5?$AAo@ 1005c678     LIBCMTD:dbgrptw.obj
 0002:000036d0       ??_C@_1EK@MBDPDCGA@?$AAM?$AAi?$AAc?$AAr?$AAo?$AAs?$AAo?$AAf?$AAt?$AA?5?$AAV?$AAi?$AAs?$AAu?$AAa?$AAl?$AA?5?$AAC?$AA?$CL?$AA?$CL?$AA?5?$AAR?$AAu?$AAn?$AAt?$AAi?$AAm?$AAe?$AA?5?$AAL?$AAi?$AAb@ 1005c6d0     LIBCMTD:dbgrptw.obj
 0002:00003740       ??_7type_info@@6B@         1005c740     LIBCMTD:typinfo.obj
 0002:00003744       __FPinit                   1005c744     LIBCMTD:fpinit.obj
 0002:00003748       __pDefaultRawDllMain       1005c748     LIBCMTD:dllcrt0.obj
 0002:00003748       __pRawDllMain              1005c748     LIBCMTD:dllcrt0.obj
 0002:0000374c       ??_C@_0CL@OOIKPIHN@f?3?2dd?2vctools?2crt?2crtw32?2startup@ 1005c74c     LIBCMTD:dllcrt0.obj
 0002:00003778       ??_C@_0CJ@LPLBAFNO@f?3?2dd?2vctools?2crt?2crtw32?2startup@ 1005c778     LIBCMTD:mlock.obj
 0002:000037a8       ??_7exception@std@@6B@     1005c7a8     LIBCMTD:stdexcpt.obj
 0002:000037b0       ??_C@_0BC@EOODALEL@Unknown?5exception?$AA@ 1005c7b0     LIBCMTD:stdexcpt.obj
 0002:000037c8       ??_7bad_cast@std@@6B@      1005c7c8     LIBCMTD:stdexcpt.obj
 0002:000037d4       ??_7bad_typeid@std@@6B@    1005c7d4     LIBCMTD:stdexcpt.obj
 0002:000037e0       ??_7__non_rtti_object@std@@6B@ 1005c7e0     LIBCMTD:stdexcpt.obj
 0002:000037e8       ??_C@_1BK@MGMFAEKH@?$AAk?$AAe?$AAr?$AAn?$AAe?$AAl?$AA3?$AA2?$AA?4?$AAd?$AAl?$AAl?$AA?$AA@ 1005c7e8     LIBCMTD:winapisupp.obj
 0002:00003804       ??_C@_08KNHFBNJ@FlsAlloc?$AA@ 1005c804     LIBCMTD:winapisupp.obj
 0002:00003810       ??_C@_07PEJMOBNF@FlsFree?$AA@ 1005c810     LIBCMTD:winapisupp.obj
 0002:00003818       ??_C@_0M@GDNOONDI@FlsGetValue?$AA@ 1005c818     LIBCMTD:winapisupp.obj
 0002:00003824       ??_C@_0M@JCPCPOEF@FlsSetValue?$AA@ 1005c824     LIBCMTD:winapisupp.obj
 0002:00003830       ??_C@_0BM@HCFOFFN@InitializeCriticalSectionEx?$AA@ 1005c830     LIBCMTD:winapisupp.obj
 0002:0000384c       ??_C@_0P@DLHPPCNH@CreateEventExW?$AA@ 1005c84c     LIBCMTD:winapisupp.obj
 0002:0000385c       ??_C@_0BD@KIEEOEEH@CreateSemaphoreExW?$AA@ 1005c85c     LIBCMTD:winapisupp.obj
 0002:00003870       ??_C@_0BI@BKLFFAPO@SetThreadStackGuarantee?$AA@ 1005c870     LIBCMTD:winapisupp.obj
 0002:00003888       ??_C@_0BG@OGFAJCKC@CreateThreadpoolTimer?$AA@ 1005c888     LIBCMTD:winapisupp.obj
 0002:000038a0       ??_C@_0BD@LPLEMMDI@SetThreadpoolTimer?$AA@ 1005c8a0     LIBCMTD:winapisupp.obj
 0002:000038b4       ??_C@_0CA@FMNJENH@WaitForThreadpoolTimerCallbacks?$AA@ 1005c8b4     LIBCMTD:winapisupp.obj
 0002:000038d4       ??_C@_0BF@DCFCCNOC@CloseThreadpoolTimer?$AA@ 1005c8d4     LIBCMTD:winapisupp.obj
 0002:000038ec       ??_C@_0BF@FLABGKKM@CreateThreadpoolWait?$AA@ 1005c8ec     LIBCMTD:winapisupp.obj
 0002:00003904       ??_C@_0BC@MGCOHNA@SetThreadpoolWait?$AA@ 1005c904     LIBCMTD:winapisupp.obj
 0002:00003918       ??_C@_0BE@OCIOMIMP@CloseThreadpoolWait?$AA@ 1005c918     LIBCMTD:winapisupp.obj
 0002:0000392c       ??_C@_0BJ@LKGHFHBO@FlushProcessWriteBuffers?$AA@ 1005c92c     LIBCMTD:winapisupp.obj
 0002:00003948       ??_C@_0BP@KALKKPMO@FreeLibraryWhenCallbackReturns?$AA@ 1005c948     LIBCMTD:winapisupp.obj
 0002:00003968       ??_C@_0BK@DFNBACLA@GetCurrentProcessorNumber?$AA@ 1005c968     LIBCMTD:winapisupp.obj
 0002:00003984       ??_C@_0BP@KHGALBC@GetLogicalProcessorInformation?$AA@ 1005c984     LIBCMTD:winapisupp.obj
 0002:000039a4       ??_C@_0BE@FKKLLFLM@CreateSymbolicLinkW?$AA@ 1005c9a4     LIBCMTD:winapisupp.obj
 0002:000039b8       ??_C@_0BJ@OHNKDLIJ@SetDefaultDllDirectories?$AA@ 1005c9b8     LIBCMTD:winapisupp.obj
 0002:000039d4       ??_C@_0BE@LJANKFHF@EnumSystemLocalesEx?$AA@ 1005c9d4     LIBCMTD:winapisupp.obj
 0002:000039e8       ??_C@_0BA@IHGNDAEB@CompareStringEx?$AA@ 1005c9e8     LIBCMTD:winapisupp.obj
 0002:000039f8       ??_C@_0BA@EPCJIIPD@GetDateFormatEx?$AA@ 1005c9f8     LIBCMTD:winapisupp.obj
 0002:00003a08       ??_C@_0BA@ONOKGCMP@GetLocaleInfoEx?$AA@ 1005ca08     LIBCMTD:winapisupp.obj
 0002:00003a18       ??_C@_0BA@CIJJKCJJ@GetTimeFormatEx?$AA@ 1005ca18     LIBCMTD:winapisupp.obj
 0002:00003a28       ??_C@_0BJ@PBCCBIPI@GetUserDefaultLocaleName?$AA@ 1005ca28     LIBCMTD:winapisupp.obj
 0002:00003a44       ??_C@_0BC@CELBKLLA@IsValidLocaleName?$AA@ 1005ca44     LIBCMTD:winapisupp.obj
 0002:00003a58       ??_C@_0O@KKBNKAPF@LCMapStringEx?$AA@ 1005ca58     LIBCMTD:winapisupp.obj
 0002:00003a68       ??_C@_0BE@JOGNEJCI@GetCurrentPackageId?$AA@ 1005ca68     LIBCMTD:winapisupp.obj
 0002:00003a7c       ??_C@_0P@CDHHOHKP@GetTickCount64?$AA@ 1005ca7c     LIBCMTD:winapisupp.obj
 0002:00003a8c       ??_C@_0BO@KPCLFDJJ@GetFileInformationByHandleExW?$AA@ 1005ca8c     LIBCMTD:winapisupp.obj
 0002:00003aac       ??_C@_0BM@MHIDLABK@SetFileInformationByHandleW?$AA@ 1005caac     LIBCMTD:winapisupp.obj
 0002:00003ac8       ??_C@_1BC@JLLICHIC@?$AAp?$AAn?$AAh?$AA?5?$AA?$DN?$AA?$DN?$AA?5?$AA0?$AA?$AA@ 1005cac8     LIBCMTD:handler.obj
 0002:00003ae0       ??_C@_1FE@HELBPGKC@?$AAf?$AA?3?$AA?2?$AAd?$AAd?$AA?2?$AAv?$AAc?$AAt?$AAo?$AAo?$AAl?$AAs?$AA?2?$AAc?$AAr?$AAt?$AA?2?$AAc?$AAr?$AAt?$AAw?$AA3?$AA2?$AA?2?$AAh?$AAe?$AAa?$AAp?$AA?2?$AAh?$AAa@ 1005cae0     LIBCMTD:handler.obj
 0002:00003b48       ??_C@_04HJMOFLDF@Free?$AA@ 1005cb48     LIBCMTD:dbgheap.obj
 0002:00003b50       ??_C@_06EFAGIKOH@Normal?$AA@ 1005cb50     LIBCMTD:dbgheap.obj
 0002:00003b58       ??_C@_03OGPFLFLO@CRT?$AA@  1005cb58     LIBCMTD:dbgheap.obj
 0002:00003b5c       ??_C@_06KMEJCCGM@Ignore?$AA@ 1005cb5c     LIBCMTD:dbgheap.obj
 0002:00003b64       ??_C@_06PJIGMIJB@Client?$AA@ 1005cb64     LIBCMTD:dbgheap.obj
 0002:00003b6c       ??_C@_1CE@LJFEPPMP@?$AA_?$AAC?$AAr?$AAt?$AAC?$AAh?$AAe?$AAc?$AAk?$AAM?$AAe?$AAm?$AAo?$AAr?$AAy?$AA?$CI?$AA?$CJ?$AA?$AA@ 1005cb6c     LIBCMTD:dbgheap.obj
 0002:00003b90       ??_C@_1FA@JKEKCOIC@?$AAf?$AA?3?$AA?2?$AAd?$AAd?$AA?2?$AAv?$AAc?$AAt?$AAo?$AAo?$AAl?$AAs?$AA?2?$AAc?$AAr?$AAt?$AA?2?$AAc?$AAr?$AAt?$AAw?$AA3?$AA2?$AA?2?$AAm?$AAi?$AAs?$AAc?$AA?2?$AAd?$AAb@ 1005cb90     LIBCMTD:dbgheap.obj
 0002:00003be0       ??_C@_0DF@BBEGIFEK@Client?5hook?5allocation?5failure?5a@ 1005cbe0     LIBCMTD:dbgheap.obj
 0002:00003c18       ??_C@_0CB@CCLOLAHO@Client?5hook?5allocation?5failure?4?6@ 1005cc18     LIBCMTD:dbgheap.obj
 0002:00003c3c       ??_C@_02DKCKIIND@?$CFs?$AA@ 1005cc3c     LIBCMTD:dbgheap.obj
 0002:00003c40       ??_C@_0CF@BICKFLAF@Invalid?5allocation?5size?3?5?$CFIu?5byt@ 1005cc40     LIBCMTD:dbgheap.obj
 0002:00003c68       ??_C@_0DC@JEMAGEKG@Error?3?5memory?5allocation?3?5bad?5me@ 1005cc68     LIBCMTD:dbgheap.obj
 0002:00003c9c       ??_C@_0DI@KKJPDPGM@Client?5hook?5re?9allocation?5failur@ 1005cc9c     LIBCMTD:dbgheap.obj
 0002:00003cd4       ??_C@_0CE@DOFMDOL@Client?5hook?5re?9allocation?5failur@ 1005ccd4     LIBCMTD:dbgheap.obj
 0002:00003cf8       ??_C@_0ED@GPCPBAGP@Invalid?5allocation?5size?3?5?$CFIu?5byt@ 1005ccf8     LIBCMTD:dbgheap.obj
 0002:00003d40       ??_C@_0FA@EFEIGJKG@Error?3?5memory?5allocation?3?5bad?5me@ 1005cd40     LIBCMTD:dbgheap.obj
 0002:00003d90       ??_C@_0EM@LGFLMAGJ@The?5Block?5at?50x?$CFp?5was?5allocated?5@ 1005cd90     LIBCMTD:dbgheap.obj
 0002:00003de0       ??_C@_1EE@GFOPCECE@?$AA_?$AAC?$AAr?$AAt?$AAI?$AAs?$AAV?$AAa?$AAl?$AAi?$AAd?$AAH?$AAe?$AAa?$AAp?$AAP?$AAo?$AAi?$AAn?$AAt?$AAe?$AAr?$AA?$CI?$AAp?$AAU?$AAs?$AAe?$AAr?$AAD?$AAa?$AAt?$AAa@ 1005cde0     LIBCMTD:dbgheap.obj
 0002:00003e28       ??_C@_1IK@DCPKDGNH@?$AAp?$AAO?$AAl?$AAd?$AAB?$AAl?$AAo?$AAc?$AAk?$AA?9?$AA?$DO?$AAn?$AAL?$AAi?$AAn?$AAe?$AA?5?$AA?$DN?$AA?$DN?$AA?5?$AAI?$AAG?$AAN?$AAO?$AAR?$AAE?$AA_?$AAL?$AAI?$AAN?$AAE?$AA?5@ 1005ce28     LIBCMTD:dbgheap.obj
 0002:00003eb4       ??_C@_0DA@HFBKENN@Error?3?5possible?5heap?5corruption?5@ 1005ceb4     LIBCMTD:dbgheap.obj
 0002:00003ee8       ??_C@_1GE@PCKLOLAO@?$AAf?$AAR?$AAe?$AAa?$AAl?$AAl?$AAo?$AAc?$AA?5?$AA?$HM?$AA?$HM?$AA?5?$AA?$CI?$AA?$CB?$AAf?$AAR?$AAe?$AAa?$AAl?$AAl?$AAo?$AAc?$AA?5?$AA?$CG?$AA?$CG?$AA?5?$AAp?$AAN?$AAe?$AAw?$AAB?$AAl@ 1005cee8     LIBCMTD:dbgheap.obj
 0002:00003f4c       ??_C@_1DC@GEFKNOOL@?$AA_?$AAp?$AAL?$AAa?$AAs?$AAt?$AAB?$AAl?$AAo?$AAc?$AAk?$AA?5?$AA?$DN?$AA?$DN?$AA?5?$AAp?$AAO?$AAl?$AAd?$AAB?$AAl?$AAo?$AAc?$AAk?$AA?$AA@ 1005cf4c     LIBCMTD:dbgheap.obj
 0002:00003f80       ??_C@_1DE@KOOKLFBB@?$AA_?$AAp?$AAF?$AAi?$AAr?$AAs?$AAt?$AAB?$AAl?$AAo?$AAc?$AAk?$AA?5?$AA?$DN?$AA?$DN?$AA?5?$AAp?$AAO?$AAl?$AAd?$AAB?$AAl?$AAo?$AAc?$AAk?$AA?$AA@ 1005cf80     LIBCMTD:dbgheap.obj
 0002:00003fb4       ??_C@_1CE@CJACEFBA@?$AAp?$AAU?$AAs?$AAe?$AAr?$AAD?$AAa?$AAt?$AAa?$AA?5?$AA?$CB?$AA?$DN?$AA?5?$AAN?$AAU?$AAL?$AAL?$AA?$AA@ 1005cfb4     LIBCMTD:dbgheap.obj
 0002:00003fd8       ??_C@_1BI@HAPNGHDP@?$AA_?$AAe?$AAx?$AAp?$AAa?$AAn?$AAd?$AA_?$AAd?$AAb?$AAg?$AA?$AA@ 1005cfd8     LIBCMTD:dbgheap.obj
 0002:00003ff0       ??_C@_0EJ@HEIBCIMJ@The?5Block?5at?50x?$CFp?5was?5allocated?5@ 1005cff0     LIBCMTD:dbgheap.obj
 0002:0000403c       ??_C@_0BL@KEIPLFAC@Client?5hook?5free?5failure?4?6?$AA@ 1005d03c     LIBCMTD:dbgheap.obj
 0002:00004058       ??_C@_0KI@JGFOHMEB@HEAP?5CORRUPTION?5DETECTED?3?5before@ 1005d058     LIBCMTD:dbgheap.obj
 0002:00004100       ??_C@_0IK@PJCGLBOB@HEAP?5CORRUPTION?5DETECTED?3?5before@ 1005d100     LIBCMTD:dbgheap.obj
 0002:00004190       ??_C@_0KE@MBMNHHHN@HEAP?5CORRUPTION?5DETECTED?3?5after?5@ 1005d190     LIBCMTD:dbgheap.obj
 0002:00004238       ??_C@_0IG@LEMBDCJK@HEAP?5CORRUPTION?5DETECTED?3?5after?5@ 1005d238     LIBCMTD:dbgheap.obj
 0002:000042c0       ??_C@_1HK@HPCBMDFG@?$AAp?$AAH?$AAe?$AAa?$AAd?$AA?9?$AA?$DO?$AAn?$AAL?$AAi?$AAn?$AAe?$AA?5?$AA?$DN?$AA?$DN?$AA?5?$AAI?$AAG?$AAN?$AAO?$AAR?$AAE?$AA_?$AAL?$AAI?$AAN?$AAE?$AA?5?$AA?$CG?$AA?$CG?$AA?5?$AAp@ 1005d2c0     LIBCMTD:dbgheap.obj
 0002:0000433c       ??_C@_1DM@ODCJIDCP@?$AAp?$AAH?$AAe?$AAa?$AAd?$AA?9?$AA?$DO?$AAn?$AAB?$AAl?$AAo?$AAc?$AAk?$AAU?$AAs?$AAe?$AA?5?$AA?$DN?$AA?$DN?$AA?5?$AAn?$AAB?$AAl?$AAo?$AAc?$AAk?$AAU?$AAs?$AAe?$AA?$AA@ 1005d33c     LIBCMTD:dbgheap.obj
 0002:00004378       ??_C@_1CK@DMAGEMBG@?$AA_?$AAp?$AAL?$AAa?$AAs?$AAt?$AAB?$AAl?$AAo?$AAc?$AAk?$AA?5?$AA?$DN?$AA?$DN?$AA?5?$AAp?$AAH?$AAe?$AAa?$AAd?$AA?$AA@ 1005d378     LIBCMTD:dbgheap.obj
 0002:000043a4       ??_C@_1CM@MMAADDMD@?$AA_?$AAp?$AAF?$AAi?$AAr?$AAs?$AAt?$AAB?$AAl?$AAo?$AAc?$AAk?$AA?5?$AA?$DN?$AA?$DN?$AA?5?$AAp?$AAH?$AAe?$AAa?$AAd?$AA?$AA@ 1005d3a4     LIBCMTD:dbgheap.obj
 0002:000043d0       ??_C@_1BG@MBKOGDLD@?$AA_?$AAm?$AAs?$AAi?$AAz?$AAe?$AA_?$AAd?$AAb?$AAg?$AA?$AA@ 1005d3d0     LIBCMTD:dbgheap.obj
 0002:000043e8       ??_C@_0CE@MKKHMBMK@_heapchk?5fails?5with?5_HEAPBADBEGI@ 1005d3e8     LIBCMTD:dbgheap.obj
 0002:0000440c       ??_C@_0CD@CPKEAPBD@_heapchk?5fails?5with?5_HEAPBADNODE@ 1005d40c     LIBCMTD:dbgheap.obj
 0002:00004430       ??_C@_0CC@MJGLGBDG@_heapchk?5fails?5with?5_HEAPBADEND?4@ 1005d430     LIBCMTD:dbgheap.obj
 0002:00004454       ??_C@_0CC@MFFCHFHO@_heapchk?5fails?5with?5_HEAPBADPTR?4@ 1005d454     LIBCMTD:dbgheap.obj
 0002:00004478       ??_C@_0CL@HNNNMKMJ@_heapchk?5fails?5with?5unknown?5retu@ 1005d478     LIBCMTD:dbgheap.obj
 0002:000044a4       ??_C@_07OHKEFPKJ@DAMAGED?$AA@ 1005d4a4     LIBCMTD:dbgheap.obj
 0002:000044b0       ??_C@_0KA@IHNJJKPL@HEAP?5CORRUPTION?5DETECTED?3?5on?5top@ 1005d4b0     LIBCMTD:dbgheap.obj
 0002:00004550       ??_C@_0IC@BBJIOOJH@HEAP?5CORRUPTION?5DETECTED?3?5on?5top@ 1005d550     LIBCMTD:dbgheap.obj
 0002:000045d8       ??_C@_0EG@DGJMPDBH@?$CFhs?5located?5at?50x?$CFp?5is?5?$CFIu?5bytes@ 1005d5d8     LIBCMTD:dbgheap.obj
 0002:00004620       ??_C@_0CI@JMLBEDHJ@?$CFhs?5located?5at?50x?$CFp?5is?5?$CFIu?5bytes@ 1005d620     LIBCMTD:dbgheap.obj
 0002:00004648       ??_C@_1BHO@NNANJNF@?$AA?$CI?$AAf?$AAN?$AAe?$AAw?$AAB?$AAi?$AAt?$AAs?$AA?$DN?$AA?$DN?$AA_?$AAC?$AAR?$AAT?$AAD?$AAB?$AAG?$AA_?$AAR?$AAE?$AAP?$AAO?$AAR?$AAT?$AA_?$AAF?$AAL?$AAA?$AAG?$AA?$CJ?$AA?5@ 1005d648     LIBCMTD:dbgheap.obj
 0002:000047c8       ??_C@_1BO@GJFDNMNF@?$AA_?$AAC?$AAr?$AAt?$AAS?$AAe?$AAt?$AAD?$AAb?$AAg?$AAF?$AAl?$AAa?$AAg?$AA?$AA@ 1005d7c8     LIBCMTD:dbgheap.obj
 0002:000047e8       ??_C@_1BI@CJGCEEDL@?$AAp?$AAf?$AAn?$AA?5?$AA?$CB?$AA?$DN?$AA?5?$AAN?$AAU?$AAL?$AAL?$AA?$AA@ 1005d7e8     LIBCMTD:dbgheap.obj
 0002:00004800       ??_C@_1DE@GJCKCKEC@?$AA_?$AAC?$AAr?$AAt?$AAD?$AAo?$AAF?$AAo?$AAr?$AAA?$AAl?$AAl?$AAC?$AAl?$AAi?$AAe?$AAn?$AAt?$AAO?$AAb?$AAj?$AAe?$AAc?$AAt?$AAs?$AA?$AA@ 1005d800     LIBCMTD:dbgheap.obj
 0002:00004834       ??_C@_1BM@MIMANDHC@?$AAs?$AAt?$AAa?$AAt?$AAe?$AA?5?$AA?$CB?$AA?$DN?$AA?5?$AAN?$AAU?$AAL?$AAL?$AA?$AA@ 1005d834     LIBCMTD:dbgheap.obj
 0002:00004850       ??_C@_1CE@NJJKELF@?$AA_?$AAC?$AAr?$AAt?$AAM?$AAe?$AAm?$AAC?$AAh?$AAe?$AAc?$AAk?$AAp?$AAo?$AAi?$AAn?$AAt?$AA?$AA@ 1005d850     LIBCMTD:dbgheap.obj
 0002:00004874       ??_C@_0DP@LEFMFBOD@Bad?5memory?5block?5found?5at?50x?$CFp?4?6@ 1005d874     LIBCMTD:dbgheap.obj
 0002:000048b4       ??_C@_0CB@EAAIGELO@Bad?5memory?5block?5found?5at?50x?$CFp?4?6@ 1005d8b4     LIBCMTD:dbgheap.obj
 0002:000048d8       ??_C@_1CE@PDIENACM@?$AA_?$AAC?$AAr?$AAt?$AAM?$AAe?$AAm?$AAD?$AAi?$AAf?$AAf?$AAe?$AAr?$AAe?$AAn?$AAc?$AAe?$AA?$AA@ 1005d8d8     LIBCMTD:dbgheap.obj
 0002:000048fc       ??_C@_1CC@DHPFEMMN@?$AAo?$AAl?$AAd?$AAS?$AAt?$AAa?$AAt?$AAe?$AA?5?$AA?$CB?$AA?$DN?$AA?5?$AAN?$AAU?$AAL?$AAL?$AA?$AA@ 1005d8fc     LIBCMTD:dbgheap.obj
 0002:00004920       ??_C@_1CC@DFPEDFBP@?$AAn?$AAe?$AAw?$AAS?$AAt?$AAa?$AAt?$AAe?$AA?5?$AA?$CB?$AA?$DN?$AA?5?$AAN?$AAU?$AAL?$AAL?$AA?$AA@ 1005d920     LIBCMTD:dbgheap.obj
 0002:00004944       ??_C@_05MKKEDADM@?$CF?42X?5?$AA@ 1005d944     LIBCMTD:dbgheap.obj
 0002:0000494c       ??_C@_1CG@LPFIACGM@?$AA_?$AAp?$AAr?$AAi?$AAn?$AAt?$AAM?$AAe?$AAm?$AAB?$AAl?$AAo?$AAc?$AAk?$AAD?$AAa?$AAt?$AAa?$AA?$AA@ 1005d94c     LIBCMTD:dbgheap.obj
 0002:00004974       ??_C@_0BA@HJBKCELP@?5Data?3?5?$DM?$CFs?$DO?5?$CFs?6?$AA@ 1005d974     LIBCMTD:dbgheap.obj
 0002:00004984       ??_C@_0BE@KCIPKCIA@Dumping?5objects?5?9?$DO?6?$AA@ 1005d984     LIBCMTD:dbgheap.obj
 0002:00004998       ??_C@_0BE@OIEFNFL@?$CDFile?5Error?$CD?$CI?$CFd?$CJ?5?3?5?$AA@ 1005d998     LIBCMTD:dbgheap.obj
 0002:000049ac       ??_C@_0L@JMEFFCCJ@?$CFhs?$CI?$CFd?$CJ?5?3?5?$AA@ 1005d9ac     LIBCMTD:dbgheap.obj
 0002:000049b8       ??_C@_06PKLGBFGM@?$HL?$CFld?$HN?5?$AA@ 1005d9b8     LIBCMTD:dbgheap.obj
 0002:000049c0       ??_C@_0DD@GHNAAKBB@client?5block?5at?50x?$CFp?0?5subtype?5?$CFx@ 1005d9c0     LIBCMTD:dbgheap.obj
 0002:000049f4       ??_C@_0CH@FAGDDGPN@normal?5block?5at?50x?$CFp?0?5?$CFIu?5bytes?5@ 1005d9f4     LIBCMTD:dbgheap.obj
 0002:00004a1c       ??_C@_0DA@MDLBNIBM@crt?5block?5at?50x?$CFp?0?5subtype?5?$CFx?0?5?$CF@ 1005da1c     LIBCMTD:dbgheap.obj
 0002:00004a4c       ??_C@_0BH@GFGKJDCO@Object?5dump?5complete?4?6?$AA@ 1005da4c     LIBCMTD:dbgheap.obj
 0002:00004a64       ??_C@_0BI@JBFPOEJA@Detected?5memory?5leaks?$CB?6?$AA@ 1005da64     LIBCMTD:dbgheap.obj
 0002:00004a7c       ??_C@_1CM@MPNIBKGK@?$AA_?$AAC?$AAr?$AAt?$AAM?$AAe?$AAm?$AAD?$AAu?$AAm?$AAp?$AAS?$AAt?$AAa?$AAt?$AAi?$AAs?$AAt?$AAi?$AAc?$AAs?$AA?$AA@ 1005da7c     LIBCMTD:dbgheap.obj
 0002:00004aa8       ??_C@_0BO@DACNIABB@?$CFId?5bytes?5in?5?$CFId?5?$CFhs?5Blocks?4?6?$AA@ 1005daa8     LIBCMTD:dbgheap.obj
 0002:00004ac8       ??_C@_0CB@BLHDAFNE@Largest?5number?5used?3?5?$CFId?5bytes?4?6@ 1005dac8     LIBCMTD:dbgheap.obj
 0002:00004aec       ??_C@_0BP@DEDHGGGI@Total?5allocations?3?5?$CFId?5bytes?4?6?$AA@ 1005daec     LIBCMTD:dbgheap.obj
 0002:00004b0c       ??_C@_1CE@NPMGPNNP@?$AAI?$AAS?$AA_?$AA2?$AA_?$AAP?$AAO?$AAW?$AA_?$AAN?$AA?$CI?$AAa?$AAl?$AAi?$AAg?$AAn?$AA?$CJ?$AA?$AA@ 1005db0c     LIBCMTD:dbgheap.obj
 0002:00004b30       ??_C@_1DG@DONCJBBJ@?$AA_?$AAa?$AAl?$AAi?$AAg?$AAn?$AAe?$AAd?$AA_?$AAo?$AAf?$AAf?$AAs?$AAe?$AAt?$AA_?$AAm?$AAa?$AAl?$AAl?$AAo?$AAc?$AA_?$AAd?$AAb?$AAg?$AA?$AA@ 1005db30     LIBCMTD:dbgheap.obj
 0002:00004b68       ??_C@_1DK@LFLKFPDA@?$AAo?$AAf?$AAf?$AAs?$AAe?$AAt?$AA?5?$AA?$DN?$AA?$DN?$AA?5?$AA0?$AA?5?$AA?$HM?$AA?$HM?$AA?5?$AAo?$AAf?$AAf?$AAs?$AAe?$AAt?$AA?5?$AA?$DM?$AA?5?$AAs?$AAi?$AAz?$AAe?$AA?$AA@ 1005db68     LIBCMTD:dbgheap.obj
 0002:00004ba8       ??_C@_0EI@NDNJMAJK@The?5block?5at?50x?$CFp?5was?5not?5alloca@ 1005dba8     LIBCMTD:dbgheap.obj
 0002:00004bf0       ??_C@_0DL@PGHMMKNE@Damage?5before?50x?$CFp?5which?5was?5all@ 1005dbf0     LIBCMTD:dbgheap.obj
 0002:00004c2c       ??_C@_1DI@NINIKFFK@?$AA_?$AAa?$AAl?$AAi?$AAg?$AAn?$AAe?$AAd?$AA_?$AAo?$AAf?$AAf?$AAs?$AAe?$AAt?$AA_?$AAr?$AAe?$AAa?$AAl?$AAl?$AAo?$AAc?$AA_?$AAd?$AAb?$AAg?$AA?$AA@ 1005dc2c     LIBCMTD:dbgheap.obj
 0002:00004c68       ??_C@_0EF@PGELACII@The?5block?5at?50x?$CFp?5was?5not?5alloca@ 1005dc68     LIBCMTD:dbgheap.obj
 0002:00004cb0       ??_C@_1CC@MOBIKHH@?$AAm?$AAe?$AAm?$AAb?$AAl?$AAo?$AAc?$AAk?$AA?5?$AA?$CB?$AA?$DN?$AA?5?$AAN?$AAU?$AAL?$AAL?$AA?$AA@ 1005dcb0     LIBCMTD:dbgheap.obj
 0002:00004cd4       ??_C@_1CG@CEGMHIMN@?$AA_?$AAa?$AAl?$AAi?$AAg?$AAn?$AAe?$AAd?$AA_?$AAm?$AAs?$AAi?$AAz?$AAe?$AA_?$AAd?$AAb?$AAg?$AA?$AA@ 1005dcd4     LIBCMTD:dbgheap.obj
 0002:00004cfc       ??_C@_1BI@BGOHAHKC@?$AAm?$AAs?$AAc?$AAo?$AAr?$AAe?$AAe?$AA?4?$AAd?$AAl?$AAl?$AA?$AA@ 1005dcfc     LIBCMTD:crt0dat.obj
 0002:00004d14       ??_C@_0P@MIGLKIOC@CorExitProcess?$AA@ 1005dd14     LIBCMTD:crt0dat.obj
 0002:00004d24       ??_C@_1BO@LKEBEKJP@?$AAp?$AAV?$AAa?$AAl?$AAu?$AAe?$AA?5?$AA?$CB?$AA?$DN?$AA?5?$AAN?$AAU?$AAL?$AAL?$AA?$AA@ 1005dd24     LIBCMTD:crt0dat.obj
 0002:00004d48       ??_C@_1FG@MHCBBJEK@?$AAf?$AA?3?$AA?2?$AAd?$AAd?$AA?2?$AAv?$AAc?$AAt?$AAo?$AAo?$AAl?$AAs?$AA?2?$AAc?$AAr?$AAt?$AA?2?$AAc?$AAr?$AAt?$AAw?$AA3?$AA2?$AA?2?$AAs?$AAt?$AAa?$AAr?$AAt?$AAu?$AAp@ 1005dd48     LIBCMTD:crt0dat.obj
 0002:00004da0       ??_C@_1BK@PNLDCCDP@?$AA_?$AAg?$AAe?$AAt?$AA_?$AAw?$AAp?$AAg?$AAm?$AAp?$AAt?$AAr?$AA?$AA@ 1005dda0     LIBCMTD:crt0dat.obj
 0002:00004dbc       ??_C@_1CC@CDIPMFPD@?$AA_?$AAw?$AAp?$AAg?$AAm?$AAp?$AAt?$AAr?$AA?5?$AA?$CB?$AA?$DN?$AA?5?$AAN?$AAU?$AAL?$AAL?$AA?$AA@ 1005ddbc     LIBCMTD:crt0dat.obj
 0002:00004de0       ??_C@_1BI@COAAPHJK@?$AA_?$AAg?$AAe?$AAt?$AA_?$AAp?$AAg?$AAm?$AAp?$AAt?$AAr?$AA?$AA@ 1005dde0     LIBCMTD:crt0dat.obj
 0002:00004df8       ??_C@_1CA@BBNAFCKO@?$AA_?$AAp?$AAg?$AAm?$AAp?$AAt?$AAr?$AA?5?$AA?$CB?$AA?$DN?$AA?5?$AAN?$AAU?$AAL?$AAL?$AA?$AA@ 1005ddf8     LIBCMTD:crt0dat.obj
 0002:00004e18       ??_C@_1BK@DJNILIMN@?$AAp?$AAa?$AAt?$AAh?$AA?5?$AA?$CB?$AA?$DN?$AA?5?$AAN?$AAU?$AAL?$AAL?$AA?$AA@ 1005de18     LIBCMTD:crt0dat.obj
 0002:00004e34       ??_C@_1DG@KANBJOCK@?$AA_?$AA_?$AAc?$AAo?$AAp?$AAy?$AA_?$AAp?$AAa?$AAt?$AAh?$AA_?$AAt?$AAo?$AA_?$AAw?$AAi?$AAd?$AAe?$AA_?$AAs?$AAt?$AAr?$AAi?$AAn?$AAg?$AA?$AA@ 1005de34     LIBCMTD:crt0dat.obj
 0002:00004e6c       ??_C@_1CA@BGODLPHH@?$AAo?$AAu?$AAt?$AAP?$AAa?$AAt?$AAh?$AA?5?$AA?$CB?$AA?$DN?$AA?5?$AAN?$AAU?$AAL?$AAL?$AA?$AA@ 1005de6c     LIBCMTD:crt0dat.obj
 0002:00004e8c       ??_C@_0CL@LMMOJFEN@f?3?2dd?2vctools?2crt?2crtw32?2startup@ 1005de8c     LIBCMTD:crt0dat.obj
 0002:00004eb8       ??_C@_1CC@NLGECIOD@?$AAi?$AAn?$AAS?$AAt?$AAr?$AAi?$AAn?$AAg?$AA?5?$AA?$CB?$AA?$DN?$AA?5?$AAN?$AAU?$AAL?$AAL?$AA?$AA@ 1005deb8     LIBCMTD:crt0dat.obj
 0002:00004edc       ??_C@_1BO@PNPLHAEP@?$AA_?$AA_?$AAc?$AAo?$AAp?$AAy?$AA_?$AAt?$AAo?$AA_?$AAc?$AAh?$AAa?$AAr?$AA?$AA@ 1005dedc     LIBCMTD:crt0dat.obj
 0002:00004efc       ??_C@_1CE@HIPDKGHC@?$AAo?$AAu?$AAt?$AAS?$AAt?$AAr?$AAi?$AAn?$AAg?$AA?5?$AA?$CB?$AA?$DN?$AA?5?$AAN?$AAU?$AAL?$AAL?$AA?$AA@ 1005defc     LIBCMTD:crt0dat.obj
 0002:00004f20       ??_C@_1EM@IOHICOCC@?$AAf?$AA?3?$AA?2?$AAd?$AAd?$AA?2?$AAv?$AAc?$AAt?$AAo?$AAo?$AAl?$AAs?$AA?2?$AAc?$AAr?$AAt?$AA?2?$AAc?$AAr?$AAt?$AAw?$AA3?$AA2?$AA?2?$AAd?$AAo?$AAs?$AA?2?$AAd?$AAo?$AAs@ 1005df20     LIBCMTD:dosmap.obj
 0002:00004f6c       ??_C@_1BG@KCMPBBDK@?$AA_?$AAg?$AAe?$AAt?$AA_?$AAe?$AAr?$AAr?$AAn?$AAo?$AA?$AA@ 1005df6c     LIBCMTD:dosmap.obj
 0002:00004f84       ??_C@_1BM@INIPHHDD@?$AA_?$AAg?$AAe?$AAt?$AA_?$AAd?$AAo?$AAs?$AAe?$AAr?$AAr?$AAn?$AAo?$AA?$AA@ 1005df84     LIBCMTD:dosmap.obj
 0002:00004fa0       ??_C@_1FC@LFLBLJJB@?$AAf?$AA?3?$AA?2?$AAd?$AAd?$AA?2?$AAv?$AAc?$AAt?$AAo?$AAo?$AAl?$AAs?$AA?2?$AAc?$AAr?$AAt?$AA?2?$AAc?$AAr?$AAt?$AAw?$AA3?$AA2?$AA?2?$AAh?$AA?2?$AAt?$AAc?$AAs?$AAn?$AAc@ 1005dfa0     LIBCMTD:strncpy_s.obj
 0002:00004ff4       ??_C@_1BE@NDMJHJJG@?$AAs?$AAt?$AAr?$AAn?$AAc?$AAp?$AAy?$AA_?$AAs?$AA?$AA@ 1005dff4     LIBCMTD:strncpy_s.obj
 0002:00005008       ??_C@_0CH@FPHLCLAF@f?3?2dd?2vctools?2crt?2crtw32?2stdio?2_@ 1005e008     LIBCMTD:_file.obj
 0002:00005030       ??_C@_1FC@LLDAFLML@?$AAf?$AA?3?$AA?2?$AAd?$AAd?$AA?2?$AAv?$AAc?$AAt?$AAo?$AAo?$AAl?$AAs?$AA?2?$AAc?$AAr?$AAt?$AA?2?$AAc?$AAr?$AAt?$AAw?$AA3?$AA2?$AA?2?$AAs?$AAt?$AAd?$AAi?$AAo?$AA?2?$AAv@ 1005e030     LIBCMTD:vprintf.obj
 0002:00005084       ??_C@_1BO@JGFPDJCP@?$AAv?$AAp?$AAr?$AAi?$AAn?$AAt?$AAf?$AA_?$AAh?$AAe?$AAl?$AAp?$AAe?$AAr?$AA?$AA@ 1005e084     LIBCMTD:vprintf.obj
 0002:000050a4       ??_C@_1BI@MFCLPIBM@?$AAs?$AAt?$AAr?$AA?5?$AA?$CB?$AA?$DN?$AA?5?$AAN?$AAU?$AAL?$AAL?$AA?$AA@ 1005e0a4     LIBCMTD:_sftbuf.obj
 0002:000050c0       ??_C@_1FC@LKGACDMH@?$AAf?$AA?3?$AA?2?$AAd?$AAd?$AA?2?$AAv?$AAc?$AAt?$AAo?$AAo?$AAl?$AAs?$AA?2?$AAc?$AAr?$AAt?$AA?2?$AAc?$AAr?$AAt?$AAw?$AA3?$AA2?$AA?2?$AAs?$AAt?$AAd?$AAi?$AAo?$AA?2?$AA_@ 1005e0c0     LIBCMTD:_sftbuf.obj
 0002:00005114       ??_C@_0CJ@KDJGPIJL@f?3?2dd?2vctools?2crt?2crtw32?2stdio?2_@ 1005e114     LIBCMTD:_sftbuf.obj
 0002:00005140       ??_C@_1CO@KCKAACMI@?$AAf?$AAl?$AAa?$AAg?$AA?5?$AA?$DN?$AA?$DN?$AA?5?$AA0?$AA?5?$AA?$HM?$AA?$HM?$AA?5?$AAf?$AAl?$AAa?$AAg?$AA?5?$AA?$DN?$AA?$DN?$AA?5?$AA1?$AA?$AA@ 1005e140     LIBCMTD:_sftbuf.obj
 0002:00005170       ??_C@_06OJHGLDPL@?$CInull?$CJ?$AA@ 1005e170     LIBCMTD:output.obj
 0002:00005178       ??_C@_1O@CEDCILHN@?$AA?$CI?$AAn?$AAu?$AAl?$AAl?$AA?$CJ?$AA?$AA@ 1005e178     LIBCMTD:output.obj
 0002:00005188       ___lookuptable             1005e188     LIBCMTD:output.obj
 0002:000051e4       ??_C@_1CC@FADMNIL@?$AA?$CI?$AAs?$AAt?$AAr?$AAe?$AAa?$AAm?$AA?5?$AA?$CB?$AA?$DN?$AA?5?$AAN?$AAU?$AAL?$AAL?$AA?$CJ?$AA?$AA@ 1005e1e4     LIBCMTD:output.obj
 0002:00005208       ??_C@_1FA@KMIJDCIC@?$AAf?$AA?3?$AA?2?$AAd?$AAd?$AA?2?$AAv?$AAc?$AAt?$AAo?$AAo?$AAl?$AAs?$AA?2?$AAc?$AAr?$AAt?$AA?2?$AAc?$AAr?$AAt?$AAw?$AA3?$AA2?$AA?2?$AAs?$AAt?$AAd?$AAi?$AAo?$AA?2?$AAo@ 1005e208     LIBCMTD:output.obj
 0002:00005258       ??_C@_1BE@IONLIDNC@?$AA_?$AAo?$AAu?$AAt?$AAp?$AAu?$AAt?$AA_?$AAl?$AA?$AA@ 1005e258     LIBCMTD:output.obj
 0002:00005270       ??_C@_1BAA@ODEGEDCK@?$AA?$CI?$AA?5?$AA?$CI?$AA_?$AAS?$AAt?$AAr?$AAe?$AAa?$AAm?$AA?9?$AA?$DO?$AA_?$AAf?$AAl?$AAa?$AAg?$AA?5?$AA?$CG?$AA?5?$AA_?$AAI?$AAO?$AAS?$AAT?$AAR?$AAG?$AA?$CJ?$AA?5?$AA?$HM?$AA?$HM?$AA?5@ 1005e270     LIBCMTD:output.obj
 0002:00005370       ??_C@_1CC@IFFHEMNF@?$AA?$CI?$AAc?$AAh?$AA?5?$AA?$CB?$AA?$DN?$AA?5?$AA_?$AAT?$AA?$CI?$AA?8?$AA?2?$AA0?$AA?8?$AA?$CJ?$AA?$CJ?$AA?$AA@ 1005e370     LIBCMTD:output.obj
 0002:00005398       ??_C@_1EK@PNGFDECN@?$AA?$CI?$AA?$CC?$AA?8?$AAn?$AA?8?$AA?5?$AAf?$AAo?$AAr?$AAm?$AAa?$AAt?$AA?5?$AAs?$AAp?$AAe?$AAc?$AAi?$AAf?$AAi?$AAe?$AAr?$AA?5?$AAd?$AAi?$AAs?$AAa?$AAb?$AAl?$AAe?$AAd?$AA?$CC@ 1005e398     LIBCMTD:output.obj
 0002:000053e4       ??_C@_0CI@CMOPBIOD@f?3?2dd?2vctools?2crt?2crtw32?2stdio?2o@ 1005e3e4     LIBCMTD:output.obj
 0002:0000540c       ??_C@_03KHJOGHMM@exp?$AA@  1005e40c     LIBCMTD:fpexcept.obj
 0002:00005410       ??_C@_03JGHBODFD@pow?$AA@  1005e410     LIBCMTD:fpexcept.obj
 0002:00005414       ??_C@_03MGHMBJCF@log?$AA@  1005e414     LIBCMTD:fpexcept.obj
 0002:00005418       ??_C@_05HGHHAHAP@log10?$AA@ 1005e418     LIBCMTD:fpexcept.obj
 0002:00005420       ??_C@_04COOMCNPB@sinh?$AA@ 1005e420     LIBCMTD:fpexcept.obj
 0002:00005428       ??_C@_04HPJJNFIM@cosh?$AA@ 1005e428     LIBCMTD:fpexcept.obj
 0002:00005430       ??_C@_04FJHINJAO@tanh?$AA@ 1005e430     LIBCMTD:fpexcept.obj
 0002:00005438       ??_C@_04FIHNOPOL@asin?$AA@ 1005e438     LIBCMTD:fpexcept.obj
 0002:00005440       ??_C@_04PDIFKINK@acos?$AA@ 1005e440     LIBCMTD:fpexcept.obj
 0002:00005448       ??_C@_04MLLJIGOK@atan?$AA@ 1005e448     LIBCMTD:fpexcept.obj
 0002:00005450       ??_C@_05KNGEOGJB@atan2?$AA@ 1005e450     LIBCMTD:fpexcept.obj
 0002:00005458       ??_C@_04EIAKFFMI@sqrt?$AA@ 1005e458     LIBCMTD:fpexcept.obj
 0002:00005460       ??_C@_03BLEJJJBH@sin?$AA@  1005e460     LIBCMTD:fpexcept.obj
 0002:00005464       ??_C@_03LALBNOCG@cos?$AA@  1005e464     LIBCMTD:fpexcept.obj
 0002:00005468       ??_C@_03IIINPABG@tan?$AA@  1005e468     LIBCMTD:fpexcept.obj
 0002:0000546c       ??_C@_04GFPJNGEK@ceil?$AA@ 1005e46c     LIBCMTD:fpexcept.obj
 0002:00005474       ??_C@_05PBJFFIGL@floor?$AA@ 1005e474     LIBCMTD:fpexcept.obj
 0002:0000547c       ??_C@_04ODHECPBC@fabs?$AA@ 1005e47c     LIBCMTD:fpexcept.obj
 0002:00005484       ??_C@_04EHEDPDJG@modf?$AA@ 1005e484     LIBCMTD:fpexcept.obj
 0002:0000548c       ??_C@_05CEJMAHNP@ldexp?$AA@ 1005e48c     LIBCMTD:fpexcept.obj
 0002:00005494       ??_C@_05KBKMEMPO@_cabs?$AA@ 1005e494     LIBCMTD:fpexcept.obj
 0002:0000549c       ??_C@_06MEIMCGCF@_hypot?$AA@ 1005e49c     LIBCMTD:fpexcept.obj
 0002:000054a4       ??_C@_04KEPJIHGP@fmod?$AA@ 1005e4a4     LIBCMTD:fpexcept.obj
 0002:000054ac       ??_C@_05GKKHEGJL@frexp?$AA@ 1005e4ac     LIBCMTD:fpexcept.obj
 0002:000054b4       ??_C@_03MJLDFKDL@_y0?$AA@  1005e4b4     LIBCMTD:fpexcept.obj
 0002:000054b8       ??_C@_03NAKIGLHK@_y1?$AA@  1005e4b8     LIBCMTD:fpexcept.obj
 0002:000054bc       ??_C@_03ONILCKOB@_yn?$AA@  1005e4bc     LIBCMTD:fpexcept.obj
 0002:000054c0       ??_C@_05JGDBENOH@_logb?$AA@ 1005e4c0     LIBCMTD:fpexcept.obj
 0002:000054c8       ??_C@_0L@KDOEJCKC@_nextafter?$AA@ 1005e4c8     LIBCMTD:fpexcept.obj
 0002:000054dc       ??_C@_1BI@GKKCBDMD@?$AAd?$AAs?$AAt?$AA?5?$AA?$CB?$AA?$DN?$AA?5?$AAN?$AAU?$AAL?$AAL?$AA?$AA@ 1005e4dc     LIBCMTD:memcpy_s.obj
 0002:000054f8       ??_C@_1FG@COJCEIPE@?$AAf?$AA?3?$AA?2?$AAd?$AAd?$AA?2?$AAv?$AAc?$AAt?$AAo?$AAo?$AAl?$AAs?$AA?2?$AAc?$AAr?$AAt?$AA?2?$AAc?$AAr?$AAt?$AAw?$AA3?$AA2?$AA?2?$AAs?$AAt?$AAr?$AAi?$AAn?$AAg?$AA?2@ 1005e4f8     LIBCMTD:memcpy_s.obj
 0002:00005550       ??_C@_1BC@GKHDJMGB@?$AAm?$AAe?$AAm?$AAc?$AAp?$AAy?$AA_?$AAs?$AA?$AA@ 1005e550     LIBCMTD:memcpy_s.obj
 0002:00005564       ??_C@_1BI@DCHLDCPP@?$AAs?$AAr?$AAc?$AA?5?$AA?$CB?$AA?$DN?$AA?5?$AAN?$AAU?$AAL?$AAL?$AA?$AA@ 1005e564     LIBCMTD:memcpy_s.obj
 0002:0000557c       ??_C@_1CK@DDKKOLAN@?$AAs?$AAi?$AAz?$AAe?$AAI?$AAn?$AAB?$AAy?$AAt?$AAe?$AAs?$AA?5?$AA?$DO?$AA?$DN?$AA?5?$AAc?$AAo?$AAu?$AAn?$AAt?$AA?$AA@ 1005e57c     LIBCMTD:memcpy_s.obj
 0002:000055a8       ??_C@_1FC@PFMLEHKI@?$AA?$CI?$AA?$CI?$AA_?$AAD?$AAs?$AAt?$AA?$CJ?$AA?$CJ?$AA?5?$AA?$CB?$AA?$DN?$AA?5?$AAN?$AAU?$AAL?$AAL?$AA?5?$AA?$CG?$AA?$CG?$AA?5?$AA?$CI?$AA?$CI?$AA_?$AAS?$AAi?$AAz?$AAe?$AAI?$AAn?$AAW?$AAo?$AAr@ 1005e5a8     LIBCMTD:wcscpy_s.obj
 0002:000055fc       ??_C@_1BC@KIONAFPO@?$AAw?$AAc?$AAs?$AAc?$AAp?$AAy?$AA_?$AAs?$AA?$AA@ 1005e5fc     LIBCMTD:wcscpy_s.obj
 0002:00005610       ??_C@_1FE@HMGHELF@?$AAf?$AA?3?$AA?2?$AAd?$AAd?$AA?2?$AAv?$AAc?$AAt?$AAo?$AAo?$AAl?$AAs?$AA?2?$AAc?$AAr?$AAt?$AA?2?$AAc?$AAr?$AAt?$AAw?$AA3?$AA2?$AA?2?$AAs?$AAt?$AAd?$AAi?$AAo?$AA?2?$AAs@ 1005e610     LIBCMTD:swprintf.obj
 0002:00005664       ??_C@_1BE@BMIJMLDD@?$AA_?$AAs?$AAw?$AAp?$AAr?$AAi?$AAn?$AAt?$AAf?$AA?$AA@ 1005e664     LIBCMTD:swprintf.obj
 0002:00005678       ??_C@_1CC@OLIJCKA@?$AA?$CI?$AAs?$AAt?$AAr?$AAi?$AAn?$AAg?$AA?5?$AA?$CB?$AA?$DN?$AA?5?$AAN?$AAU?$AAL?$AAL?$AA?$CJ?$AA?$AA@ 1005e678     LIBCMTD:swprintf.obj
 0002:0000569c       ??_C@_0CH@KINPIPGE@f?3?2dd?2vctools?2crt?2crtw32?2misc?2wi@ 1005e69c     LIBCMTD:winsig.obj
 0002:000056c4       ??_C@_1DO@MLNEDKGB@?$AA?$CI?$AA?$CC?$AAI?$AAn?$AAv?$AAa?$AAl?$AAi?$AAd?$AA?5?$AAs?$AAi?$AAg?$AAn?$AAa?$AAl?$AA?5?$AAo?$AAr?$AA?5?$AAe?$AAr?$AAr?$AAo?$AAr?$AA?$CC?$AA?0?$AA?5?$AA0?$AA?$CJ?$AA?$AA@ 1005e6c4     LIBCMTD:winsig.obj
 0002:00005708       ??_C@_1EO@BCKLPCCI@?$AAf?$AA?3?$AA?2?$AAd?$AAd?$AA?2?$AAv?$AAc?$AAt?$AAo?$AAo?$AAl?$AAs?$AA?2?$AAc?$AAr?$AAt?$AA?2?$AAc?$AAr?$AAt?$AAw?$AA3?$AA2?$AA?2?$AAm?$AAi?$AAs?$AAc?$AA?2?$AAw?$AAi@ 1005e708     LIBCMTD:winsig.obj
 0002:00005758       ??_C@_1O@EJLDHPPL@?$AAs?$AAi?$AAg?$AAn?$AAa?$AAl?$AA?$AA@ 1005e758     LIBCMTD:winsig.obj
 0002:00005768       ??_C@_1M@DMJEIKHL@?$AAr?$AAa?$AAi?$AAs?$AAe?$AA?$AA@ 1005e768     LIBCMTD:winsig.obj
 0002:00005774       ??_C@_1BG@GOEBHBDC@?$AAU?$AAS?$AAE?$AAR?$AA3?$AA2?$AA?4?$AAD?$AAL?$AAL?$AA?$AA@ 1005e774     LIBCMTD:crtmboxw.obj
 0002:0000578c       ??_C@_0M@DLDCCGNP@MessageBoxW?$AA@ 1005e78c     LIBCMTD:crtmboxw.obj
 0002:00005798       ??_C@_0BA@HNOPNCHB@GetActiveWindow?$AA@ 1005e798     LIBCMTD:crtmboxw.obj
 0002:000057a8       ??_C@_0BD@HHGDFDBJ@GetLastActivePopup?$AA@ 1005e7a8     LIBCMTD:crtmboxw.obj
 0002:000057bc       ??_C@_0BK@DEKFELLI@GetUserObjectInformationW?$AA@ 1005e7bc     LIBCMTD:crtmboxw.obj
 0002:000057d8       ??_C@_0BI@DFKBFLJE@GetProcessWindowStation?$AA@ 1005e7d8     LIBCMTD:crtmboxw.obj
 0002:000057f0       ??_C@_1FA@IFFFOLDJ@?$AAn?$AAR?$AAp?$AAt?$AAT?$AAy?$AAp?$AAe?$AA?5?$AA?$DO?$AA?$DN?$AA?5?$AA0?$AA?5?$AA?$CG?$AA?$CG?$AA?5?$AAn?$AAR?$AAp?$AAt?$AAT?$AAy?$AAp?$AAe?$AA?5?$AA?$DM?$AA?5?$AA_?$AAC?$AAR?$AAT@ 1005e7f0     LIBCMTD:dbgrptt.obj
 0002:00005840       ??_C@_1FA@PPLJBGMP@?$AAf?$AA?3?$AA?2?$AAd?$AAd?$AA?2?$AAv?$AAc?$AAt?$AAo?$AAo?$AAl?$AAs?$AA?2?$AAc?$AAr?$AAt?$AA?2?$AAc?$AAr?$AAt?$AAw?$AA3?$AA2?$AA?2?$AAm?$AAi?$AAs?$AAc?$AA?2?$AAd?$AAb@ 1005e840     LIBCMTD:dbgrptt.obj
 0002:00005890       ??_C@_1CE@FIHIECNJ@?$AA_?$AAC?$AAr?$AAt?$AAS?$AAe?$AAt?$AAR?$AAe?$AAp?$AAo?$AAr?$AAt?$AAM?$AAo?$AAd?$AAe?$AA?$AA@ 1005e890     LIBCMTD:dbgrptt.obj
 0002:000058b8       ??_C@_1NK@LOFHIHFC@?$AAf?$AAM?$AAo?$AAd?$AAe?$AA?5?$AA?$DN?$AA?$DN?$AA?5?$AA_?$AAC?$AAR?$AAT?$AAD?$AAB?$AAG?$AA_?$AAR?$AAE?$AAP?$AAO?$AAR?$AAT?$AA_?$AAM?$AAO?$AAD?$AAE?$AA?5?$AA?$HM?$AA?$HM?$AA?5@ 1005e8b8     LIBCMTD:dbgrptt.obj
 0002:00005994       ??_C@_1CE@IKKEDCME@?$AA_?$AAC?$AAr?$AAt?$AAS?$AAe?$AAt?$AAR?$AAe?$AAp?$AAo?$AAr?$AAt?$AAF?$AAi?$AAl?$AAe?$AA?$AA@ 1005e994     LIBCMTD:dbgrptt.obj
 0002:000059b8       ??_C@_1CA@KHJHLKA@?$AA_?$AAV?$AAC?$AAr?$AAt?$AAD?$AAb?$AAg?$AAR?$AAe?$AAp?$AAo?$AAr?$AAt?$AAA?$AA?$AA@ 1005e9b8     LIBCMTD:dbgrptt.obj
 0002:000059d8       ??_C@_1FA@JPHJBHEM@?$AA_?$AAi?$AAt?$AAo?$AAa?$AA_?$AAs?$AA?$CI?$AAn?$AAL?$AAi?$AAn?$AAe?$AA?0?$AA?5?$AAs?$AAz?$AAL?$AAi?$AAn?$AAe?$AAM?$AAe?$AAs?$AAs?$AAa?$AAg?$AAe?$AA?0?$AA?5?$AA4?$AA0@ 1005e9d8     LIBCMTD:dbgrptt.obj
 0002:00005a28       ??_C@_0CG@BNGLOCEO@Second?5Chance?5Assertion?5Failed?3?5@ 1005ea28     LIBCMTD:dbgrptt.obj
 0002:00005a50       ??_C@_0P@DFJNDPOP@?$DMfile?5unknown?$DO?$AA@ 1005ea50     LIBCMTD:dbgrptt.obj
 0002:00005a60       ??_C@_07BHGABMGB@?0?5Line?5?$AA@ 1005ea60     LIBCMTD:dbgrptt.obj
 0002:00005a68       ??_C@_01EEMJAFIK@?6?$AA@   1005ea68     LIBCMTD:dbgrptt.obj
 0002:00005a70       ??_C@_1JI@GAALPGBM@?$AAs?$AAt?$AAr?$AAc?$AAp?$AAy?$AA_?$AAs?$AA?$CI?$AAs?$AAz?$AAU?$AAs?$AAe?$AAr?$AAM?$AAe?$AAs?$AAs?$AAa?$AAg?$AAe?$AA?0?$AA?5?$AA4?$AA0?$AA9?$AA6?$AA?0?$AA?5?$AA?$CC?$AA_@ 1005ea70     LIBCMTD:dbgrptt.obj
 0002:00005b08       ??_C@_0CL@EACFGMNB@_CrtDbgReport?3?5String?5too?5long?5o@ 1005eb08     LIBCMTD:dbgrptt.obj
 0002:00005b38       ??_C@_1KK@GIGAEDMO@?$AAs?$AAt?$AAr?$AAc?$AAp?$AAy?$AA_?$AAs?$AA?$CI?$AAs?$AAz?$AAL?$AAi?$AAn?$AAe?$AAM?$AAe?$AAs?$AAs?$AAa?$AAg?$AAe?$AA?0?$AA?5?$AA4?$AA0?$AA9?$AA6?$AA?0?$AA?5?$AAs?$AAz@ 1005eb38     LIBCMTD:dbgrptt.obj
 0002:00005be4       ??_C@_0BD@CAENFOHP@Assertion?5failed?3?5?$AA@ 1005ebe4     LIBCMTD:dbgrptt.obj
 0002:00005bf8       ??_C@_0BC@LAIDCHCH@Assertion?5failed?$CB?$AA@ 1005ebf8     LIBCMTD:dbgrptt.obj
 0002:00005c10       ??_C@_1FK@NPGBPOFO@?$AAs?$AAt?$AAr?$AAc?$AAa?$AAt?$AA_?$AAs?$AA?$CI?$AAs?$AAz?$AAL?$AAi?$AAn?$AAe?$AAM?$AAe?$AAs?$AAs?$AAa?$AAg?$AAe?$AA?0?$AA?5?$AA4?$AA0?$AA9?$AA6?$AA?0?$AA?5?$AAs?$AAz@ 1005ec10     LIBCMTD:dbgrptt.obj
 0002:00005c70       ??_C@_1EI@CACDLAFK@?$AAs?$AAt?$AAr?$AAc?$AAa?$AAt?$AA_?$AAs?$AA?$CI?$AAs?$AAz?$AAL?$AAi?$AAn?$AAe?$AAM?$AAe?$AAs?$AAs?$AAa?$AAg?$AAe?$AA?0?$AA?5?$AA4?$AA0?$AA9?$AA6?$AA?0?$AA?5?$AA?$CC?$AA?2@ 1005ec70     LIBCMTD:dbgrptt.obj
 0002:00005cb8       ??_C@_01LIIJDEN@?$AN?$AA@  1005ecb8     LIBCMTD:dbgrptt.obj
 0002:00005cc0       ??_C@_1EI@LDHJEDO@?$AAs?$AAt?$AAr?$AAc?$AAa?$AAt?$AA_?$AAs?$AA?$CI?$AAs?$AAz?$AAL?$AAi?$AAn?$AAe?$AAM?$AAe?$AAs?$AAs?$AAa?$AAg?$AAe?$AA?0?$AA?5?$AA4?$AA0?$AA9?$AA6?$AA?0?$AA?5?$AA?$CC?$AA?2@ 1005ecc0     LIBCMTD:dbgrptt.obj
 0002:00005d08       ??_C@_0M@IPILFDFN@?$CFs?$CI?$CFd?$CJ?5?3?5?$CFs?$AA@ 1005ed08     LIBCMTD:dbgrptt.obj
 0002:00005d18       ??_C@_1JG@CPKCIOEE@?$AAs?$AAt?$AAr?$AAc?$AAp?$AAy?$AA_?$AAs?$AA?$CI?$AAs?$AAz?$AAO?$AAu?$AAt?$AAM?$AAe?$AAs?$AAs?$AAa?$AAg?$AAe?$AA?0?$AA?5?$AA4?$AA0?$AA9?$AA6?$AA?0?$AA?5?$AA?$CC?$AA_?$AAC@ 1005ed18     LIBCMTD:dbgrptt.obj
 0002:00005db0       ??_C@_1FI@IBIOIHEG@?$AAs?$AAt?$AAr?$AAc?$AAp?$AAy?$AA_?$AAs?$AA?$CI?$AAs?$AAz?$AAO?$AAu?$AAt?$AAM?$AAe?$AAs?$AAs?$AAa?$AAg?$AAe?$AA?0?$AA?5?$AA4?$AA0?$AA9?$AA6?$AA?0?$AA?5?$AAs?$AAz?$AAL@ 1005edb0     LIBCMTD:dbgrptt.obj
 0002:00005e08       ??_C@_1IM@OOKIFKOH@?$AAe?$AA?5?$AA?$DN?$AA?5?$AAm?$AAb?$AAs?$AAt?$AAo?$AAw?$AAc?$AAs?$AA_?$AAs?$AA?$CI?$AA?$CG?$AAr?$AAe?$AAt?$AA?0?$AA?5?$AAs?$AAz?$AAO?$AAu?$AAt?$AAM?$AAe?$AAs?$AAs?$AAa?$AAg@ 1005ee08     LIBCMTD:dbgrptt.obj
 0002:00005e98       ??_C@_1MC@IGEECMDB@?$AAw?$AAc?$AAs?$AAc?$AAp?$AAy?$AA_?$AAs?$AA?$CI?$AAs?$AAz?$AAO?$AAu?$AAt?$AAM?$AAe?$AAs?$AAs?$AAa?$AAg?$AAe?$AA2?$AA?0?$AA?5?$AA4?$AA0?$AA9?$AA6?$AA?0?$AA?5?$AAL?$AA?$CC@ 1005ee98     LIBCMTD:dbgrptt.obj
 0002:00005f60       ??_C@_1HO@PJOFIKFE@?$AA_?$AAC?$AAr?$AAt?$AAD?$AAb?$AAg?$AAR?$AAe?$AAp?$AAo?$AAr?$AAt?$AA?3?$AA?5?$AAS?$AAt?$AAr?$AAi?$AAn?$AAg?$AA?5?$AAt?$AAo?$AAo?$AA?5?$AAl?$AAo?$AAn?$AAg?$AA?5?$AAo@ 1005ef60     LIBCMTD:dbgrptt.obj
 0002:00005fe0       ??_C@_1CA@HPALHDOD@?$AA_?$AAV?$AAC?$AAr?$AAt?$AAD?$AAb?$AAg?$AAR?$AAe?$AAp?$AAo?$AAr?$AAt?$AAW?$AA?$AA@ 1005efe0     LIBCMTD:dbgrptt.obj
 0002:00006000       ??_C@_1FA@CNLLOMHI@?$AA_?$AAi?$AAt?$AAo?$AAw?$AA_?$AAs?$AA?$CI?$AAn?$AAL?$AAi?$AAn?$AAe?$AA?0?$AA?5?$AAs?$AAz?$AAL?$AAi?$AAn?$AAe?$AAM?$AAe?$AAs?$AAs?$AAa?$AAg?$AAe?$AA?0?$AA?5?$AA4?$AA0@ 1005f000     LIBCMTD:dbgrptt.obj
 0002:00006050       ??_C@_1EM@MJFLEDMB@?$AAS?$AAe?$AAc?$AAo?$AAn?$AAd?$AA?5?$AAC?$AAh?$AAa?$AAn?$AAc?$AAe?$AA?5?$AAA?$AAs?$AAs?$AAe?$AAr?$AAt?$AAi?$AAo?$AAn?$AA?5?$AAF?$AAa?$AAi?$AAl?$AAe?$AAd?$AA?3?$AA?5@ 1005f050     LIBCMTD:dbgrptt.obj
 0002:0000609c       ??_C@_1BO@OCHMLCAG@?$AA?$DM?$AAf?$AAi?$AAl?$AAe?$AA?5?$AAu?$AAn?$AAk?$AAn?$AAo?$AAw?$AAn?$AA?$DO?$AA?$AA@ 1005f09c     LIBCMTD:dbgrptt.obj
 0002:000060bc       ??_C@_1BA@ELMMDCFC@?$AA?0?$AA?5?$AAL?$AAi?$AAn?$AAe?$AA?5?$AA?$AA@ 1005f0bc     LIBCMTD:dbgrptt.obj
 0002:000060cc       ??_C@_13LBAGMAIH@?$AA?6?$AA?$AA@ 1005f0cc     LIBCMTD:dbgrptt.obj
 0002:000060d0       ??_C@_1JK@KHFABAEO@?$AAw?$AAc?$AAs?$AAc?$AAp?$AAy?$AA_?$AAs?$AA?$CI?$AAs?$AAz?$AAU?$AAs?$AAe?$AAr?$AAM?$AAe?$AAs?$AAs?$AAa?$AAg?$AAe?$AA?0?$AA?5?$AA4?$AA0?$AA9?$AA6?$AA?0?$AA?5?$AAL?$AA?$CC@ 1005f0d0     LIBCMTD:dbgrptt.obj
 0002:00006170       ??_C@_1KO@DGAHENCH@?$AAw?$AAc?$AAs?$AAc?$AAp?$AAy?$AA_?$AAs?$AA?$CI?$AAs?$AAz?$AAL?$AAi?$AAn?$AAe?$AAM?$AAe?$AAs?$AAs?$AAa?$AAg?$AAe?$AA?0?$AA?5?$AA4?$AA0?$AA9?$AA6?$AA?0?$AA?5?$AAs?$AAz@ 1005f170     LIBCMTD:dbgrptt.obj
 0002:00006220       ??_C@_1CG@FFFGGODN@?$AAA?$AAs?$AAs?$AAe?$AAr?$AAt?$AAi?$AAo?$AAn?$AA?5?$AAf?$AAa?$AAi?$AAl?$AAe?$AAd?$AA?3?$AA?5?$AA?$AA@ 1005f220     LIBCMTD:dbgrptt.obj
 0002:00006248       ??_C@_1CE@OJBNHDMO@?$AAA?$AAs?$AAs?$AAe?$AAr?$AAt?$AAi?$AAo?$AAn?$AA?5?$AAf?$AAa?$AAi?$AAl?$AAe?$AAd?$AA?$CB?$AA?$AA@ 1005f248     LIBCMTD:dbgrptt.obj
 0002:00006270       ??_C@_1FK@HPADHBBD@?$AAw?$AAc?$AAs?$AAc?$AAa?$AAt?$AA_?$AAs?$AA?$CI?$AAs?$AAz?$AAL?$AAi?$AAn?$AAe?$AAM?$AAe?$AAs?$AAs?$AAa?$AAg?$AAe?$AA?0?$AA?5?$AA4?$AA0?$AA9?$AA6?$AA?0?$AA?5?$AAs?$AAz@ 1005f270     LIBCMTD:dbgrptt.obj
 0002:000062d0       ??_C@_1EK@NMDFGHMF@?$AAw?$AAc?$AAs?$AAc?$AAa?$AAt?$AA_?$AAs?$AA?$CI?$AAs?$AAz?$AAL?$AAi?$AAn?$AAe?$AAM?$AAe?$AAs?$AAs?$AAa?$AAg?$AAe?$AA?0?$AA?5?$AA4?$AA0?$AA9?$AA6?$AA?0?$AA?5?$AAL?$AA?$CC@ 1005f2d0     LIBCMTD:dbgrptt.obj
 0002:0000631c       ??_C@_13CMNBPIDO@?$AA?$AN?$AA?$AA@ 1005f31c     LIBCMTD:dbgrptt.obj
 0002:00006320       ??_C@_1EK@PHCBEDKB@?$AAw?$AAc?$AAs?$AAc?$AAa?$AAt?$AA_?$AAs?$AA?$CI?$AAs?$AAz?$AAL?$AAi?$AAn?$AAe?$AAM?$AAe?$AAs?$AAs?$AAa?$AAg?$AAe?$AA?0?$AA?5?$AA4?$AA0?$AA9?$AA6?$AA?0?$AA?5?$AAL?$AA?$CC@ 1005f320     LIBCMTD:dbgrptt.obj
 0002:0000636c       ??_C@_1BI@JIDBEPIG@?$AA?$CF?$AAs?$AA?$CI?$AA?$CF?$AAd?$AA?$CJ?$AA?5?$AA?3?$AA?5?$AA?$CF?$AAs?$AA?$AA@ 1005f36c     LIBCMTD:dbgrptt.obj
 0002:00006388       ??_C@_1FI@DBAIJPJE@?$AAw?$AAc?$AAs?$AAc?$AAp?$AAy?$AA_?$AAs?$AA?$CI?$AAs?$AAz?$AAO?$AAu?$AAt?$AAM?$AAe?$AAs?$AAs?$AAa?$AAg?$AAe?$AA?0?$AA?5?$AA4?$AA0?$AA9?$AA6?$AA?0?$AA?5?$AAs?$AAz?$AAL@ 1005f388     LIBCMTD:dbgrptt.obj
 0002:000063e0       ??_C@_1JC@EOAPFDLN@?$AAw?$AAc?$AAs?$AAt?$AAo?$AAm?$AAb?$AAs?$AA_?$AAs?$AA?$CI?$AA?$CI?$AA?$CI?$AAv?$AAo?$AAi?$AAd?$AA?5?$AA?$CK?$AA?$CJ?$AA0?$AA?$CJ?$AA?0?$AA?5?$AAs?$AAz?$AAO?$AAu?$AAt?$AAM?$AAe?$AAs@ 1005f3e0     LIBCMTD:dbgrptt.obj
 0002:00006478       ??_C@_1MA@LBAMNNOB@?$AAs?$AAt?$AAr?$AAc?$AAp?$AAy?$AA_?$AAs?$AA?$CI?$AAs?$AAz?$AAO?$AAu?$AAt?$AAM?$AAe?$AAs?$AAs?$AAa?$AAg?$AAe?$AA2?$AA?0?$AA?5?$AA4?$AA0?$AA9?$AA6?$AA?0?$AA?5?$AA?$CC?$AA_@ 1005f478     LIBCMTD:dbgrptt.obj
 0002:00006538       ??_C@_0DP@GNPEPHJD@_CrtDbgReport?3?5String?5too?5long?5o@ 1005f538     LIBCMTD:dbgrptt.obj
 0002:00006578       ??_C@_1IE@CPGKIAGP@?$AAw?$AAc?$AAs?$AAt?$AAo?$AAm?$AAb?$AAs?$AA_?$AAs?$AA?$CI?$AA?$CG?$AAr?$AAe?$AAt?$AA?0?$AA?5?$AAs?$AAz?$AAa?$AAO?$AAu?$AAt?$AAM?$AAe?$AAs?$AAs?$AAa?$AAg?$AAe?$AA?0?$AA?5@ 1005f578     LIBCMTD:dbgrptt.obj
 0002:000065fc       ??_C@_0CM@KPPOKOAI@f?3?2dd?2vctools?2crt?2crtw32?2startup@ 1005f5fc     LIBCMTD:tidtable.obj
 0002:00006628       __pDestructExceptionObject 1005f628     LIBCMTD:frame.obj
 0002:00006630       ??_7bad_exception@std@@6B@ 1005f630     LIBCMTD:frame.obj
 0002:00006638       ??_C@_0O@DPKOEFFH@bad?5exception?$AA@ 1005f638     LIBCMTD:frame.obj
 0002:00006648       ??_C@_1CK@GELGGBDK@?$AAp?$AAN?$AAo?$AAd?$AAe?$AA?9?$AA?$DO?$AA_?$AAN?$AAe?$AAx?$AAt?$AA?5?$AA?$CB?$AA?$DN?$AA?5?$AAN?$AAU?$AAL?$AAL?$AA?$AA@ 1005f648     LIBCMTD:typname.obj
 0002:00006678       ??_C@_1FA@KAJOMDBA@?$AAf?$AA?3?$AA?2?$AAd?$AAd?$AA?2?$AAv?$AAc?$AAt?$AAo?$AAo?$AAl?$AAs?$AA?2?$AAc?$AAr?$AAt?$AA?2?$AAc?$AAr?$AAt?$AAw?$AA3?$AA2?$AA?2?$AAe?$AAh?$AA?2?$AAt?$AAy?$AAp?$AAn@ 1005f678     LIBCMTD:typname.obj
 0002:000066c8       ??_C@_1CM@OOICDMK@?$AAt?$AAy?$AAp?$AAe?$AA_?$AAi?$AAn?$AAf?$AAo?$AA?3?$AA?3?$AA_?$AAN?$AAa?$AAm?$AAe?$AA_?$AAb?$AAa?$AAs?$AAe?$AA?$AA@ 1005f6c8     LIBCMTD:typname.obj
 0002:000066f8       ??_C@_1JK@NAFNEPGC@?$AAs?$AAt?$AAr?$AAc?$AAp?$AAy?$AA_?$AAs?$AA?5?$AA?$CI?$AA?$CI?$AAc?$AAh?$AAa?$AAr?$AA?5?$AA?$CK?$AA?$CJ?$AA?$CI?$AA?$CI?$AAt?$AAy?$AAp?$AAe?$AA_?$AAi?$AAn?$AAf?$AAo?$AA?5?$AA?$CK?$AA?$CJ@ 1005f6f8     LIBCMTD:typname.obj
 0002:00006794       ??_C@_1DO@OJJLFJPE@?$AAt?$AAy?$AAp?$AAe?$AA_?$AAi?$AAn?$AAf?$AAo?$AA?3?$AA?3?$AA_?$AAN?$AAa?$AAm?$AAe?$AA_?$AAb?$AAa?$AAs?$AAe?$AA_?$AAi?$AAn?$AAt?$AAe?$AAr?$AAn?$AAa?$AAl?$AA?$AA@ 1005f794     LIBCMTD:typname.obj
 0002:000067d8       ??_C@_1GI@EAJKJPED@?$AAs?$AAt?$AAr?$AAc?$AAp?$AAy?$AA_?$AAs?$AA?5?$AA?$CI?$AAp?$AAT?$AAm?$AAp?$AAT?$AAy?$AAp?$AAe?$AAN?$AAa?$AAm?$AAe?$AA?0?$AA?5?$AAl?$AAe?$AAn?$AA?$CL?$AA2?$AA?0?$AA?5?$AA?$CI@ 1005f7d8     LIBCMTD:typname.obj
 0002:00006840       ??_C@_1BI@ICGGMGLK@?$AAb?$AAu?$AAf?$AA?5?$AA?$CB?$AA?$DN?$AA?5?$AAN?$AAU?$AAL?$AAL?$AA?$AA@ 1005f840     LIBCMTD:cvt.obj
 0002:00006858       ??_C@_1EG@OHONNKNN@?$AAf?$AA?3?$AA?2?$AAd?$AAd?$AA?2?$AAv?$AAc?$AAt?$AAo?$AAo?$AAl?$AAs?$AA?2?$AAc?$AAr?$AAt?$AA?2?$AAf?$AAp?$AAw?$AA3?$AA2?$AA?2?$AAc?$AAo?$AAn?$AAv?$AA?2?$AAc?$AAv?$AAt@ 1005f858     LIBCMTD:cvt.obj
 0002:000068a0       ??_C@_1BE@OLBNEILL@?$AA_?$AAc?$AAf?$AAt?$AAo?$AAe?$AA2?$AA_?$AAl?$AA?$AA@ 1005f8a0     LIBCMTD:cvt.obj
 0002:000068b4       ??_C@_1CA@CBMNPEO@?$AAs?$AAi?$AAz?$AAe?$AAI?$AAn?$AAB?$AAy?$AAt?$AAe?$AAs?$AA?5?$AA?$DO?$AA?5?$AA0?$AA?$AA@ 1005f8b4     LIBCMTD:cvt.obj
 0002:000068d8       ??_C@_1HE@NACBNDPP@?$AAs?$AAi?$AAz?$AAe?$AAI?$AAn?$AAB?$AAy?$AAt?$AAe?$AAs?$AA?5?$AA?$DO?$AA?5?$AA?$CI?$AAs?$AAi?$AAz?$AAe?$AA_?$AAt?$AA?$CJ?$AA?$CI?$AA3?$AA?5?$AA?$CL?$AA?5?$AA?$CI?$AAn?$AAd?$AAe?$AAc@ 1005f8d8     LIBCMTD:cvt.obj
 0002:00006950       ??_C@_1LE@EOIFGNCJ@?$AAs?$AAt?$AAr?$AAc?$AAp?$AAy?$AA_?$AAs?$AA?$CI?$AAp?$AA?0?$AA?5?$AA?$CI?$AAs?$AAi?$AAz?$AAe?$AAI?$AAn?$AAB?$AAy?$AAt?$AAe?$AAs?$AA?5?$AA?$DN?$AA?$DN?$AA?5?$AA?$CI?$AAs?$AAi?$AAz@ 1005f950     LIBCMTD:cvt.obj
 0002:00006a04       ??_C@_05KLBDPFGC@e?$CL000?$AA@ 1005fa04     LIBCMTD:cvt.obj
 0002:00006a0c       ??_C@_1BC@INKAPMHI@?$AA_?$AAc?$AAf?$AAt?$AAo?$AAe?$AA_?$AAl?$AA?$AA@ 1005fa0c     LIBCMTD:cvt.obj
 0002:00006a20       ??_C@_1BC@JOKPCIC@?$AA_?$AAc?$AAf?$AAt?$AAo?$AAa?$AA_?$AAl?$AA?$AA@ 1005fa20     LIBCMTD:cvt.obj
 0002:00006a38       ??_C@_1FC@IKIMAMJB@?$AAs?$AAi?$AAz?$AAe?$AAI?$AAn?$AAB?$AAy?$AAt?$AAe?$AAs?$AA?5?$AA?$DO?$AA?5?$AA?$CI?$AAs?$AAi?$AAz?$AAe?$AA_?$AAt?$AA?$CJ?$AA?$CI?$AA1?$AA?5?$AA?$CL?$AA?5?$AA4?$AA?5?$AA?$CL?$AA?5?$AAn@ 1005fa38     LIBCMTD:cvt.obj
 0002:00006a8c       ??_C@_1BE@CKPDLI@?$AA_?$AAc?$AAf?$AAt?$AAo?$AAf?$AA2?$AA_?$AAl?$AA?$AA@ 1005fa8c     LIBCMTD:cvt.obj
 0002:00006aa0       ??_C@_1BC@DCPPLJL@?$AA_?$AAc?$AAf?$AAt?$AAo?$AAf?$AA_?$AAl?$AA?$AA@ 1005faa0     LIBCMTD:cvt.obj
 0002:00006ab4       ??_C@_1BC@MPIFPLAF@?$AA_?$AAc?$AAf?$AAt?$AAo?$AAg?$AA_?$AAl?$AA?$AA@ 1005fab4     LIBCMTD:cvt.obj
 0002:00006ac8       ??_C@_1FI@JJOJLGLE@?$AAf?$AA?3?$AA?2?$AAd?$AAd?$AA?2?$AAv?$AAc?$AAt?$AAo?$AAo?$AAl?$AAs?$AA?2?$AAc?$AAr?$AAt?$AA?2?$AAc?$AAr?$AAt?$AAw?$AA3?$AA2?$AA?2?$AAs?$AAt?$AAa?$AAr?$AAt?$AAu?$AAp@ 1005fac8     LIBCMTD:fp8.obj
 0002:00006b20       ??_C@_1CK@JMKHCBEI@?$AA_?$AAs?$AAe?$AAt?$AAd?$AAe?$AAf?$AAa?$AAu?$AAl?$AAt?$AAp?$AAr?$AAe?$AAc?$AAi?$AAs?$AAi?$AAo?$AAn?$AA?$AA@ 1005fb20     LIBCMTD:fp8.obj
 0002:00006b50       ??_C@_1GE@KOCFNGPB@?$AA_?$AAc?$AAo?$AAn?$AAt?$AAr?$AAo?$AAl?$AAf?$AAp?$AA_?$AAs?$AA?$CI?$AA?$CI?$AA?$CI?$AAv?$AAo?$AAi?$AAd?$AA?5?$AA?$CK?$AA?$CJ?$AA0?$AA?$CJ?$AA?0?$AA?5?$AA0?$AAx?$AA0?$AA0?$AA0?$AA1@ 1005fb50     LIBCMTD:fp8.obj
 0002:00006bb8       __XcptActTab               1005fbb8     LIBCMTD:winxfltr.obj
 0002:00006c48       __XcptActTabCount          1005fc48     LIBCMTD:winxfltr.obj
 0002:00006c4c       __XcptActTabSize           1005fc4c     LIBCMTD:winxfltr.obj
 0002:00006c50       __First_FPE_Indx           1005fc50     LIBCMTD:winxfltr.obj
 0002:00006c54       __Num_FPE                  1005fc54     LIBCMTD:winxfltr.obj
 0002:00006c58       ??_C@_1BC@DENNNKIM@?$AA_?$AAc?$AAr?$AAt?$AAh?$AAe?$AAa?$AAp?$AA?$AA@ 1005fc58     LIBCMTD:heapinit.obj
 0002:00006c70       ??_C@_1FC@JOHAHJGP@?$AAf?$AA?3?$AA?2?$AAd?$AAd?$AA?2?$AAv?$AAc?$AAt?$AAo?$AAo?$AAl?$AAs?$AA?2?$AAc?$AAr?$AAt?$AA?2?$AAc?$AAr?$AAt?$AAw?$AA3?$AA2?$AA?2?$AAh?$AAe?$AAa?$AAp?$AA?2?$AAh?$AAe@ 1005fc70     LIBCMTD:heapinit.obj
 0002:00006cc4       ??_C@_0CI@BIOGDJKL@f?3?2dd?2vctools?2crt?2crtw32?2lowio?2i@ 1005fcc4     LIBCMTD:ioinit.obj
 0002:00006cec       ??_C@_0CL@OBKFGCKK@f?3?2dd?2vctools?2crt?2crtw32?2startup@ 1005fcec     LIBCMTD:stdargv.obj
 0002:00006d18       ??_C@_0CL@BJBFGFLH@f?3?2dd?2vctools?2crt?2crtw32?2startup@ 1005fd18     LIBCMTD:stdenvp.obj
 0002:00006d48       ??_C@_1FG@MHBLOJIO@?$AAf?$AA?3?$AA?2?$AAd?$AAd?$AA?2?$AAv?$AAc?$AAt?$AAo?$AAo?$AAl?$AAs?$AA?2?$AAc?$AAr?$AAt?$AA?2?$AAc?$AAr?$AAt?$AAw?$AA3?$AA2?$AA?2?$AAs?$AAt?$AAa?$AAr?$AAt?$AAu?$AAp@ 1005fd48     LIBCMTD:stdenvp.obj
 0002:00006da0       ??_C@_1BC@GHMCNHHL@?$AA_?$AAs?$AAe?$AAt?$AAe?$AAn?$AAv?$AAp?$AA?$AA@ 1005fda0     LIBCMTD:stdenvp.obj
 0002:00006db4       ??_C@_1DE@MMOGFGHF@?$AAs?$AAt?$AAr?$AAc?$AAp?$AAy?$AA_?$AAs?$AA?$CI?$AA?$CK?$AAe?$AAn?$AAv?$AA?0?$AA?5?$AAc?$AAc?$AAh?$AAa?$AAr?$AAs?$AA?0?$AA?5?$AAp?$AA?$CJ?$AA?$AA@ 1005fdb4     LIBCMTD:stdenvp.obj
 0002:00006de8       ??_C@_0CG@NNNNMKLF@f?3?2dd?2vctools?2crt?2crtw32?2misc?2a_@ 1005fde8     LIBCMTD:a_env.obj
 0002:00006ec8       ??_C@_1FK@PGACCAFB@?$AAR?$AA6?$AA0?$AA0?$AA2?$AA?$AN?$AA?6?$AA?9?$AA?5?$AAf?$AAl?$AAo?$AAa?$AAt?$AAi?$AAn?$AAg?$AA?5?$AAp?$AAo?$AAi?$AAn?$AAt?$AA?5?$AAs?$AAu?$AAp?$AAp?$AAo?$AAr?$AAt?$AA?5@ 1005fec8     LIBCMTD:crt0msg.obj
 0002:00006f28       ??_C@_1FE@LLNEDJMD@?$AAR?$AA6?$AA0?$AA0?$AA8?$AA?$AN?$AA?6?$AA?9?$AA?5?$AAn?$AAo?$AAt?$AA?5?$AAe?$AAn?$AAo?$AAu?$AAg?$AAh?$AA?5?$AAs?$AAp?$AAa?$AAc?$AAe?$AA?5?$AAf?$AAo?$AAr?$AA?5?$AAa?$AAr@ 1005ff28     LIBCMTD:crt0msg.obj
 0002:00006f80       ??_C@_1FI@HONFMGBI@?$AAR?$AA6?$AA0?$AA0?$AA9?$AA?$AN?$AA?6?$AA?9?$AA?5?$AAn?$AAo?$AAt?$AA?5?$AAe?$AAn?$AAo?$AAu?$AAg?$AAh?$AA?5?$AAs?$AAp?$AAa?$AAc?$AAe?$AA?5?$AAf?$AAo?$AAr?$AA?5?$AAe?$AAn@ 1005ff80     LIBCMTD:crt0msg.obj
 0002:00006fd8       ??_C@_1EG@BEHAGFJD@?$AAR?$AA6?$AA0?$AA1?$AA0?$AA?$AN?$AA?6?$AA?9?$AA?5?$AAa?$AAb?$AAo?$AAr?$AAt?$AA?$CI?$AA?$CJ?$AA?5?$AAh?$AAa?$AAs?$AA?5?$AAb?$AAe?$AAe?$AAn?$AA?5?$AAc?$AAa?$AAl?$AAl?$AAe?$AAd@ 1005ffd8     LIBCMTD:crt0msg.obj
 0002:00007020       ??_C@_1FI@LOGNIKDM@?$AAR?$AA6?$AA0?$AA1?$AA6?$AA?$AN?$AA?6?$AA?9?$AA?5?$AAn?$AAo?$AAt?$AA?5?$AAe?$AAn?$AAo?$AAu?$AAg?$AAh?$AA?5?$AAs?$AAp?$AAa?$AAc?$AAe?$AA?5?$AAf?$AAo?$AAr?$AA?5?$AAt?$AAh@ 10060020     LIBCMTD:crt0msg.obj
 0002:00007078       ??_C@_1FK@BEOGODMC@?$AAR?$AA6?$AA0?$AA1?$AA7?$AA?$AN?$AA?6?$AA?9?$AA?5?$AAu?$AAn?$AAe?$AAx?$AAp?$AAe?$AAc?$AAt?$AAe?$AAd?$AA?5?$AAm?$AAu?$AAl?$AAt?$AAi?$AAt?$AAh?$AAr?$AAe?$AAa?$AAd?$AA?5@ 10060078     LIBCMTD:crt0msg.obj
 0002:000070d8       ??_C@_1EC@JIBHAOPH@?$AAR?$AA6?$AA0?$AA1?$AA8?$AA?$AN?$AA?6?$AA?9?$AA?5?$AAu?$AAn?$AAe?$AAx?$AAp?$AAe?$AAc?$AAt?$AAe?$AAd?$AA?5?$AAh?$AAe?$AAa?$AAp?$AA?5?$AAe?$AAr?$AAr?$AAo?$AAr?$AA?$AN?$AA?6@ 100600d8     LIBCMTD:crt0msg.obj
 0002:00007120       ??_C@_1FC@ECHBIFBC@?$AAR?$AA6?$AA0?$AA1?$AA9?$AA?$AN?$AA?6?$AA?9?$AA?5?$AAu?$AAn?$AAa?$AAb?$AAl?$AAe?$AA?5?$AAt?$AAo?$AA?5?$AAo?$AAp?$AAe?$AAn?$AA?5?$AAc?$AAo?$AAn?$AAs?$AAo?$AAl?$AAe?$AA?5@ 10060120     LIBCMTD:crt0msg.obj
 0002:00007178       ??_C@_1GK@FHCKBEFA@?$AAR?$AA6?$AA0?$AA2?$AA4?$AA?$AN?$AA?6?$AA?9?$AA?5?$AAn?$AAo?$AAt?$AA?5?$AAe?$AAn?$AAo?$AAu?$AAg?$AAh?$AA?5?$AAs?$AAp?$AAa?$AAc?$AAe?$AA?5?$AAf?$AAo?$AAr?$AA?5?$AA_?$AAo@ 10060178     LIBCMTD:crt0msg.obj
 0002:000071e8       ??_C@_1EM@MAADIHMB@?$AAR?$AA6?$AA0?$AA2?$AA5?$AA?$AN?$AA?6?$AA?9?$AA?5?$AAp?$AAu?$AAr?$AAe?$AA?5?$AAv?$AAi?$AAr?$AAt?$AAu?$AAa?$AAl?$AA?5?$AAf?$AAu?$AAn?$AAc?$AAt?$AAi?$AAo?$AAn?$AA?5?$AAc@ 100601e8     LIBCMTD:crt0msg.obj
 0002:00007238       ??_C@_1GK@MCAAGJMO@?$AAR?$AA6?$AA0?$AA2?$AA6?$AA?$AN?$AA?6?$AA?9?$AA?5?$AAn?$AAo?$AAt?$AA?5?$AAe?$AAn?$AAo?$AAu?$AAg?$AAh?$AA?5?$AAs?$AAp?$AAa?$AAc?$AAe?$AA?5?$AAf?$AAo?$AAr?$AA?5?$AAs?$AAt@ 10060238     LIBCMTD:crt0msg.obj
 0002:000072a8       ??_C@_1GK@MFGOKLAG@?$AAR?$AA6?$AA0?$AA2?$AA7?$AA?$AN?$AA?6?$AA?9?$AA?5?$AAn?$AAo?$AAt?$AA?5?$AAe?$AAn?$AAo?$AAu?$AAg?$AAh?$AA?5?$AAs?$AAp?$AAa?$AAc?$AAe?$AA?5?$AAf?$AAo?$AAr?$AA?5?$AAl?$AAo@ 100602a8     LIBCMTD:crt0msg.obj
 0002:00007318       ??_C@_1EK@HHFLMAOL@?$AAR?$AA6?$AA0?$AA2?$AA8?$AA?$AN?$AA?6?$AA?9?$AA?5?$AAu?$AAn?$AAa?$AAb?$AAl?$AAe?$AA?5?$AAt?$AAo?$AA?5?$AAi?$AAn?$AAi?$AAt?$AAi?$AAa?$AAl?$AAi?$AAz?$AAe?$AA?5?$AAh?$AAe@ 10060318     LIBCMTD:crt0msg.obj
 0002:00007364       ??_C@_1DO@BMFCDCD@?$AAR?$AA6?$AA0?$AA3?$AA0?$AA?$AN?$AA?6?$AA?9?$AA?5?$AAC?$AAR?$AAT?$AA?5?$AAn?$AAo?$AAt?$AA?5?$AAi?$AAn?$AAi?$AAt?$AAi?$AAa?$AAl?$AAi?$AAz?$AAe?$AAd?$AA?$AN?$AA?6?$AA?$AA@ 10060364     LIBCMTD:crt0msg.obj
 0002:000073a8       ??_C@_1MG@ENCOOIDF@?$AAR?$AA6?$AA0?$AA3?$AA1?$AA?$AN?$AA?6?$AA?9?$AA?5?$AAA?$AAt?$AAt?$AAe?$AAm?$AAp?$AAt?$AA?5?$AAt?$AAo?$AA?5?$AAi?$AAn?$AAi?$AAt?$AAi?$AAa?$AAl?$AAi?$AAz?$AAe?$AA?5?$AAt@ 100603a8     LIBCMTD:crt0msg.obj
 0002:00007470       ??_C@_1GG@GOPILAJP@?$AAR?$AA6?$AA0?$AA3?$AA2?$AA?$AN?$AA?6?$AA?9?$AA?5?$AAn?$AAo?$AAt?$AA?5?$AAe?$AAn?$AAo?$AAu?$AAg?$AAh?$AA?5?$AAs?$AAp?$AAa?$AAc?$AAe?$AA?5?$AAf?$AAo?$AAr?$AA?5?$AAl?$AAo@ 10060470     LIBCMTD:crt0msg.obj
 0002:000074d8       ??_C@_1BOO@KGEDBGAJ@?$AAR?$AA6?$AA0?$AA3?$AA3?$AA?$AN?$AA?6?$AA?9?$AA?5?$AAA?$AAt?$AAt?$AAe?$AAm?$AAp?$AAt?$AA?5?$AAt?$AAo?$AA?5?$AAu?$AAs?$AAe?$AA?5?$AAM?$AAS?$AAI?$AAL?$AA?5?$AAc?$AAo?$AAd@ 100604d8     LIBCMTD:crt0msg.obj
 0002:000076c8       ??_C@_1GG@MKFPEKFO@?$AAR?$AA6?$AA0?$AA3?$AA4?$AA?$AN?$AA?6?$AA?9?$AA?5?$AAi?$AAn?$AAc?$AAo?$AAn?$AAs?$AAi?$AAs?$AAt?$AAe?$AAn?$AAt?$AA?5?$AAo?$AAn?$AAe?$AAx?$AAi?$AAt?$AA?5?$AAb?$AAe?$AAg@ 100606c8     LIBCMTD:crt0msg.obj
 0002:00007730       ??_C@_1BO@BFCDCGC@?$AAD?$AAO?$AAM?$AAA?$AAI?$AAN?$AA?5?$AAe?$AAr?$AAr?$AAo?$AAr?$AA?$AN?$AA?6?$AA?$AA@ 10060730     LIBCMTD:crt0msg.obj
 0002:00007750       ??_C@_1BK@KMOMNAAI@?$AAS?$AAI?$AAN?$AAG?$AA?5?$AAe?$AAr?$AAr?$AAo?$AAr?$AA?$AN?$AA?6?$AA?$AA@ 10060750     LIBCMTD:crt0msg.obj
 0002:0000776c       ??_C@_1BM@JBBEPPHI@?$AAT?$AAL?$AAO?$AAS?$AAS?$AA?5?$AAe?$AAr?$AAr?$AAo?$AAr?$AA?$AN?$AA?6?$AA?$AA@ 1006076c     LIBCMTD:crt0msg.obj
 0002:00007788       ??_C@_15JNBOKNOG@?$AA?$AN?$AA?6?$AA?$AA@ 10060788     LIBCMTD:crt0msg.obj
 0002:00007790       ??_C@_1BO@BKOMIGKJ@?$AAr?$AAu?$AAn?$AAt?$AAi?$AAm?$AAe?$AA?5?$AAe?$AAr?$AAr?$AAo?$AAr?$AA?5?$AA?$AA@ 10060790     LIBCMTD:crt0msg.obj
 0002:000077b0       ??_C@_1FG@ILOHEEMG@?$AAf?$AA?3?$AA?2?$AAd?$AAd?$AA?2?$AAv?$AAc?$AAt?$AAo?$AAo?$AAl?$AAs?$AA?2?$AAc?$AAr?$AAt?$AA?2?$AAc?$AAr?$AAt?$AAw?$AA3?$AA2?$AA?2?$AAs?$AAt?$AAa?$AAr?$AAt?$AAu?$AAp@ 100607b0     LIBCMTD:crt0msg.obj
 0002:00007808       ??_C@_1BI@EAHMBMEC@?$AA_?$AAN?$AAM?$AAS?$AAG?$AA_?$AAW?$AAR?$AAI?$AAT?$AAE?$AA?$AA@ 10060808     LIBCMTD:crt0msg.obj
 0002:00007820       ??_C@_1KO@BKLCKNFL@?$AAw?$AAc?$AAs?$AAc?$AAp?$AAy?$AA_?$AAs?$AA?$CI?$AAo?$AAu?$AAt?$AAm?$AAs?$AAg?$AA?0?$AA?5?$AA?$CI?$AAs?$AAi?$AAz?$AAe?$AAo?$AAf?$AA?$CI?$AAo?$AAu?$AAt?$AAm?$AAs?$AAg?$AA?$CJ@ 10060820     LIBCMTD:crt0msg.obj
 0002:000078d0       ??_C@_1DE@JNGNBFGO@?$AAR?$AAu?$AAn?$AAt?$AAi?$AAm?$AAe?$AA?5?$AAE?$AAr?$AAr?$AAo?$AAr?$AA?$CB?$AA?6?$AA?6?$AAP?$AAr?$AAo?$AAg?$AAr?$AAa?$AAm?$AA?3?$AA?5?$AA?$AA@ 100608d0     LIBCMTD:crt0msg.obj
 0002:00007908       ??_C@_1HK@FJJNAABO@?$AAw?$AAc?$AAs?$AAc?$AAp?$AAy?$AA_?$AAs?$AA?$CI?$AAp?$AAr?$AAo?$AAg?$AAn?$AAa?$AAm?$AAe?$AA?0?$AA?5?$AAp?$AAr?$AAo?$AAg?$AAn?$AAa?$AAm?$AAe?$AA_?$AAs?$AAi?$AAz?$AAe@ 10060908     LIBCMTD:crt0msg.obj
 0002:00007988       ??_C@_1HI@FLHKGEBE@?$AAw?$AAc?$AAs?$AAn?$AAc?$AAp?$AAy?$AA_?$AAs?$AA?$CI?$AAp?$AAc?$AAh?$AA?0?$AA?5?$AAp?$AAr?$AAo?$AAg?$AAn?$AAa?$AAm?$AAe?$AA_?$AAs?$AAi?$AAz?$AAe?$AA?5?$AA?9?$AA?5?$AA?$CI@ 10060988     LIBCMTD:crt0msg.obj
 0002:00007a00       ??_C@_1IA@DCJGKHFO@?$AAw?$AAc?$AAs?$AAc?$AAa?$AAt?$AA_?$AAs?$AA?$CI?$AAo?$AAu?$AAt?$AAm?$AAs?$AAg?$AA?0?$AA?5?$AA?$CI?$AAs?$AAi?$AAz?$AAe?$AAo?$AAf?$AA?$CI?$AAo?$AAu?$AAt?$AAm?$AAs?$AAg?$AA?$CJ@ 10060a00     LIBCMTD:crt0msg.obj
 0002:00007a80       ??_C@_1IG@NMONDPP@?$AAw?$AAc?$AAs?$AAc?$AAa?$AAt?$AA_?$AAs?$AA?$CI?$AAo?$AAu?$AAt?$AAm?$AAs?$AAg?$AA?0?$AA?5?$AA?$CI?$AAs?$AAi?$AAz?$AAe?$AAo?$AAf?$AA?$CI?$AAo?$AAu?$AAt?$AAm?$AAs?$AAg?$AA?$CJ@ 10060a80     LIBCMTD:crt0msg.obj
 0002:00007b08       ??_C@_0CJ@PLENACMA@f?3?2dd?2vctools?2crt?2crtw32?2misc?2in@ 10060b08     LIBCMTD:inithelp.obj
 0002:00007b38       ??_C@_1FC@PPCAPEFB@?$AAf?$AA?3?$AA?2?$AAd?$AAd?$AA?2?$AAv?$AAc?$AAt?$AAo?$AAo?$AAl?$AAs?$AA?2?$AAc?$AAr?$AAt?$AA?2?$AAc?$AAr?$AAt?$AAw?$AA3?$AA2?$AA?2?$AAm?$AAi?$AAs?$AAc?$AA?2?$AAi?$AAn@ 10060b38     LIBCMTD:inithelp.obj
 0002:00007b8c       ??_C@_1CA@KHHCPEI@?$AA_?$AA_?$AAg?$AAe?$AAt?$AAl?$AAo?$AAc?$AAa?$AAl?$AAe?$AAi?$AAn?$AAf?$AAo?$AA?$AA@ 10060b8c     LIBCMTD:inithelp.obj
 0002:00007bb0       ??_C@_1GO@NGIGJNHH@?$AAs?$AAt?$AAr?$AAn?$AAc?$AAp?$AAy?$AA_?$AAs?$AA?$CI?$AA?$CK?$AAs?$AAt?$AAr?$AAa?$AAd?$AAd?$AAr?$AAe?$AAs?$AAs?$AA?0?$AA?5?$AAo?$AAu?$AAt?$AAs?$AAi?$AAz?$AAe?$AA?0?$AA?5@ 10060bb0     LIBCMTD:inithelp.obj
 0002:00007c20       ??_C@_1BJK@FEBNHLFF@?$AA?$CI?$AA?$CI?$AAp?$AAt?$AAl?$AAo?$AAc?$AAi?$AA?9?$AA?$DO?$AAl?$AAc?$AA_?$AAc?$AAa?$AAt?$AAe?$AAg?$AAo?$AAr?$AAy?$AA?$FL?$AAc?$AAa?$AAt?$AAe?$AAg?$AAo?$AAr?$AAy?$AA?$FN?$AA?4@ 10060c20     LIBCMTD:localref.obj
 0002:00007dc0       ??_C@_1FC@HINIIGNO@?$AAf?$AA?3?$AA?2?$AAd?$AAd?$AA?2?$AAv?$AAc?$AAt?$AAo?$AAo?$AAl?$AAs?$AA?2?$AAc?$AAr?$AAt?$AA?2?$AAc?$AAr?$AAt?$AAw?$AA3?$AA2?$AA?2?$AAm?$AAi?$AAs?$AAc?$AA?2?$AAl?$AAo@ 10060dc0     LIBCMTD:localref.obj
 0002:00007e24       ??_C@_1M@HPNHIDJI@?$AAj?$AAa?$AA?9?$AAJ?$AAP?$AA?$AA@ 10060e24     LIBCMTD:mbctype.obj
 0002:00007e30       ??_C@_1M@BIBDDEMK@?$AAz?$AAh?$AA?9?$AAC?$AAN?$AA?$AA@ 10060e30     LIBCMTD:mbctype.obj
 0002:00007e3c       ??_C@_1M@JLOOOEGK@?$AAk?$AAo?$AA?9?$AAK?$AAR?$AA?$AA@ 10060e3c     LIBCMTD:mbctype.obj
 0002:00007e48       ??_C@_1M@CLNBBOPM@?$AAz?$AAh?$AA?9?$AAT?$AAW?$AA?$AA@ 10060e48     LIBCMTD:mbctype.obj
 0002:00007e54       ??_C@_0CM@BEDCPGGG@f?3?2dd?2vctools?2crt?2crtw32?2mbstrin@ 10060e54     LIBCMTD:mbctype.obj
 0002:00007e80       ??_C@_1CI@JELMFMDH@?$AAc?$AA?5?$AA?$DO?$AA?$DN?$AA?5?$AA?9?$AA1?$AA?5?$AA?$CG?$AA?$CG?$AA?5?$AAc?$AA?5?$AA?$DM?$AA?$DN?$AA?5?$AA2?$AA5?$AA5?$AA?$AA@ 10060e80     LIBCMTD:isctype.obj
 0002:00007ea8       ??_C@_1FG@IBFIOCOE@?$AAf?$AA?3?$AA?2?$AAd?$AAd?$AA?2?$AAv?$AAc?$AAt?$AAo?$AAo?$AAl?$AAs?$AA?2?$AAc?$AAr?$AAt?$AA?2?$AAc?$AAr?$AAt?$AAw?$AA3?$AA2?$AA?2?$AAc?$AAo?$AAn?$AAv?$AAe?$AAr?$AAt@ 10060ea8     LIBCMTD:isctype.obj
 0002:00007f00       ??_C@_1BO@KFIJIAEA@?$AAp?$AAB?$AAl?$AAo?$AAc?$AAk?$AA?5?$AA?$CB?$AA?$DN?$AA?5?$AAN?$AAU?$AAL?$AAL?$AA?$AA@ 10060f00     LIBCMTD:expand.obj
 0002:00007f20       ??_C@_1EO@BOMKIKJB@?$AAf?$AA?3?$AA?2?$AAd?$AAd?$AA?2?$AAv?$AAc?$AAt?$AAo?$AAo?$AAl?$AAs?$AA?2?$AAc?$AAr?$AAt?$AA?2?$AAc?$AAr?$AAt?$AAw?$AA3?$AA2?$AA?2?$AAh?$AAe?$AAa?$AAp?$AA?2?$AAe?$AAx@ 10060f20     LIBCMTD:expand.obj
 0002:00007f70       ??_C@_1BK@JMCGJOCC@?$AA_?$AAe?$AAx?$AAp?$AAa?$AAn?$AAd?$AA_?$AAb?$AAa?$AAs?$AAe?$AA?$AA@ 10060f70     LIBCMTD:expand.obj
 0002:00007f98       ??_C@_03KHICJKCI@?4?4?4?$AA@ 10060f98     LIBCMTD:dbgrpt.obj
 0002:00007f9c       ??_C@_1CG@GNMJDMIO@?$AA_?$AAC?$AAr?$AAt?$AAS?$AAe?$AAt?$AAR?$AAe?$AAp?$AAo?$AAr?$AAt?$AAH?$AAo?$AAo?$AAk?$AA2?$AA?$AA@ 10060f9c     LIBCMTD:dbgrpt.obj
 0002:00007fc4       ??_C@_1CI@IDOKFLAJ@?$AA_?$AA_?$AAc?$AAr?$AAt?$AAM?$AAe?$AAs?$AAs?$AAa?$AAg?$AAe?$AAW?$AAi?$AAn?$AAd?$AAo?$AAw?$AAA?$AA?$AA@ 10060fc4     LIBCMTD:dbgrpt.obj
 0002:00007ff0       ??_C@_1GG@DLDHOIGE@?$AAs?$AAt?$AAr?$AAc?$AAp?$AAy?$AA_?$AAs?$AA?$CI?$AAs?$AAz?$AAE?$AAx?$AAe?$AAN?$AAa?$AAm?$AAe?$AA?0?$AA?5?$AA2?$AA6?$AA0?$AA?0?$AA?5?$AA?$CC?$AA?$DM?$AAp?$AAr?$AAo?$AAg?$AAr@ 10060ff0     LIBCMTD:dbgrpt.obj
 0002:00008058       ??_C@_0BH@DNAGHKFM@?$DMprogram?5name?5unknown?$DO?$AA@ 10061058     LIBCMTD:dbgrpt.obj
 0002:0000806f       ??_C@_00CNPNBAHC@?$AA@     1006106f     LIBCMTD:dbgrpt.obj
 0002:00008070       ??_C@_1LG@BEHAHJLI@?$AAD?$AAe?$AAb?$AAu?$AAg?$AA?5?$AA?$CF?$AAs?$AA?$CB?$AA?6?$AA?6?$AAP?$AAr?$AAo?$AAg?$AAr?$AAa?$AAm?$AA?3?$AA?5?$AA?$CF?$AAh?$AAs?$AA?$CF?$AAs?$AA?$CF?$AAs?$AA?$CF?$AAh?$AAs?$AA?$CF?$AAs@ 10061070     LIBCMTD:dbgrpt.obj
 0002:00008128       ??_C@_1FC@JALKILNE@?$AAf?$AA?3?$AA?2?$AAd?$AAd?$AA?2?$AAv?$AAc?$AAt?$AAo?$AAo?$AAl?$AAs?$AA?2?$AAc?$AAr?$AAt?$AA?2?$AAc?$AAr?$AAt?$AAw?$AA3?$AA2?$AA?2?$AAs?$AAt?$AAd?$AAi?$AAo?$AA?2?$AAs@ 10061128     LIBCMTD:sprintf.obj
 0002:0000817c       ??_C@_1BA@KBJJGFFE@?$AAs?$AAp?$AAr?$AAi?$AAn?$AAt?$AAf?$AA?$AA@ 1006117c     LIBCMTD:sprintf.obj
 0002:0000818c       ??_C@_03KOEHGMDN@Sun?$AA@  1006118c     LIBCMTD:nlsdata.obj
 0002:00008190       ??_C@_03PDAGKDH@Mon?$AA@   10061190     LIBCMTD:nlsdata.obj
 0002:00008194       ??_C@_03NAGEINEP@Tue?$AA@  10061194     LIBCMTD:nlsdata.obj
 0002:00008198       ??_C@_03MHOMLAJA@Wed?$AA@  10061198     LIBCMTD:nlsdata.obj
 0002:0000819c       ??_C@_03IOFIKPDN@Thu?$AA@  1006119c     LIBCMTD:nlsdata.obj
 0002:000081a0       ??_C@_03IDIOELNC@Fri?$AA@  100611a0     LIBCMTD:nlsdata.obj
 0002:000081a4       ??_C@_03FEFJNEK@Sat?$AA@   100611a4     LIBCMTD:nlsdata.obj
 0002:000081a8       ??_C@_06OOPIFAJ@Sunday?$AA@ 100611a8     LIBCMTD:nlsdata.obj
 0002:000081b0       ??_C@_06JLEDEDGH@Monday?$AA@ 100611b0     LIBCMTD:nlsdata.obj
 0002:000081b8       ??_C@_07BAAGCFCM@Tuesday?$AA@ 100611b8     LIBCMTD:nlsdata.obj
 0002:000081c0       ??_C@_09DLIGFAKA@Wednesday?$AA@ 100611c0     LIBCMTD:nlsdata.obj
 0002:000081cc       ??_C@_08HACCIKIA@Thursday?$AA@ 100611cc     LIBCMTD:nlsdata.obj
 0002:000081d8       ??_C@_06JECMNKMI@Friday?$AA@ 100611d8     LIBCMTD:nlsdata.obj
 0002:000081e0       ??_C@_08INBOOONO@Saturday?$AA@ 100611e0     LIBCMTD:nlsdata.obj
 0002:000081ec       ??_C@_03JIHJHPIE@Jan?$AA@  100611ec     LIBCMTD:nlsdata.obj
 0002:000081f0       ??_C@_03HJBDCHOM@Feb?$AA@  100611f0     LIBCMTD:nlsdata.obj
 0002:000081f4       ??_C@_03ODNJBKGA@Mar?$AA@  100611f4     LIBCMTD:nlsdata.obj
 0002:000081f8       ??_C@_03LEOLGMJP@Apr?$AA@  100611f8     LIBCMTD:nlsdata.obj
 0002:000081fc       ??_C@_03CNMDKL@May?$AA@    100611fc     LIBCMTD:nlsdata.obj
 0002:00008200       ??_C@_03IDFGHECI@Jun?$AA@  10061200     LIBCMTD:nlsdata.obj
 0002:00008204       ??_C@_03LBGABGKK@Jul?$AA@  10061204     LIBCMTD:nlsdata.obj
 0002:00008208       ??_C@_03IFJFEIGA@Aug?$AA@  10061208     LIBCMTD:nlsdata.obj
 0002:0000820c       ??_C@_03GGCAPAJC@Sep?$AA@  1006120c     LIBCMTD:nlsdata.obj
 0002:00008210       ??_C@_03BMAOKBAD@Oct?$AA@  10061210     LIBCMTD:nlsdata.obj
 0002:00008214       ??_C@_03JPJOFNIA@Nov?$AA@  10061214     LIBCMTD:nlsdata.obj
 0002:00008218       ??_C@_03MKABNOCG@Dec?$AA@  10061218     LIBCMTD:nlsdata.obj
 0002:0000821c       ??_C@_07CGJPFGJA@January?$AA@ 1006121c     LIBCMTD:nlsdata.obj
 0002:00008224       ??_C@_08GNJGEPFN@February?$AA@ 10061224     LIBCMTD:nlsdata.obj
 0002:00008230       ??_C@_05HPCKOFNC@March?$AA@ 10061230     LIBCMTD:nlsdata.obj
 0002:00008238       ??_C@_05DMJDNLEJ@April?$AA@ 10061238     LIBCMTD:nlsdata.obj
 0002:00008240       ??_C@_04CNLMGBGM@June?$AA@ 10061240     LIBCMTD:nlsdata.obj
 0002:00008248       ??_C@_04MIEPOIFP@July?$AA@ 10061248     LIBCMTD:nlsdata.obj
 0002:00008250       ??_C@_06LBBHFDDG@August?$AA@ 10061250     LIBCMTD:nlsdata.obj
 0002:00008258       ??_C@_09BHHEALKD@September?$AA@ 10061258     LIBCMTD:nlsdata.obj
 0002:00008264       ??_C@_07JJNFCEND@October?$AA@ 10061264     LIBCMTD:nlsdata.obj
 0002:0000826c       ??_C@_08HCHEGEOA@November?$AA@ 1006126c     LIBCMTD:nlsdata.obj
 0002:00008278       ??_C@_08EDHMEBNP@December?$AA@ 10061278     LIBCMTD:nlsdata.obj
 0002:00008284       ??_C@_02DEDBPAFC@AM?$AA@   10061284     LIBCMTD:nlsdata.obj
 0002:00008288       ??_C@_02CJNFDJBF@PM?$AA@   10061288     LIBCMTD:nlsdata.obj
 0002:0000828c       ??_C@_08BPBNCDIB@MM?1dd?1yy?$AA@ 1006128c     LIBCMTD:nlsdata.obj
 0002:00008298       ??_C@_0BE@CKGJFCPC@dddd?0?5MMMM?5dd?0?5yyyy?$AA@ 10061298     LIBCMTD:nlsdata.obj
 0002:000082ac       ??_C@_08JCCMCCIL@HH?3mm?3ss?$AA@ 100612ac     LIBCMTD:nlsdata.obj
 0002:000082b8       ??_C@_17MBGCMIPB@?$AAS?$AAu?$AAn?$AA?$AA@ 100612b8     LIBCMTD:nlsdata.obj
 0002:000082c0       ??_C@_17KBOMKBF@?$AAM?$AAo?$AAn?$AA?$AA@ 100612c0     LIBCMTD:nlsdata.obj
 0002:000082c8       ??_C@_17BMKGEGOJ@?$AAT?$AAu?$AAe?$AA?$AA@ 100612c8     LIBCMTD:nlsdata.obj
 0002:000082d0       ??_C@_17CJEDCEPE@?$AAW?$AAe?$AAd?$AA?$AA@ 100612d0     LIBCMTD:nlsdata.obj
 0002:000082d8       ??_C@_17PDPHAADD@?$AAT?$AAh?$AAu?$AA?$AA@ 100612d8     LIBCMTD:nlsdata.obj
 0002:000082e0       ??_C@_17HFOLPPLP@?$AAF?$AAr?$AAi?$AA?$AA@ 100612e0     LIBCMTD:nlsdata.obj
 0002:000082e8       ??_C@_17GGIBDPIH@?$AAS?$AAa?$AAt?$AA?$AA@ 100612e8     LIBCMTD:nlsdata.obj
 0002:000082f0       ??_C@_1O@IHNHDHPB@?$AAS?$AAu?$AAn?$AAd?$AAa?$AAy?$AA?$AA@ 100612f0     LIBCMTD:nlsdata.obj
 0002:00008300       ??_C@_1O@MMNBFLIA@?$AAM?$AAo?$AAn?$AAd?$AAa?$AAy?$AA?$AA@ 10061300     LIBCMTD:nlsdata.obj
 0002:00008310       ??_C@_1BA@ENFBFFEK@?$AAT?$AAu?$AAe?$AAs?$AAd?$AAa?$AAy?$AA?$AA@ 10061310     LIBCMTD:nlsdata.obj
 0002:00008320       ??_C@_1BE@EBOGMDOH@?$AAW?$AAe?$AAd?$AAn?$AAe?$AAs?$AAd?$AAa?$AAy?$AA?$AA@ 10061320     LIBCMTD:nlsdata.obj
 0002:00008334       ??_C@_1BC@HHMNLIHE@?$AAT?$AAh?$AAu?$AAr?$AAs?$AAd?$AAa?$AAy?$AA?$AA@ 10061334     LIBCMTD:nlsdata.obj
 0002:00008348       ??_C@_1O@PDICJHAG@?$AAF?$AAr?$AAi?$AAd?$AAa?$AAy?$AA?$AA@ 10061348     LIBCMTD:nlsdata.obj
 0002:00008358       ??_C@_1BC@ENMNNPAJ@?$AAS?$AAa?$AAt?$AAu?$AAr?$AAd?$AAa?$AAy?$AA?$AA@ 10061358     LIBCMTD:nlsdata.obj
 0002:0000836c       ??_C@_17DKNBKCHM@?$AAJ?$AAa?$AAn?$AA?$AA@ 1006136c     LIBCMTD:nlsdata.obj
 0002:00008374       ??_C@_17LMDJEKJN@?$AAF?$AAe?$AAb?$AA?$AA@ 10061374     LIBCMTD:nlsdata.obj
 0002:0000837c       ??_C@_17CKNLEDEC@?$AAM?$AAa?$AAr?$AA?$AA@ 1006137c     LIBCMTD:nlsdata.obj
 0002:00008384       ??_C@_17LFPOIHDD@?$AAA?$AAp?$AAr?$AA?$AA@ 10061384     LIBCMTD:nlsdata.obj
 0002:0000838c       ??_C@_17PNNKMEED@?$AAM?$AAa?$AAy?$AA?$AA@ 1006138c     LIBCMTD:nlsdata.obj
 0002:00008394       ??_C@_17KCJGOCPB@?$AAJ?$AAu?$AAn?$AA?$AA@ 10061394     LIBCMTD:nlsdata.obj
 0002:0000839c       ??_C@_17IJPCKHK@?$AAJ?$AAu?$AAl?$AA?$AA@ 1006139c     LIBCMTD:nlsdata.obj
 0002:000083a4       ??_C@_17ICPELBCN@?$AAA?$AAu?$AAg?$AA?$AA@ 100613a4     LIBCMTD:nlsdata.obj
 0002:000083ac       ??_C@_17HCHCOKMG@?$AAS?$AAe?$AAp?$AA?$AA@ 100613ac     LIBCMTD:nlsdata.obj
 0002:000083b4       ??_C@_17FNLKOI@?$AAO?$AAc?$AAt?$AA?$AA@ 100613b4     LIBCMTD:nlsdata.obj
 0002:000083bc       ??_C@_17BBDMLCIG@?$AAN?$AAo?$AAv?$AA?$AA@ 100613bc     LIBCMTD:nlsdata.obj
 0002:000083c4       ??_C@_17EGKACKIF@?$AAD?$AAe?$AAc?$AA?$AA@ 100613c4     LIBCMTD:nlsdata.obj
 0002:000083cc       ??_C@_1BA@EFMEIEBA@?$AAJ?$AAa?$AAn?$AAu?$AAa?$AAr?$AAy?$AA?$AA@ 100613cc     LIBCMTD:nlsdata.obj
 0002:000083dc       ??_C@_1BC@JGDDFFAM@?$AAF?$AAe?$AAb?$AAr?$AAu?$AAa?$AAr?$AAy?$AA?$AA@ 100613dc     LIBCMTD:nlsdata.obj
 0002:000083f0       ??_C@_1M@IKEENEDF@?$AAM?$AAa?$AAr?$AAc?$AAh?$AA?$AA@ 100613f0     LIBCMTD:nlsdata.obj
 0002:000083fc       ??_C@_1M@GJNLMHFD@?$AAA?$AAp?$AAr?$AAi?$AAl?$AA?$AA@ 100613fc     LIBCMTD:nlsdata.obj
 0002:00008408       ??_C@_19EPFLPGAP@?$AAJ?$AAu?$AAn?$AAe?$AA?$AA@ 10061408     LIBCMTD:nlsdata.obj
 0002:00008414       ??_C@_19BIFMLPCD@?$AAJ?$AAu?$AAl?$AAy?$AA?$AA@ 10061414     LIBCMTD:nlsdata.obj
 0002:00008420       ??_C@_1O@PAHLKOAC@?$AAA?$AAu?$AAg?$AAu?$AAs?$AAt?$AA?$AA@ 10061420     LIBCMTD:nlsdata.obj
 0002:00008430       ??_C@_1BE@DKAAMBJL@?$AAS?$AAe?$AAp?$AAt?$AAe?$AAm?$AAb?$AAe?$AAr?$AA?$AA@ 10061430     LIBCMTD:nlsdata.obj
 0002:00008444       ??_C@_1BA@EPANDLNG@?$AAO?$AAc?$AAt?$AAo?$AAb?$AAe?$AAr?$AA?$AA@ 10061444     LIBCMTD:nlsdata.obj
 0002:00008454       ??_C@_1BC@BGLIFPF@?$AAN?$AAo?$AAv?$AAe?$AAm?$AAb?$AAe?$AAr?$AA?$AA@ 10061454     LIBCMTD:nlsdata.obj
 0002:00008468       ??_C@_1BC@FEMKIFH@?$AAD?$AAe?$AAc?$AAe?$AAm?$AAb?$AAe?$AAr?$AA?$AA@ 10061468     LIBCMTD:nlsdata.obj
 0002:0000847c       ??_C@_15ODEHAHHF@?$AAA?$AAM?$AA?$AA@ 1006147c     LIBCMTD:nlsdata.obj
 0002:00008484       ??_C@_15CLMNNGEL@?$AAP?$AAM?$AA?$AA@ 10061484     LIBCMTD:nlsdata.obj
 0002:0000848c       ??_C@_1BC@IEBCMHCM@?$AAM?$AAM?$AA?1?$AAd?$AAd?$AA?1?$AAy?$AAy?$AA?$AA@ 1006148c     LIBCMTD:nlsdata.obj
 0002:000084a0       ??_C@_1CI@KNAKOEBC@?$AAd?$AAd?$AAd?$AAd?$AA?0?$AA?5?$AAM?$AAM?$AAM?$AAM?$AA?5?$AAd?$AAd?$AA?0?$AA?5?$AAy?$AAy?$AAy?$AAy?$AA?$AA@ 100614a0     LIBCMTD:nlsdata.obj
 0002:000084c8       ??_C@_1BC@GDGBMEMK@?$AAH?$AAH?$AA?3?$AAm?$AAm?$AA?3?$AAs?$AAs?$AA?$AA@ 100614c8     LIBCMTD:nlsdata.obj
 0002:000084dc       ??_C@_1M@BMHNFIME@?$AAe?$AAn?$AA?9?$AAU?$AAS?$AA?$AA@ 100614dc     LIBCMTD:nlsdata.obj
 0002:000084e8       ??_C@_1CK@GFDNDKK@?$AA_?$AAR?$AAa?$AAn?$AAd?$AAo?$AAm?$AAV?$AAa?$AAl?$AAu?$AAe?$AA?5?$AA?$CB?$AA?$DN?$AA?5?$AAN?$AAU?$AAL?$AAL?$AA?$AA@ 100614e8     LIBCMTD:rand_s.obj
 0002:00008518       ??_C@_1EO@GANOMFFN@?$AAf?$AA?3?$AA?2?$AAd?$AAd?$AA?2?$AAv?$AAc?$AAt?$AAo?$AAo?$AAl?$AAs?$AA?2?$AAc?$AAr?$AAt?$AA?2?$AAc?$AAr?$AAt?$AAw?$AA3?$AA2?$AA?2?$AAm?$AAi?$AAs?$AAc?$AA?2?$AAr?$AAa@ 10061518     LIBCMTD:rand_s.obj
 0002:00008568       ??_C@_1O@IJGPPOGF@?$AAr?$AAa?$AAn?$AAd?$AA_?$AAs?$AA?$AA@ 10061568     LIBCMTD:rand_s.obj
 0002:00008578       ??_C@_1BK@GAEMIDIL@?$AAA?$AAD?$AAV?$AAA?$AAP?$AAI?$AA3?$AA2?$AA?4?$AAD?$AAL?$AAL?$AA?$AA@ 10061578     LIBCMTD:rand_s.obj
 0002:00008598       ??_C@_1GA@EBEDGGGB@?$AA?$CI?$AA?$CC?$AAr?$AAa?$AAn?$AAd?$AA_?$AAs?$AA?5?$AAi?$AAs?$AA?5?$AAn?$AAo?$AAt?$AA?5?$AAa?$AAv?$AAa?$AAi?$AAl?$AAa?$AAb?$AAl?$AAe?$AA?5?$AAo?$AAn?$AA?5?$AAt?$AAh?$AAi@ 10061598     LIBCMTD:rand_s.obj
 0002:000085f8       ??_C@_0BC@JEAENNKH@SystemFunction036?$AA@ 100615f8     LIBCMTD:rand_s.obj
 0002:00008610       ___lookuptable_s           10061610     LIBCMTD:outputs.obj
 0002:0000866c       ??_C@_1BI@COFBLHCG@?$AA_?$AAo?$AAu?$AAt?$AAp?$AAu?$AAt?$AA_?$AAs?$AA_?$AAl?$AA?$AA@ 1006166c     LIBCMTD:outputs.obj
 0002:00008688       ??_C@_1EE@DMAIGNBG@?$AA?$CI?$AA?$CC?$AAI?$AAn?$AAc?$AAo?$AAr?$AAr?$AAe?$AAc?$AAt?$AA?5?$AAf?$AAo?$AAr?$AAm?$AAa?$AAt?$AA?5?$AAs?$AAp?$AAe?$AAc?$AAi?$AAf?$AAi?$AAe?$AAr?$AA?$CC?$AA?0?$AA?5?$AA0@ 10061688     LIBCMTD:outputs.obj
 0002:000086d0       ??_C@_1FK@LNCFKALM@?$AA?$CI?$AA?$CI?$AAs?$AAt?$AAa?$AAt?$AAe?$AA?5?$AA?$DN?$AA?$DN?$AA?5?$AAS?$AAT?$AA_?$AAN?$AAO?$AAR?$AAM?$AAA?$AAL?$AA?$CJ?$AA?5?$AA?$HM?$AA?$HM?$AA?5?$AA?$CI?$AAs?$AAt?$AAa?$AAt?$AAe?$AA?5@ 100616d0     LIBCMTD:outputs.obj
 0002:0000872c       ??_C@_1BI@KANOLAMF@?$AA_?$AAo?$AAu?$AAt?$AAp?$AAu?$AAt?$AA_?$AAp?$AA_?$AAl?$AA?$AA@ 1006172c     LIBCMTD:outputp.obj
 0002:00008748       ??_C@_1JC@PFJNKEIO@?$AA?$CI?$AA?$CI?$AAt?$AAy?$AAp?$AAe?$AA_?$AAp?$AAo?$AAs?$AA?5?$AA?$DO?$AA?$DN?$AA?5?$AA0?$AA?$CJ?$AA?5?$AA?$CG?$AA?$CG?$AA?5?$AA?$CI?$AA?$CK?$AAe?$AAn?$AAd?$AA_?$AAp?$AAo?$AAs?$AA?5?$AA?$DN?$AA?$DN@ 10061748     LIBCMTD:outputp.obj
 0002:000087e0       ??_C@_1JE@NMBHOLFI@?$AA?$CI?$AA?$CI?$AAw?$AAi?$AAd?$AAt?$AAh?$AA_?$AAp?$AAo?$AAs?$AA?5?$AA?$DO?$AA?$DN?$AA?5?$AA0?$AA?$CJ?$AA?5?$AA?$CG?$AA?$CG?$AA?5?$AA?$CI?$AA?$CK?$AAe?$AAn?$AAd?$AA_?$AAp?$AAo?$AAs?$AA?5?$AA?$DN@ 100617e0     LIBCMTD:outputp.obj
 0002:00008878       ??_C@_1II@PIPIMLPF@?$AA_?$AAt?$AAv?$AAa?$AAl?$AAi?$AAd?$AAa?$AAt?$AAe?$AA_?$AAp?$AAa?$AAr?$AAa?$AAm?$AA_?$AAr?$AAe?$AAu?$AAs?$AAe?$AA?$CI?$AA?$CG?$AAp?$AAo?$AAs?$AA_?$AAv?$AAa?$AAl?$AAu@ 10061878     LIBCMTD:outputp.obj
 0002:00008900       ??_C@_1JG@JBJBOCFB@?$AA?$CI?$AA?$CI?$AAp?$AAr?$AAe?$AAc?$AAi?$AAs?$AA_?$AAp?$AAo?$AAs?$AA?5?$AA?$DO?$AA?$DN?$AA?5?$AA0?$AA?$CJ?$AA?5?$AA?$CG?$AA?$CG?$AA?5?$AA?$CI?$AA?$CK?$AAe?$AAn?$AAd?$AA_?$AAp?$AAo?$AAs?$AA?5@ 10061900     LIBCMTD:outputp.obj
 0002:00008998       ??_C@_1IK@EIEPDKHJ@?$AA_?$AAt?$AAv?$AAa?$AAl?$AAi?$AAd?$AAa?$AAt?$AAe?$AA_?$AAp?$AAa?$AAr?$AAa?$AAm?$AA_?$AAr?$AAe?$AAu?$AAs?$AAe?$AA?$CI?$AA?$CG?$AAp?$AAo?$AAs?$AA_?$AAv?$AAa?$AAl?$AAu@ 10061998     LIBCMTD:outputp.obj
 0002:00008a28       ??_C@_1EM@BNPHBBIA@?$AA?$CI?$AA?$CI?$AAt?$AAy?$AAp?$AAe?$AA_?$AAp?$AAo?$AAs?$AA?$DO?$AA?$DN?$AA0?$AA?$CJ?$AA?5?$AA?$CG?$AA?$CG?$AA?5?$AA?$CI?$AAt?$AAy?$AAp?$AAe?$AA_?$AAp?$AAo?$AAs?$AA?$DM?$AA_?$AAA?$AAR?$AAG@ 10061a28     LIBCMTD:outputp.obj
 0002:00008a78       ??_C@_1IK@MHEDJAMK@?$AA_?$AAt?$AAv?$AAa?$AAl?$AAi?$AAd?$AAa?$AAt?$AAe?$AA_?$AAp?$AAa?$AAr?$AAa?$AAm?$AA_?$AAr?$AAe?$AAu?$AAs?$AAe?$AA?$CI?$AA?$CG?$AAp?$AAo?$AAs?$AA_?$AAv?$AAa?$AAl?$AAu@ 10061a78     LIBCMTD:outputp.obj
 0002:00008b08       ??_C@_1IG@FDCPLALG@?$AA_?$AAt?$AAv?$AAa?$AAl?$AAi?$AAd?$AAa?$AAt?$AAe?$AA_?$AAp?$AAa?$AAr?$AAa?$AAm?$AA_?$AAr?$AAe?$AAu?$AAs?$AAe?$AA?$CI?$AA?$CG?$AAp?$AAo?$AAs?$AA_?$AAv?$AAa?$AAl?$AAu@ 10061b08     LIBCMTD:outputp.obj
 0002:00008b90       ??_C@_1IG@HJIMKDHC@?$AA_?$AAt?$AAv?$AAa?$AAl?$AAi?$AAd?$AAa?$AAt?$AAe?$AA_?$AAp?$AAa?$AAr?$AAa?$AAm?$AA_?$AAr?$AAe?$AAu?$AAs?$AAe?$AA?$CI?$AA?$CG?$AAp?$AAo?$AAs?$AA_?$AAv?$AAa?$AAl?$AAu@ 10061b90     LIBCMTD:outputp.obj
 0002:00008c18       ??_C@_1IM@DNGHAPLB@?$AA_?$AAt?$AAv?$AAa?$AAl?$AAi?$AAd?$AAa?$AAt?$AAe?$AA_?$AAp?$AAa?$AAr?$AAa?$AAm?$AA_?$AAr?$AAe?$AAu?$AAs?$AAe?$AA?$CI?$AA?$CG?$AAp?$AAo?$AAs?$AA_?$AAv?$AAa?$AAl?$AAu@ 10061c18     LIBCMTD:outputp.obj
 0002:00008ca4       ??_C@_1DG@GOHGNKHE@?$AAp?$AAa?$AAs?$AAs?$AA?5?$AA?$DN?$AA?$DN?$AA?5?$AAF?$AAO?$AAR?$AAM?$AAA?$AAT?$AA_?$AAO?$AAU?$AAT?$AAP?$AAU?$AAT?$AA_?$AAP?$AAA?$AAS?$AAS?$AA?$AA@ 10061ca4     LIBCMTD:outputp.obj
 0002:00008ce0       ??_C@_1IK@NBGDDCBN@?$AA_?$AAt?$AAv?$AAa?$AAl?$AAi?$AAd?$AAa?$AAt?$AAe?$AA_?$AAp?$AAa?$AAr?$AAa?$AAm?$AA_?$AAr?$AAe?$AAu?$AAs?$AAe?$AA?$CI?$AA?$CG?$AAp?$AAo?$AAs?$AA_?$AAv?$AAa?$AAl?$AAu@ 10061ce0     LIBCMTD:outputp.obj
 0002:00008d70       ??_C@_1JC@OACKELNN@?$AA_?$AAt?$AAv?$AAa?$AAl?$AAi?$AAd?$AAa?$AAt?$AAe?$AA_?$AAp?$AAa?$AAr?$AAa?$AAm?$AA_?$AAr?$AAe?$AAu?$AAs?$AAe?$AA?$CI?$AA?$CG?$AAp?$AAo?$AAs?$AA_?$AAv?$AAa?$AAl?$AAu@ 10061d70     LIBCMTD:outputp.obj
 0002:00008e08       ??_C@_1FK@BCPANIEK@?$AA?$CI?$AA?$CC?$AAM?$AAi?$AAs?$AAs?$AAi?$AAn?$AAg?$AA?5?$AAp?$AAo?$AAs?$AAi?$AAt?$AAi?$AAo?$AAn?$AA?5?$AAi?$AAn?$AA?5?$AAt?$AAh?$AAe?$AA?5?$AAf?$AAo?$AAr?$AAm?$AAa?$AAt@ 10061e08     LIBCMTD:outputp.obj
 0002:00008e68       ??_C@_1FA@CKEACION@?$AAf?$AA?3?$AA?2?$AAd?$AAd?$AA?2?$AAv?$AAc?$AAt?$AAo?$AAo?$AAl?$AAs?$AA?2?$AAc?$AAr?$AAt?$AA?2?$AAc?$AAr?$AAt?$AAw?$AA3?$AA2?$AA?2?$AAs?$AAt?$AAd?$AAi?$AAo?$AA?2?$AAf@ 10061e68     LIBCMTD:fileno.obj
 0002:00008eb8       ??_C@_1BA@JGHIEKKM@?$AA_?$AAf?$AAi?$AAl?$AAe?$AAn?$AAo?$AA?$AA@ 10061eb8     LIBCMTD:fileno.obj
 0002:00008ec8       ??_C@_1FO@LPCLHKGE@?$AA?$CI?$AAf?$AAh?$AA?5?$AA?$DO?$AA?$DN?$AA?5?$AA0?$AA?5?$AA?$CG?$AA?$CG?$AA?5?$AA?$CI?$AAu?$AAn?$AAs?$AAi?$AAg?$AAn?$AAe?$AAd?$AA?$CJ?$AAf?$AAh?$AA?5?$AA?$DM?$AA?5?$AA?$CI?$AAu?$AAn?$AAs?$AAi@ 10061ec8     LIBCMTD:isatty.obj
 0002:00008f28       ??_C@_1FA@NFCHPDNG@?$AAf?$AA?3?$AA?2?$AAd?$AAd?$AA?2?$AAv?$AAc?$AAt?$AAo?$AAo?$AAl?$AAs?$AA?2?$AAc?$AAr?$AAt?$AA?2?$AAc?$AAr?$AAt?$AAw?$AA3?$AA2?$AA?2?$AAl?$AAo?$AAw?$AAi?$AAo?$AA?2?$AAi@ 10061f28     LIBCMTD:isatty.obj
 0002:00008f78       ??_C@_1BA@LEBDGIHM@?$AA_?$AAi?$AAs?$AAa?$AAt?$AAt?$AAy?$AA?$AA@ 10061f78     LIBCMTD:isatty.obj
 0002:00008f88       ??_C@_1FC@OBEHAONE@?$AAf?$AA?3?$AA?2?$AAd?$AAd?$AA?2?$AAv?$AAc?$AAt?$AAo?$AAo?$AAl?$AAs?$AA?2?$AAc?$AAr?$AAt?$AA?2?$AAc?$AAr?$AAt?$AAw?$AA3?$AA2?$AA?2?$AAs?$AAt?$AAd?$AAi?$AAo?$AA?2?$AA_@ 10061f88     LIBCMTD:_flsbuf.obj
 0002:00008fe0       ??_C@_1HO@MLMGPAFH@?$AA?$CI?$AA?$CC?$AAi?$AAn?$AAc?$AAo?$AAn?$AAs?$AAi?$AAs?$AAt?$AAe?$AAn?$AAt?$AA?5?$AAI?$AAO?$AAB?$AA?5?$AAf?$AAi?$AAe?$AAl?$AAd?$AAs?$AA?$CC?$AA?0?$AA?5?$AAs?$AAt?$AAr?$AAe@ 10061fe0     LIBCMTD:_flsbuf.obj
 0002:00009060       ??_C@_1CO@HFMIILNF@?$AAs?$AAi?$AAz?$AAe?$AAI?$AAn?$AAB?$AAy?$AAt?$AAe?$AAs?$AA?5?$AA?$DM?$AA?$DN?$AA?5?$AAI?$AAN?$AAT?$AA_?$AAM?$AAA?$AAX?$AA?$AA@ 10062060     LIBCMTD:wctomb.obj
 0002:00009090       ??_C@_1FE@GKMDCPPB@?$AAf?$AA?3?$AA?2?$AAd?$AAd?$AA?2?$AAv?$AAc?$AAt?$AAo?$AAo?$AAl?$AAs?$AA?2?$AAc?$AAr?$AAt?$AA?2?$AAc?$AAr?$AAt?$AAw?$AA3?$AA2?$AA?2?$AAc?$AAo?$AAn?$AAv?$AAe?$AAr?$AAt@ 10062090     LIBCMTD:wctomb.obj
 0002:000090e4       ??_C@_1BI@IEADNOHF@?$AA_?$AAw?$AAc?$AAt?$AAo?$AAm?$AAb?$AA_?$AAs?$AA_?$AAl?$AA?$AA@ 100620e4     LIBCMTD:wctomb.obj
 0002:000090fc       ??_C@_1DA@HPBFKMEB@?$AA?$CI?$AA?$CC?$AAB?$AAu?$AAf?$AAf?$AAe?$AAr?$AA?5?$AAt?$AAo?$AAo?$AA?5?$AAs?$AAm?$AAa?$AAl?$AAl?$AA?$CC?$AA?0?$AA?5?$AA0?$AA?$CJ?$AA?$AA@ 100620fc     LIBCMTD:wctomb.obj
 0002:00009130       __indefinite               10062130     LIBCMTD:87disp.obj
 0002:0000913a       __piby2                    1006213a     LIBCMTD:87disp.obj
 0002:00009168       __DEFAULT_CW_in_mem        10062168     LIBCMTD:common.obj
 0002:0000916a       __pi_by_2_to_61            1006216a     LIBCMTD:common.obj
 0002:000091a8       ??_C@_1FE@DHCMIOFC@?$AAf?$AA?3?$AA?2?$AAd?$AAd?$AA?2?$AAv?$AAc?$AAt?$AAo?$AAo?$AAl?$AAs?$AA?2?$AAc?$AAr?$AAt?$AA?2?$AAc?$AAr?$AAt?$AAw?$AA3?$AA2?$AA?2?$AAs?$AAt?$AAd?$AAi?$AAo?$AA?2?$AAv@ 100621a8     LIBCMTD:vswprint.obj
 0002:000091fc       ??_C@_1BK@EPLNBKAK@?$AA_?$AAv?$AAs?$AAw?$AAp?$AAr?$AAi?$AAn?$AAt?$AAf?$AA_?$AAl?$AA?$AA@ 100621fc     LIBCMTD:vswprint.obj
 0002:00009218       ??_C@_1CG@IMMIEPNA@?$AA_?$AAv?$AAs?$AAc?$AAw?$AAp?$AAr?$AAi?$AAn?$AAt?$AAf?$AA_?$AAh?$AAe?$AAl?$AAp?$AAe?$AAr?$AA?$AA@ 10062218     LIBCMTD:vswprint.obj
 0002:00009240       ??_C@_1CE@IGKFIJFD@?$AA_?$AAv?$AAs?$AAw?$AAp?$AAr?$AAi?$AAn?$AAt?$AAf?$AA_?$AAh?$AAe?$AAl?$AAp?$AAe?$AAr?$AA?$AA@ 10062240     LIBCMTD:vswprnc.obj
 0002:00009268       ??_C@_1EC@FABAOFFO@?$AA?$CI?$AAc?$AAo?$AAu?$AAn?$AAt?$AA?5?$AA?$DN?$AA?$DN?$AA?5?$AA0?$AA?$CJ?$AA?5?$AA?$HM?$AA?$HM?$AA?5?$AA?$CI?$AAs?$AAt?$AAr?$AAi?$AAn?$AAg?$AA?5?$AA?$CB?$AA?$DN?$AA?5?$AAN?$AAU?$AAL?$AAL?$AA?$CJ@ 10062268     LIBCMTD:vswprnc.obj
 0002:000092ac       ??_C@_1BO@MLMCMBKN@?$AAf?$AAo?$AAr?$AAm?$AAa?$AAt?$AA?5?$AA?$CB?$AA?$DN?$AA?5?$AAN?$AAU?$AAL?$AAL?$AA?$AA@ 100622ac     LIBCMTD:vswprnc.obj
 0002:000092cc       ??_C@_1BO@OALHJLCI@?$AA_?$AAv?$AAs?$AAw?$AAp?$AAr?$AAi?$AAn?$AAt?$AAf?$AA_?$AAs?$AA_?$AAl?$AA?$AA@ 100622cc     LIBCMTD:vswprnc.obj
 0002:000092f0       ??_C@_1EE@MPCHJFGP@?$AAs?$AAt?$AAr?$AAi?$AAn?$AAg?$AA?5?$AA?$CB?$AA?$DN?$AA?5?$AAN?$AAU?$AAL?$AAL?$AA?5?$AA?$CG?$AA?$CG?$AA?5?$AAs?$AAi?$AAz?$AAe?$AAI?$AAn?$AAW?$AAo?$AAr?$AAd?$AAs?$AA?5?$AA?$DO?$AA?5@ 100622f0     LIBCMTD:vswprnc.obj
 0002:00009334       ??_C@_1CA@BKFKMJFF@?$AA_?$AAv?$AAs?$AAn?$AAw?$AAp?$AAr?$AAi?$AAn?$AAt?$AAf?$AA_?$AAs?$AA_?$AAl?$AA?$AA@ 10062334     LIBCMTD:vswprnc.obj
 0002:00009354       ??_C@_1BG@BBCDFOMA@?$AA_?$AAw?$AAo?$AAu?$AAt?$AAp?$AAu?$AAt?$AA_?$AAl?$AA?$AA@ 10062354     LIBCMTD:woutput.obj
 0002:00009370       ??_C@_1FA@EDIAPAPE@?$AAf?$AA?3?$AA?2?$AAd?$AAd?$AA?2?$AAv?$AAc?$AAt?$AAo?$AAo?$AAl?$AAs?$AA?2?$AAc?$AAr?$AAt?$AA?2?$AAc?$AAr?$AAt?$AAw?$AA3?$AA2?$AA?2?$AAh?$AA?2?$AAt?$AAc?$AAs?$AAc?$AAa@ 10062370     LIBCMTD:strcat_s.obj
 0002:000093c0       ??_C@_1BC@HGPNAKGC@?$AAs?$AAt?$AAr?$AAc?$AAa?$AAt?$AA_?$AAs?$AA?$AA@ 100623c0     LIBCMTD:strcat_s.obj
 0002:000093d4       ??_C@_1DM@FHLMIEG@?$AAS?$AAt?$AAr?$AAi?$AAn?$AAg?$AA?5?$AAi?$AAs?$AA?5?$AAn?$AAo?$AAt?$AA?5?$AAn?$AAu?$AAl?$AAl?$AA?5?$AAt?$AAe?$AAr?$AAm?$AAi?$AAn?$AAa?$AAt?$AAe?$AAd?$AA?$AA@ 100623d4     LIBCMTD:strcat_s.obj
 0002:00009410       ??_C@_1FA@MJKDNFFB@?$AA?$CI?$AAL?$AA?$CC?$AAS?$AAt?$AAr?$AAi?$AAn?$AAg?$AA?5?$AAi?$AAs?$AA?5?$AAn?$AAo?$AAt?$AA?5?$AAn?$AAu?$AAl?$AAl?$AA?5?$AAt?$AAe?$AAr?$AAm?$AAi?$AAn?$AAa?$AAt?$AAe?$AAd@ 10062410     LIBCMTD:strcat_s.obj
 0002:00009460       ??_C@_1BC@PLIEPKPJ@?$AAw?$AAc?$AAs?$AAc?$AAa?$AAt?$AA_?$AAs?$AA?$AA@ 10062460     LIBCMTD:wcscat_s.obj
 0002:00009478       ??_C@_1FA@LEFFAILN@?$AAf?$AA?3?$AA?2?$AAd?$AAd?$AA?2?$AAv?$AAc?$AAt?$AAo?$AAo?$AAl?$AAs?$AA?2?$AAc?$AAr?$AAt?$AA?2?$AAc?$AAr?$AAt?$AAw?$AA3?$AA2?$AA?2?$AAc?$AAo?$AAn?$AAv?$AAe?$AAr?$AAt@ 10062478     LIBCMTD:xtoas.obj
 0002:000094c8       ??_C@_1O@GIMBNLEI@?$AAx?$AAt?$AAo?$AAa?$AA_?$AAs?$AA?$AA@ 100624c8     LIBCMTD:xtoas.obj
 0002:000094d8       ??_C@_1CC@JNJFIMGE@?$AAs?$AAi?$AAz?$AAe?$AAI?$AAn?$AAT?$AAC?$AAh?$AAa?$AAr?$AAs?$AA?5?$AA?$DO?$AA?5?$AA0?$AA?$AA@ 100624d8     LIBCMTD:xtoas.obj
 0002:00009500       ??_C@_1FA@MKGGAGEI@?$AAs?$AAi?$AAz?$AAe?$AAI?$AAn?$AAT?$AAC?$AAh?$AAa?$AAr?$AAs?$AA?5?$AA?$DO?$AA?5?$AA?$CI?$AAs?$AAi?$AAz?$AAe?$AA_?$AAt?$AA?$CJ?$AA?$CI?$AAi?$AAs?$AA_?$AAn?$AAe?$AAg?$AA?5?$AA?$DP@ 10062500     LIBCMTD:xtoas.obj
 0002:00009550       ??_C@_1DE@PCJGDBBD@?$AA2?$AA?5?$AA?$DM?$AA?$DN?$AA?5?$AAr?$AAa?$AAd?$AAi?$AAx?$AA?5?$AA?$CG?$AA?$CG?$AA?5?$AAr?$AAa?$AAd?$AAi?$AAx?$AA?5?$AA?$DM?$AA?$DN?$AA?5?$AA3?$AA6?$AA?$AA@ 10062550     LIBCMTD:xtoas.obj
 0002:00009584       ??_C@_1CM@HABGDNLJ@?$AAl?$AAe?$AAn?$AAg?$AAt?$AAh?$AA?5?$AA?$DM?$AA?5?$AAs?$AAi?$AAz?$AAe?$AAI?$AAn?$AAT?$AAC?$AAh?$AAa?$AAr?$AAs?$AA?$AA@ 10062584     LIBCMTD:xtoas.obj
 0002:000095b0       ??_C@_1BC@MJJNBNFN@?$AAx?$AA6?$AA4?$AAt?$AAo?$AAa?$AA_?$AAs?$AA?$AA@ 100625b0     LIBCMTD:xtoas.obj
 0002:000095c4       ??_C@_1BE@EEKACIGI@?$AAs?$AA?5?$AA?$CB?$AA?$DN?$AA?5?$AAN?$AAU?$AAL?$AAL?$AA?$AA@ 100625c4     LIBCMTD:mbstowcs.obj
 0002:000095d8       ??_C@_1FI@DADFCCMF@?$AAf?$AA?3?$AA?2?$AAd?$AAd?$AA?2?$AAv?$AAc?$AAt?$AAo?$AAo?$AAl?$AAs?$AA?2?$AAc?$AAr?$AAt?$AA?2?$AAc?$AAr?$AAt?$AAw?$AA3?$AA2?$AA?2?$AAc?$AAo?$AAn?$AAv?$AAe?$AAr?$AAt@ 100625d8     LIBCMTD:mbstowcs.obj
 0002:00009630       ??_C@_1CG@JEHFHLNG@?$AA_?$AAm?$AAb?$AAs?$AAt?$AAo?$AAw?$AAc?$AAs?$AA_?$AAl?$AA_?$AAh?$AAe?$AAl?$AAp?$AAe?$AAr?$AA?$AA@ 10062630     LIBCMTD:mbstowcs.obj
 0002:00009658       ??_C@_1JA@JKDFMOPO@?$AA?$CI?$AAp?$AAw?$AAc?$AAs?$AA?5?$AA?$DN?$AA?$DN?$AA?5?$AAN?$AAU?$AAL?$AAL?$AA?5?$AA?$CG?$AA?$CG?$AA?5?$AAs?$AAi?$AAz?$AAe?$AAI?$AAn?$AAW?$AAo?$AAr?$AAd?$AAs?$AA?5?$AA?$DN?$AA?$DN?$AA?5@ 10062658     LIBCMTD:mbstowcs.obj
 0002:000096e8       ??_C@_1BM@PHENIGHD@?$AA_?$AAm?$AAb?$AAs?$AAt?$AAo?$AAw?$AAc?$AAs?$AA_?$AAs?$AA_?$AAl?$AA?$AA@ 100626e8     LIBCMTD:mbstowcs.obj
 0002:00009704       ??_C@_1CM@LLECFMFH@?$AAb?$AAu?$AAf?$AAf?$AAe?$AAr?$AAS?$AAi?$AAz?$AAe?$AA?5?$AA?$DM?$AA?$DN?$AA?5?$AAI?$AAN?$AAT?$AA_?$AAM?$AAA?$AAX?$AA?$AA@ 10062704     LIBCMTD:mbstowcs.obj
 0002:00009730       ??_C@_1CO@JNPEPJAL@?$AAr?$AAe?$AAt?$AAs?$AAi?$AAz?$AAe?$AA?5?$AA?$DM?$AA?$DN?$AA?5?$AAs?$AAi?$AAz?$AAe?$AAI?$AAn?$AAW?$AAo?$AAr?$AAd?$AAs?$AA?$AA@ 10062730     LIBCMTD:mbstowcs.obj
 0002:00009760       ??_C@_1BK@OIBENBPM@?$AAp?$AAw?$AAc?$AAs?$AA?5?$AA?$CB?$AA?$DN?$AA?5?$AAN?$AAU?$AAL?$AAL?$AA?$AA@ 10062760     LIBCMTD:wcstombs.obj
 0002:00009780       ??_C@_1FI@GCFLNCOB@?$AAf?$AA?3?$AA?2?$AAd?$AAd?$AA?2?$AAv?$AAc?$AAt?$AAo?$AAo?$AAl?$AAs?$AA?2?$AAc?$AAr?$AAt?$AA?2?$AAc?$AAr?$AAt?$AAw?$AA3?$AA2?$AA?2?$AAc?$AAo?$AAn?$AAv?$AAe?$AAr?$AAt@ 10062780     LIBCMTD:wcstombs.obj
 0002:000097d8       ??_C@_1CG@LLJCAOHF@?$AA_?$AAw?$AAc?$AAs?$AAt?$AAo?$AAm?$AAb?$AAs?$AA_?$AAl?$AA_?$AAh?$AAe?$AAl?$AAp?$AAe?$AAr?$AA?$AA@ 100627d8     LIBCMTD:wcstombs.obj
 0002:00009800       ??_C@_1IM@MFGKHGBP@?$AA?$CI?$AAd?$AAs?$AAt?$AA?5?$AA?$CB?$AA?$DN?$AA?5?$AAN?$AAU?$AAL?$AAL?$AA?5?$AA?$CG?$AA?$CG?$AA?5?$AAs?$AAi?$AAz?$AAe?$AAI?$AAn?$AAB?$AAy?$AAt?$AAe?$AAs?$AA?5?$AA?$DO?$AA?5?$AA0?$AA?$CJ@ 10062800     LIBCMTD:wcstombs.obj
 0002:0000988c       ??_C@_1BM@BDMCLLDL@?$AA_?$AAw?$AAc?$AAs?$AAt?$AAo?$AAm?$AAb?$AAs?$AA_?$AAs?$AA_?$AAl?$AA?$AA@ 1006288c     LIBCMTD:wcstombs.obj
 0002:000098a8       ??_C@_1CM@KEOGBFLI@?$AAs?$AAi?$AAz?$AAe?$AAI?$AAn?$AAB?$AAy?$AAt?$AAe?$AAs?$AA?5?$AA?$DO?$AA?5?$AAr?$AAe?$AAt?$AAs?$AAi?$AAz?$AAe?$AA?$AA@ 100628a8     LIBCMTD:wcstombs.obj
 0002:000098d4       ??_C@_1O@NCBFODOE@?$AAx?$AAt?$AAo?$AAw?$AA_?$AAs?$AA?$AA@ 100628d4     LIBCMTD:xtows.obj
 0002:000098e4       ??_C@_1BC@HDEJCFPB@?$AAx?$AA6?$AA4?$AAt?$AAo?$AAw?$AA_?$AAs?$AA?$AA@ 100628e4     LIBCMTD:xtows.obj
 0002:000098f8       ??_C@_1FE@CKCGICM@?$AAf?$AA?3?$AA?2?$AAd?$AAd?$AA?2?$AAv?$AAc?$AAt?$AAo?$AAo?$AAl?$AAs?$AA?2?$AAc?$AAr?$AAt?$AA?2?$AAc?$AAr?$AAt?$AAw?$AA3?$AA2?$AA?2?$AAs?$AAt?$AAd?$AAi?$AAo?$AA?2?$AAv@ 100628f8     LIBCMTD:vsnprnc.obj
 0002:0000994c       ??_C@_1CE@PCFPEIFI@?$AA_?$AAv?$AAs?$AAn?$AAp?$AAr?$AAi?$AAn?$AAt?$AAf?$AA_?$AAh?$AAe?$AAl?$AAp?$AAe?$AAr?$AA?$AA@ 1006294c     LIBCMTD:vsnprnc.obj
 0002:00009970       ??_C@_1BM@BLJALHEF@?$AA_?$AAv?$AAs?$AAp?$AAr?$AAi?$AAn?$AAt?$AAf?$AA_?$AAs?$AA_?$AAl?$AA?$AA@ 10062970     LIBCMTD:vsnprnc.obj
 0002:00009990       ??_C@_1EE@OKCKIGFK@?$AAs?$AAt?$AAr?$AAi?$AAn?$AAg?$AA?5?$AA?$CB?$AA?$DN?$AA?5?$AAN?$AAU?$AAL?$AAL?$AA?5?$AA?$CG?$AA?$CG?$AA?5?$AAs?$AAi?$AAz?$AAe?$AAI?$AAn?$AAB?$AAy?$AAt?$AAe?$AAs?$AA?5?$AA?$DO?$AA?5@ 10062990     LIBCMTD:vsnprnc.obj
 0002:000099d4       ??_C@_1BO@MMPELNIM@?$AA_?$AAv?$AAs?$AAn?$AAp?$AAr?$AAi?$AAn?$AAt?$AAf?$AA_?$AAs?$AA_?$AAl?$AA?$AA@ 100629d4     LIBCMTD:vsnprnc.obj
 0002:00009b84       ??_C@_08EHJDFFNH@__based?$CI?$AA@ 10062b84     LIBCMTD:undname.obj
 0002:00009b90       ??_C@_07KOLFKCDI@__cdecl?$AA@ 10062b90     LIBCMTD:undname.obj
 0002:00009b98       ??_C@_08GHMPAG@__pascal?$AA@ 10062b98     LIBCMTD:undname.obj
 0002:00009ba4       ??_C@_09IFJBGAPI@__stdcall?$AA@ 10062ba4     LIBCMTD:undname.obj
 0002:00009bb0       ??_C@_0L@NPHFGOKO@__thiscall?$AA@ 10062bb0     LIBCMTD:undname.obj
 0002:00009bbc       ??_C@_0L@JMKHOMEK@__fastcall?$AA@ 10062bbc     LIBCMTD:undname.obj
 0002:00009bc8       ??_C@_0N@BCKKPABJ@__vectorcall?$AA@ 10062bc8     LIBCMTD:undname.obj
 0002:00009bd8       ??_C@_09HIJEGCPM@__clrcall?$AA@ 10062bd8     LIBCMTD:undname.obj
 0002:00009be4       ??_C@_06GHPCKEAG@__eabi?$AA@ 10062be4     LIBCMTD:undname.obj
 0002:00009bec       ??_C@_07JOMMBBKO@__ptr64?$AA@ 10062bec     LIBCMTD:undname.obj
 0002:00009bf4       ??_C@_0L@PILCLIHE@__restrict?$AA@ 10062bf4     LIBCMTD:undname.obj
 0002:00009c00       ??_C@_0M@GFIIJFMG@__unaligned?$AA@ 10062c00     LIBCMTD:undname.obj
 0002:00009c0c       ??_C@_09DHDLOLLB@restrict?$CI?$AA@ 10062c0c     LIBCMTD:undname.obj
 0002:00009c18       ??_C@_04NIHEBCM@?5new?$AA@ 10062c18     LIBCMTD:undname.obj
 0002:00009c20       ??_C@_07FPCDHGMM@?5delete?$AA@ 10062c20     LIBCMTD:undname.obj
 0002:00009c28       ??_C@_01NEMOKFLO@?$DN?$AA@ 10062c28     LIBCMTD:undname.obj
 0002:00009c2c       ??_C@_02GPIOPFAK@?$DO?$DO?$AA@ 10062c2c     LIBCMTD:undname.obj
 0002:00009c30       ??_C@_02FODMEDOG@?$DM?$DM?$AA@ 10062c30     LIBCMTD:undname.obj
 0002:00009c34       ??_C@_01DCLJPIOD@?$CB?$AA@ 10062c34     LIBCMTD:undname.obj
 0002:00009c38       ??_C@_02EGOFBIJA@?$DN?$DN?$AA@ 10062c38     LIBCMTD:undname.obj
 0002:00009c3c       ??_C@_02FDNJECIE@?$CB?$DN?$AA@ 10062c3c     LIBCMTD:undname.obj
 0002:00009c40       ??_C@_02GPECMEKF@?$FL?$FN?$AA@ 10062c40     LIBCMTD:undname.obj
 0002:00009c44       ??_C@_08LHJFAFGD@operator?$AA@ 10062c44     LIBCMTD:undname.obj
 0002:00009c50       ??_C@_02HBOOOICD@?9?$DO?$AA@ 10062c50     LIBCMTD:undname.obj
 0002:00009c54       ??_C@_01NBENCBCI@?$CK?$AA@ 10062c54     LIBCMTD:undname.obj
 0002:00009c58       ??_C@_02ECNGHCIF@?$CL?$CL?$AA@ 10062c58     LIBCMTD:undname.obj
 0002:00009c5c       ??_C@_02BAABKJLB@?9?9?$AA@ 10062c5c     LIBCMTD:undname.obj
 0002:00009c60       ??_C@_01JOAMLHOP@?9?$AA@   10062c60     LIBCMTD:undname.obj
 0002:00009c64       ??_C@_01MIFGBAGJ@?$CL?$AA@ 10062c64     LIBCMTD:undname.obj
 0002:00009c68       ??_C@_01HNPIGOCE@?$CG?$AA@ 10062c68     LIBCMTD:undname.obj
 0002:00009c6c       ??_C@_03MNHNFDLC@?9?$DO?$CK?$AA@ 10062c6c     LIBCMTD:undname.obj
 0002:00009c70       ??_C@_01KMDKNFGN@?1?$AA@   10062c70     LIBCMTD:undname.obj
 0002:00009c74       ??_C@_01FGNFDNOH@?$CF?$AA@ 10062c74     LIBCMTD:undname.obj
 0002:00009c78       ??_C@_01MNNFJEPP@?$DM?$AA@ 10062c78     LIBCMTD:undname.obj
 0002:00009c7c       ??_C@_02EHCHHCKH@?$DM?$DN?$AA@ 10062c7c     LIBCMTD:undname.obj
 0002:00009c80       ??_C@_01PPODPGHN@?$DO?$AA@ 10062c80     LIBCMTD:undname.obj
 0002:00009c84       ??_C@_02EEKDKGMJ@?$DO?$DN?$AA@ 10062c84     LIBCMTD:undname.obj
 0002:00009c88       ??_C@_01IHBHIGKO@?0?$AA@   10062c88     LIBCMTD:undname.obj
 0002:00009c8c       ??_C@_02HCKGKOFO@?$CI?$CJ?$AA@ 10062c8c     LIBCMTD:undname.obj
 0002:00009c90       ??_C@_01PJKLJHI@?$HO?$AA@  10062c90     LIBCMTD:undname.obj
 0002:00009c94       ??_C@_01JKBOJNNK@?$FO?$AA@ 10062c94     LIBCMTD:undname.obj
 0002:00009c98       ??_C@_01DNKMNLPK@?$HM?$AA@ 10062c98     LIBCMTD:undname.obj
 0002:00009c9c       ??_C@_02PPKAJPJL@?$CG?$CG?$AA@ 10062c9c     LIBCMTD:undname.obj
 0002:00009ca0       ??_C@_02NONPIBCD@?$HM?$HM?$AA@ 10062ca0     LIBCMTD:undname.obj
 0002:00009ca4       ??_C@_02FPIMKNGF@?$CK?$DN?$AA@ 10062ca4     LIBCMTD:undname.obj
 0002:00009ca8       ??_C@_02FOEOMHFC@?$CL?$DN?$AA@ 10062ca8     LIBCMTD:undname.obj
 0002:00009cac       ??_C@_02FKMDLLOA@?9?$DN?$AA@ 10062cac     LIBCMTD:undname.obj
 0002:00009cb0       ??_C@_02FJEHGPIO@?1?$DN?$AA@ 10062cb0     LIBCMTD:undname.obj
 0002:00009cb4       ??_C@_02FENAOKFI@?$CF?$DN?$AA@ 10062cb4     LIBCMTD:undname.obj
 0002:00009cb8       ??_C@_03IKFCCPFF@?$DO?$DO?$DN?$AA@ 10062cb8     LIBCMTD:undname.obj
 0002:00009cbc       ??_C@_03CDNPDDLA@?$DM?$DM?$DN?$AA@ 10062cbc     LIBCMTD:undname.obj
 0002:00009cc0       ??_C@_02FGJGFEAB@?$CG?$DN?$AA@ 10062cc0     LIBCMTD:undname.obj
 0002:00009cc4       ??_C@_02DHLNPPGH@?$HM?$DN?$AA@ 10062cc4     LIBCMTD:undname.obj
 0002:00009cc8       ??_C@_02MHEGNOJ@?$FO?$DN?$AA@ 10062cc8     LIBCMTD:undname.obj
 0002:00009ccc       ??_C@_09IFPLHPGF@?$GAvftable?8?$AA@ 10062ccc     LIBCMTD:undname.obj
 0002:00009cd8       ??_C@_09BLBHBJP@?$GAvbtable?8?$AA@ 10062cd8     LIBCMTD:undname.obj
 0002:00009ce4       ??_C@_07FEEIOKP@?$GAvcall?8?$AA@ 10062ce4     LIBCMTD:undname.obj
 0002:00009cec       ??_C@_08LLFFHHDJ@?$GAtypeof?8?$AA@ 10062cec     LIBCMTD:undname.obj
 0002:00009cf8       ??_C@_0BF@KDPPACIK@?$GAlocal?5static?5guard?8?$AA@ 10062cf8     LIBCMTD:undname.obj
 0002:00009d10       ??_C@_08OBABFOLI@?$GAstring?8?$AA@ 10062d10     LIBCMTD:undname.obj
 0002:00009d1c       ??_C@_0BD@JDLKDPAB@?$GAvbase?5destructor?8?$AA@ 10062d1c     LIBCMTD:undname.obj
 0002:00009d30       ??_C@_0BN@DEGPLNFK@?$GAvector?5deleting?5destructor?8?$AA@ 10062d30     LIBCMTD:undname.obj
 0002:00009d50       ??_C@_0BO@OBMKPJIG@?$GAdefault?5constructor?5closure?8?$AA@ 10062d50     LIBCMTD:undname.obj
 0002:00009d70       ??_C@_0BN@IMDCHIKM@?$GAscalar?5deleting?5destructor?8?$AA@ 10062d70     LIBCMTD:undname.obj
 0002:00009d90       ??_C@_0BO@PFGOCPJJ@?$GAvector?5constructor?5iterator?8?$AA@ 10062d90     LIBCMTD:undname.obj
 0002:00009db0       ??_C@_0BN@LFPFMEDL@?$GAvector?5destructor?5iterator?8?$AA@ 10062db0     LIBCMTD:undname.obj
 0002:00009dd0       ??_C@_0CE@IKBNEHA@?$GAvector?5vbase?5constructor?5iterat@ 10062dd0     LIBCMTD:undname.obj
 0002:00009df4       ??_C@_0BL@NILFHHPC@?$GAvirtual?5displacement?5map?8?$AA@ 10062df4     LIBCMTD:undname.obj
 0002:00009e10       ??_C@_0CB@JONCMFFK@?$GAeh?5vector?5constructor?5iterator?8@ 10062e10     LIBCMTD:undname.obj
 0002:00009e34       ??_C@_0CA@GCEOPDGL@?$GAeh?5vector?5destructor?5iterator?8?$AA@ 10062e34     LIBCMTD:undname.obj
 0002:00009e54       ??_C@_0CH@OOJPLCPH@?$GAeh?5vector?5vbase?5constructor?5ite@ 10062e54     LIBCMTD:undname.obj
 0002:00009e7c       ??_C@_0BL@LLKPOHJI@?$GAcopy?5constructor?5closure?8?$AA@ 10062e7c     LIBCMTD:undname.obj
 0002:00009e98       ??_C@_0BA@KBCDOMBN@?$GAudt?5returning?8?$AA@ 10062e98     LIBCMTD:undname.obj
 0002:00009ea8       ??_C@_03KLGMFNMG@?$GAEH?$AA@ 10062ea8     LIBCMTD:undname.obj
 0002:00009eac       ??_C@_05KHLCHHI@?$GARTTI?$AA@ 10062eac     LIBCMTD:undname.obj
 0002:00009eb4       ??_C@_0BA@KKLDJDLB@?$GAlocal?5vftable?8?$AA@ 10062eb4     LIBCMTD:undname.obj
 0002:00009ec4       ??_C@_0CE@IIHCMGGL@?$GAlocal?5vftable?5constructor?5closu@ 10062ec4     LIBCMTD:undname.obj
 0002:00009ee8       ??_C@_06FHBGPFGH@?5new?$FL?$FN?$AA@ 10062ee8     LIBCMTD:undname.obj
 0002:00009ef0       ??_C@_09LBNFPBCA@?5delete?$FL?$FN?$AA@ 10062ef0     LIBCMTD:undname.obj
 0002:00009efc       ??_C@_0P@HJKNJFNN@?$GAomni?5callsig?8?$AA@ 10062efc     LIBCMTD:undname.obj
 0002:00009f0c       ??_C@_0BL@CNOONJFP@?$GAplacement?5delete?5closure?8?$AA@ 10062f0c     LIBCMTD:undname.obj
 0002:00009f28       ??_C@_0BN@CKNJLHMB@?$GAplacement?5delete?$FL?$FN?5closure?8?$AA@ 10062f28     LIBCMTD:undname.obj
 0002:00009f48       ??_C@_0CG@CFDHKGGD@?$GAmanaged?5vector?5constructor?5iter@ 10062f48     LIBCMTD:undname.obj
 0002:00009f70       ??_C@_0CF@IMGKMJNO@?$GAmanaged?5vector?5destructor?5itera@ 10062f70     LIBCMTD:undname.obj
 0002:00009f98       ??_C@_0CG@HLDDJMAG@?$GAeh?5vector?5copy?5constructor?5iter@ 10062f98     LIBCMTD:undname.obj
 0002:00009fc0       ??_C@_0CM@FCBBDIGB@?$GAeh?5vector?5vbase?5copy?5constructo@ 10062fc0     LIBCMTD:undname.obj
 0002:00009fec       ??_C@_0BL@CLIPGLGB@?$GAdynamic?5initializer?5for?5?8?$AA@ 10062fec     LIBCMTD:undname.obj
 0002:0000a008       ??_C@_0CB@PDBIFEP@?$GAdynamic?5atexit?5destructor?5for?5?8@ 10063008     LIBCMTD:undname.obj
 0002:0000a02c       ??_C@_0CD@CGAJBKEJ@?$GAvector?5copy?5constructor?5iterato@ 1006302c     LIBCMTD:undname.obj
 0002:0000a050       ??_C@_0CJ@GJELGAMM@?$GAvector?5vbase?5copy?5constructor?5i@ 10063050     LIBCMTD:undname.obj
 0002:0000a07c       ??_C@_0CL@FGIJHLCE@?$GAmanaged?5vector?5copy?5constructor@ 1006307c     LIBCMTD:undname.obj
 0002:0000a0a8       ??_C@_0BM@PMGGMLDN@?$GAlocal?5static?5thread?5guard?8?$AA@ 100630a8     LIBCMTD:undname.obj
 0002:0000a0c4       ??_C@_0BC@DAFEJGAK@?5Type?5Descriptor?8?$AA@ 100630c4     LIBCMTD:undname.obj
 0002:0000a0d8       ??_C@_0BM@LDKODKLH@?5Base?5Class?5Descriptor?5at?5?$CI?$AA@ 100630d8     LIBCMTD:undname.obj
 0002:0000a0f4       ??_C@_0BD@LGICGFMM@?5Base?5Class?5Array?8?$AA@ 100630f4     LIBCMTD:undname.obj
 0002:0000a108       ??_C@_0BN@MECKDCOJ@?5Class?5Hierarchy?5Descriptor?8?$AA@ 10063108     LIBCMTD:undname.obj
 0002:0000a128       ??_C@_0BK@CFCOFLF@?5Complete?5Object?5Locator?8?$AA@ 10063128     LIBCMTD:undname.obj
 0002:0000a144       ??_C@_04HEJADOOB@CV?3?5?$AA@ 10063144     LIBCMTD:undname.obj
 0002:0000a14c       ??_C@_02MOLJINC@?3?3?$AA@  1006314c     LIBCMTD:undname.obj
 0002:0000a150       ??_C@_0BE@JAEOCHPE@template?9parameter?9?$AA@ 10063150     LIBCMTD:undname.obj
 0002:0000a164       ??_C@_0O@KHGCOMHP@generic?9type?9?$AA@ 10063164     LIBCMTD:undname.obj
 0002:0000a174       ??_C@_01NLNLIGKH@?$GA?$AA@ 10063174     LIBCMTD:undname.obj
 0002:0000a178       ??_C@_01GEODFPGF@?8?$AA@   10063178     LIBCMTD:undname.obj
 0002:0000a17c       ??_C@_0BG@JNJLAMPM@?$GAanonymous?5namespace?8?$AA@ 1006317c     LIBCMTD:undname.obj
 0002:0000a194       ??_C@_02OHHJMEON@?8?8?$AA@ 10063194     LIBCMTD:undname.obj
 0002:0000a198       ??_C@_0BN@IBLMMFAP@?$GAnon?9type?9template?9parameter?$AA@ 10063198     LIBCMTD:undname.obj
 0002:0000a1b8       ??_C@_04GKJNKENE@void?$AA@ 100631b8     LIBCMTD:undname.obj
 0002:0000a1c0       ??_C@_0BE@EODMJLIF@?$GAtemplate?9parameter?$AA@ 100631c0     LIBCMTD:undname.obj
 0002:0000a1d4       ??_C@_04HIBGFPH@NULL?$AA@  100631d4     LIBCMTD:undname.obj
 0002:0000a1dc       ??_C@_03OPGICMGF@?$HN?8?5?$AA@ 100631dc     LIBCMTD:undname.obj
 0002:0000a1e0       ??_C@_02IGFCGPIL@?$HN?8?$AA@ 100631e0     LIBCMTD:undname.obj
 0002:0000a1e4       ??_C@_01CLKCMJKC@?5?$AA@   100631e4     LIBCMTD:undname.obj
 0002:0000a1e8       ??_C@_0N@CBHHHENL@?$GAvtordispex?$HL?$AA@ 100631e8     LIBCMTD:undname.obj
 0002:0000a1f8       ??_C@_0L@GHPFDFH@?$GAvtordisp?$HL?$AA@ 100631f8     LIBCMTD:undname.obj
 0002:0000a204       ??_C@_0L@HNGCOGAE@?$GAadjustor?$HL?$AA@ 10063204     LIBCMTD:undname.obj
 0002:0000a210       ??_C@_0CB@KJDOOODE@?$GAlocal?5static?5destructor?5helper?8@ 10063210     LIBCMTD:undname.obj
 0002:0000a234       ??_C@_0DB@ILEFOCIJ@?$GAtemplate?5static?5data?5member?5con@ 10063234     LIBCMTD:undname.obj
 0002:0000a268       ??_C@_0DA@HGFJFBBE@?$GAtemplate?5static?5data?5member?5des@ 10063268     LIBCMTD:undname.obj
 0002:0000a298       ??_C@_07PGOEDBHP@static?5?$AA@ 10063298     LIBCMTD:undname.obj
 0002:0000a2a0       ??_C@_08NIEOINHE@virtual?5?$AA@ 100632a0     LIBCMTD:undname.obj
 0002:0000a2ac       ??_C@_09LAPHOOG@private?3?5?$AA@ 100632ac     LIBCMTD:undname.obj
 0002:0000a2b8       ??_C@_0M@GAIFPFIP@protected?3?5?$AA@ 100632b8     LIBCMTD:undname.obj
 0002:0000a2c4       ??_C@_08GPDDCMKI@public?3?5?$AA@ 100632c4     LIBCMTD:undname.obj
 0002:0000a2d0       ??_C@_08KJLFOPNE@?$FLthunk?$FN?3?$AA@ 100632d0     LIBCMTD:undname.obj
 0002:0000a2dc       ??_C@_0M@DHNBOJMP@extern?5?$CCC?$CC?5?$AA@ 100632dc     LIBCMTD:undname.obj
 0002:0000a2e8       ??_C@_02KCKGHPCA@?$CJ?5?$AA@ 100632e8     LIBCMTD:undname.obj
 0002:0000a2ec       ??_C@_05CIHEBHNO@char?5?$AA@ 100632ec     LIBCMTD:undname.obj
 0002:0000a2f4       ??_C@_06EHJMALKF@short?5?$AA@ 100632f4     LIBCMTD:undname.obj
 0002:0000a2fc       ??_C@_04LAHKHJMA@int?5?$AA@ 100632fc     LIBCMTD:undname.obj
 0002:0000a304       ??_C@_05CJIMAING@long?5?$AA@ 10063304     LIBCMTD:undname.obj
 0002:0000a30c       ??_C@_09EBBEKKIH@unsigned?5?$AA@ 1006330c     LIBCMTD:undname.obj
 0002:0000a318       ??_C@_05BEFAKPML@void?5?$AA@ 10063318     LIBCMTD:undname.obj
 0002:0000a320       ??_C@_08PABEKFH@volatile?$AA@ 10063320     LIBCMTD:undname.obj
 0002:0000a32c       ??_C@_0P@GCOCNKDM@std?3?3nullptr_t?$AA@ 1006332c     LIBCMTD:undname.obj
 0002:0000a33c       ??_C@_0L@EGPHHEKN@?$DMellipsis?$DO?$AA@ 1006333c     LIBCMTD:undname.obj
 0002:0000a348       ??_C@_04EENFHACM@?0?4?4?4?$AA@ 10063348     LIBCMTD:undname.obj
 0002:0000a350       ??_C@_0M@ELJOJFFH@?0?$DMellipsis?$DO?$AA@ 10063350     LIBCMTD:undname.obj
 0002:0000a35c       ??_C@_07HDJPLPEK@?5throw?$CI?$AA@ 1006335c     LIBCMTD:undname.obj
 0002:0000a364       ??_C@_03PBJBJNON@cpu?$AA@  10063364     LIBCMTD:undname.obj
 0002:0000a368       ??_C@_03DCBBJBAA@amp?$AA@  10063368     LIBCMTD:undname.obj
 0002:0000a36c       ??_C@_02KEGNLNML@?0?5?$AA@ 1006336c     LIBCMTD:undname.obj
 0002:0000a370       ??_C@_04ENMBGAPA@char?$AA@ 10063370     LIBCMTD:undname.obj
 0002:0000a378       ??_C@_05BFKKPKCG@short?$AA@ 10063378     LIBCMTD:undname.obj
 0002:0000a380       ??_C@_03JBIPMCLC@int?$AA@  10063380     LIBCMTD:undname.obj
 0002:0000a384       ??_C@_04GOKPGOLB@long?$AA@ 10063384     LIBCMTD:undname.obj
 0002:0000a38c       ??_C@_05KNFBNCOH@float?$AA@ 1006338c     LIBCMTD:undname.obj
 0002:0000a394       ??_C@_06BNJCAIGJ@double?$AA@ 10063394     LIBCMTD:undname.obj
 0002:0000a39c       ??_C@_04DDKJGDCM@bool?$AA@ 1006339c     LIBCMTD:undname.obj
 0002:0000a3a4       ??_C@_06EBGKOKIG@__int8?$AA@ 100633a4     LIBCMTD:undname.obj
 0002:0000a3ac       ??_C@_07ICFHOGAF@__int16?$AA@ 100633ac     LIBCMTD:undname.obj
 0002:0000a3b4       ??_C@_07OFLPPHGP@__int32?$AA@ 100633b4     LIBCMTD:undname.obj
 0002:0000a3bc       ??_C@_07LFCOJCAC@__int64?$AA@ 100633bc     LIBCMTD:undname.obj
 0002:0000a3c4       ??_C@_08GAHOLHEO@__int128?$AA@ 100633c4     LIBCMTD:undname.obj
 0002:0000a3d0       ??_C@_09EEKGDCPH@?$DMunknown?$DO?$AA@ 100633d0     LIBCMTD:undname.obj
 0002:0000a3dc       ??_C@_07CLGGIAMF@wchar_t?$AA@ 100633dc     LIBCMTD:undname.obj
 0002:0000a3e4       ??_C@_06GCICPBLB@__w64?5?$AA@ 100633e4     LIBCMTD:undname.obj
 0002:0000a3ec       ??_C@_07NFANNNEC@UNKNOWN?$AA@ 100633ec     LIBCMTD:undname.obj
 0002:0000a3f4       ??_C@_07EDHNAJHC@signed?5?$AA@ 100633f4     LIBCMTD:undname.obj
 0002:0000a3fc       ??_C@_05BNCCCJPP@const?$AA@ 100633fc     LIBCMTD:undname.obj
 0002:0000a404       ??_C@_09EFNPDFFP@?5volatile?$AA@ 10063404     LIBCMTD:undname.obj
 0002:0000a410       ??_C@_0P@GCIFDJCJ@?$GAunknown?5ecsu?8?$AA@ 10063410     LIBCMTD:undname.obj
 0002:0000a420       ??_C@_06MOJHIBMG@union?5?$AA@ 10063420     LIBCMTD:undname.obj
 0002:0000a428       ??_C@_07DIBCDNGL@struct?5?$AA@ 10063428     LIBCMTD:undname.obj
 0002:0000a430       ??_C@_06LJBABKPM@class?5?$AA@ 10063430     LIBCMTD:undname.obj
 0002:0000a438       ??_C@_08KOFANOFK@coclass?5?$AA@ 10063438     LIBCMTD:undname.obj
 0002:0000a444       ??_C@_0N@DLIEFKNA@cointerface?5?$AA@ 10063444     LIBCMTD:undname.obj
 0002:0000a454       ??_C@_05LJGMCFOG@enum?5?$AA@ 10063454     LIBCMTD:undname.obj
 0002:0000a45c       ??_C@_09GAIEOBLP@volatile?5?$AA@ 1006345c     LIBCMTD:undname.obj
 0002:0000a468       ??_C@_06LIJLOJAG@const?5?$AA@ 10063468     LIBCMTD:undname.obj
 0002:0000a470       ??_C@_0M@EALIELKG@cli?3?3array?$DM?$AA@ 10063470     LIBCMTD:undname.obj
 0002:0000a47c       ??_C@_0O@GKABPPIF@cli?3?3pin_ptr?$DM?$AA@ 1006347c     LIBCMTD:undname.obj
 0002:0000a48c       ??_C@_02GOGNNPBN@?$CJ?$FL?$AA@ 1006348c     LIBCMTD:undname.obj
 0002:0000a490       ??_C@_06EEGAIFAK@?$HLflat?$HN?$AA@ 10063490     LIBCMTD:undname.obj
 0002:0000a498       ??_C@_05JIBOFOHK@?$HLfor?5?$AA@ 10063498     LIBCMTD:undname.obj
 0002:0000a4a0       ??_C@_02MDINNEEG@s?5?$AA@  100634a0     LIBCMTD:undname.obj
 0002:0000a4a8       ??_7DNameNode@@6B@         100634a8     LIBCMTD:undname.obj
 0002:0000a4b8       ??_7charNode@@6B@          100634b8     LIBCMTD:undname.obj
 0002:0000a4c8       ??_7pcharNode@@6B@         100634c8     LIBCMTD:undname.obj
 0002:0000a4d8       ??_7pDNameNode@@6B@        100634d8     LIBCMTD:undname.obj
 0002:0000a4e8       ??_7DNameStatusNode@@6B@   100634e8     LIBCMTD:undname.obj
 0002:0000a4f8       ??_7pairNode@@6B@          100634f8     LIBCMTD:undname.obj
 0002:0000a504       ??_C@_04OKOHEJBO@?5?$DP?$DP?5?$AA@ 10063504     LIBCMTD:undname.obj
 0002:0000a510       ??_C@_1FI@JBLIKEIM@?$AAf?$AA?3?$AA?2?$AAd?$AAd?$AA?2?$AAv?$AAc?$AAt?$AAo?$AAo?$AAl?$AAs?$AA?2?$AAc?$AAr?$AAt?$AA?2?$AAc?$AAr?$AAt?$AAw?$AA3?$AA2?$AA?2?$AAc?$AAo?$AAn?$AAv?$AAe?$AAr?$AAt@ 10063510     LIBCMTD:_fptostr.obj
 0002:0000a568       ??_C@_1BC@OPALLEB@?$AA_?$AAf?$AAp?$AAt?$AAo?$AAs?$AAt?$AAr?$AA?$AA@ 10063568     LIBCMTD:_fptostr.obj
 0002:0000a580       ??_C@_1GM@CEDLGDDI@?$AAs?$AAi?$AAz?$AAe?$AAI?$AAn?$AAB?$AAy?$AAt?$AAe?$AAs?$AA?5?$AA?$DO?$AA?5?$AA?$CI?$AAs?$AAi?$AAz?$AAe?$AA_?$AAt?$AA?$CJ?$AA?$CI?$AA?$CI?$AAd?$AAi?$AAg?$AAi?$AAt?$AAs?$AA?5?$AA?$DO@ 10063580     LIBCMTD:_fptostr.obj
 0002:0000a5ec       ??_C@_1BK@CLIEHFDF@?$AAp?$AAf?$AAl?$AAt?$AA?5?$AA?$CB?$AA?$DN?$AA?5?$AAN?$AAU?$AAL?$AAL?$AA?$AA@ 100635ec     LIBCMTD:_fptostr.obj
 0002:0000a608       ??_C@_1EK@LJBJCHGA@?$AAf?$AA?3?$AA?2?$AAd?$AAd?$AA?2?$AAv?$AAc?$AAt?$AAo?$AAo?$AAl?$AAs?$AA?2?$AAc?$AAr?$AAt?$AA?2?$AAf?$AAp?$AAw?$AA3?$AA2?$AA?2?$AAc?$AAo?$AAn?$AAv?$AA?2?$AAc?$AAf?$AAo@ 10063608     LIBCMTD:cfout.obj
 0002:0000a654       ??_C@_1BC@BPMMEHLK@?$AA_?$AAf?$AAl?$AAt?$AAo?$AAu?$AAt?$AA2?$AA?$AA@ 10063654     LIBCMTD:cfout.obj
 0002:0000a668       ??_C@_1FK@KODCOBKF@?$AAs?$AAt?$AAr?$AAc?$AAp?$AAy?$AA_?$AAs?$AA?$CI?$AAr?$AAe?$AAs?$AAu?$AAl?$AAt?$AAs?$AAt?$AAr?$AA?0?$AA?5?$AAr?$AAe?$AAs?$AAu?$AAl?$AAt?$AAs?$AAi?$AAz?$AAe?$AA?0?$AA?5@ 10063668     LIBCMTD:cfout.obj
 0002:0000a6c8       ??_C@_1EM@EGEEBJLG@?$AA?$CI?$AAo?$AAp?$AAt?$AAi?$AAo?$AAn?$AAs?$AA?5?$AA?$CG?$AA?5?$AA?$HO?$AA_?$AAT?$AAW?$AAO?$AA_?$AAD?$AAI?$AAG?$AAI?$AAT?$AA_?$AAE?$AAX?$AAP?$AAO?$AAN?$AAE?$AAN?$AAT?$AA?$CJ@ 100636c8     LIBCMTD:outputformat.obj
 0002:0000a718       ??_C@_1FM@FBHCILLE@?$AAf?$AA?3?$AA?2?$AAd?$AAd?$AA?2?$AAv?$AAc?$AAt?$AAo?$AAo?$AAl?$AAs?$AA?2?$AAc?$AAr?$AAt?$AA?2?$AAc?$AAr?$AAt?$AAw?$AA3?$AA2?$AA?2?$AAs?$AAt?$AAd?$AAi?$AAo?$AA?2?$AAo@ 10063718     LIBCMTD:outputformat.obj
 0002:0000a774       ??_C@_1CG@EBJECAJM@?$AA_?$AAs?$AAe?$AAt?$AA_?$AAo?$AAu?$AAt?$AAp?$AAu?$AAt?$AA_?$AAf?$AAo?$AAr?$AAm?$AAa?$AAt?$AA?$AA@ 10063774     LIBCMTD:outputformat.obj
 0002:0000a79c       ??_C@_1DG@JNDMIEJL@?$AA?$CI?$AA?$CC?$AAI?$AAn?$AAv?$AAa?$AAl?$AAi?$AAd?$AA?5?$AAi?$AAn?$AAp?$AAu?$AAt?$AA?5?$AAv?$AAa?$AAl?$AAu?$AAe?$AA?$CC?$AA?0?$AA?5?$AA0?$AA?$CJ?$AA?$AA@ 1006379c     LIBCMTD:contrlfp.obj
 0002:0000a7d8       ??_C@_1FA@IJLDLDMO@?$AAf?$AA?3?$AA?2?$AAd?$AAd?$AA?2?$AAv?$AAc?$AAt?$AAo?$AAo?$AAl?$AAs?$AA?2?$AAc?$AAr?$AAt?$AA?2?$AAf?$AAp?$AAw?$AA3?$AA2?$AA?2?$AAt?$AAr?$AAa?$AAn?$AA?2?$AAc?$AAo?$AAn@ 100637d8     LIBCMTD:contrlfp.obj
 0002:0000a828       ??_C@_1BK@CDOALEA@?$AA_?$AAc?$AAo?$AAn?$AAt?$AAr?$AAo?$AAl?$AAf?$AAp?$AA_?$AAs?$AA?$AA@ 10063828     LIBCMTD:contrlfp.obj
 0002:0000a844       ??_C@_1BE@PMMBFFCC@?$AAw?$AAc?$AAs?$AAn?$AAc?$AAp?$AAy?$AA_?$AAs?$AA?$AA@ 10063844     LIBCMTD:wcsncpy_s.obj
 0002:0000a858       ??_C@_1DE@BCNCAIK@?$AA?$CI?$AA?$CC?$AAI?$AAn?$AAv?$AAa?$AAl?$AAi?$AAd?$AA?5?$AAe?$AAr?$AAr?$AAo?$AAr?$AA_?$AAm?$AAo?$AAd?$AAe?$AA?$CC?$AA?0?$AA?5?$AA0?$AA?$CJ?$AA?$AA@ 10063858     LIBCMTD:errmode.obj
 0002:0000a890       ??_C@_1FA@PBBGNIFD@?$AAf?$AA?3?$AA?2?$AAd?$AAd?$AA?2?$AAv?$AAc?$AAt?$AAo?$AAo?$AAl?$AAs?$AA?2?$AAc?$AAr?$AAt?$AA?2?$AAc?$AAr?$AAt?$AAw?$AA3?$AA2?$AA?2?$AAm?$AAi?$AAs?$AAc?$AA?2?$AAe?$AAr@ 10063890     LIBCMTD:errmode.obj
 0002:0000a8e0       ??_C@_1CA@LFDHAMEM@?$AA_?$AAs?$AAe?$AAt?$AA_?$AAe?$AAr?$AAr?$AAo?$AAr?$AA_?$AAm?$AAo?$AAd?$AAe?$AA?$AA@ 100638e0     LIBCMTD:errmode.obj
 0002:0000a900       ??_C@_1FE@KNPCCODH@?$AA?$CI?$AA?$CC?$AAC?$AAo?$AAr?$AAr?$AAu?$AAp?$AAt?$AAe?$AAd?$AA?5?$AAp?$AAo?$AAi?$AAn?$AAt?$AAe?$AAr?$AA?5?$AAp?$AAa?$AAs?$AAs?$AAe?$AAd?$AA?5?$AAt?$AAo?$AA?5?$AA_?$AAf@ 10063900     LIBCMTD:a_loc.obj
 0002:0000a958       ??_C@_1EI@DKDOCKPJ@?$AAf?$AA?3?$AA?2?$AAd?$AAd?$AA?2?$AAv?$AAc?$AAt?$AAo?$AAo?$AAl?$AAs?$AA?2?$AAc?$AAr?$AAt?$AA?2?$AAc?$AAr?$AAt?$AAw?$AA3?$AA2?$AA?2?$AAh?$AA?2?$AAm?$AAa?$AAl?$AAl?$AAo@ 10063958     LIBCMTD:a_loc.obj
 0002:0000a9a0       ??_C@_15EDMHLDMO@?$AAc?$AAa?$AA?$AA@ 100639a0     LIBCMTD:winapinls.obj
 0002:0000a9a8       ??_C@_1O@BPEAJADD@?$AAz?$AAh?$AA?9?$AAC?$AAH?$AAS?$AA?$AA@ 100639a8     LIBCMTD:winapinls.obj
 0002:0000a9b8       ??_C@_15LJNHCMNK@?$AAc?$AAs?$AA?$AA@ 100639b8     LIBCMTD:winapinls.obj
 0002:0000a9c0       ??_C@_15FOMCIDHG@?$AAd?$AAa?$AA?$AA@ 100639c0     LIBCMTD:winapinls.obj
 0002:0000a9c8       ??_C@_15NBKABECB@?$AAd?$AAe?$AA?$AA@ 100639c8     LIBCMTD:winapinls.obj
 0002:0000a9d0       ??_C@_15GHPEIIAO@?$AAe?$AAl?$AA?$AA@ 100639d0     LIBCMTD:winapinls.obj
 0002:0000a9d8       ??_C@_15MNPNEAIF@?$AAe?$AAn?$AA?$AA@ 100639d8     LIBCMTD:winapinls.obj
 0002:0000a9e0       ??_C@_15GPIOMPMH@?$AAe?$AAs?$AA?$AA@ 100639e0     LIBCMTD:winapinls.obj
 0002:0000a9e8       ??_C@_15NGLOAKJC@?$AAf?$AAi?$AA?$AA@ 100639e8     LIBCMTD:winapinls.obj
 0002:0000a9f0       ??_C@_15FBKGNKAM@?$AAf?$AAr?$AA?$AA@ 100639f0     LIBCMTD:winapinls.obj
 0002:0000a9f8       ??_C@_15KGGCNEFK@?$AAh?$AAe?$AA?$AA@ 100639f8     LIBCMTD:winapinls.obj
 0002:0000aa00       ??_C@_15PGHLIDMF@?$AAh?$AAu?$AA?$AA@ 10063a00     LIBCMTD:winapinls.obj
 0002:0000aa08       ??_C@_15BIEMAPLM@?$AAi?$AAs?$AA?$AA@ 10063a08     LIBCMTD:winapinls.obj
 0002:0000aa10       ??_C@_15IFJLDHAF@?$AAi?$AAt?$AA?$AA@ 10063a10     LIBCMTD:winapinls.obj
 0002:0000aa18       ??_C@_15GEMIOCAG@?$AAj?$AAa?$AA?$AA@ 10063a18     LIBCMTD:winapinls.obj
 0002:0000aa20       ??_C@_15EPELEGJA@?$AAk?$AAo?$AA?$AA@ 10063a20     LIBCMTD:winapinls.obj
 0002:0000aa28       ??_C@_15NDDHIMN@?$AAn?$AAl?$AA?$AA@ 10063a28     LIBCMTD:winapinls.obj
 0002:0000aa30       ??_C@_15BPIGNHCD@?$AAn?$AAo?$AA?$AA@ 10063a30     LIBCMTD:winapinls.obj
 0002:0000aa38       ??_C@_15DEOPBLCG@?$AAp?$AAl?$AA?$AA@ 10063a38     LIBCMTD:winapinls.obj
 0002:0000aa40       ??_C@_15KBECGEFG@?$AAp?$AAt?$AA?$AA@ 10063a40     LIBCMTD:winapinls.obj
 0002:0000aa48       ??_C@_15GLJCBFMD@?$AAr?$AAo?$AA?$AA@ 10063a48     LIBCMTD:winapinls.obj
 0002:0000aa50       ??_C@_15FEDGKCDI@?$AAr?$AAu?$AA?$AA@ 10063a50     LIBCMTD:winapinls.obj
 0002:0000aa58       ??_C@_15GLKMLLHM@?$AAh?$AAr?$AA?$AA@ 10063a58     LIBCMTD:winapinls.obj
 0002:0000aa60       ??_C@_15CPKMFBDB@?$AAs?$AAk?$AA?$AA@ 10063a60     LIBCMTD:winapinls.obj
 0002:0000aa68       ??_C@_15BAAIOGMK@?$AAs?$AAq?$AA?$AA@ 10063a68     LIBCMTD:winapinls.obj
 0002:0000aa70       ??_C@_15INNPNOHD@?$AAs?$AAv?$AA?$AA@ 10063a70     LIBCMTD:winapinls.obj
 0002:0000aa78       ??_C@_15CABMMOGH@?$AAt?$AAh?$AA?$AA@ 10063a78     LIBCMTD:winapinls.obj
 0002:0000aa80       ??_C@_15BPLIHJJM@?$AAt?$AAr?$AA?$AA@ 10063a80     LIBCMTD:winapinls.obj
 0002:0000aa88       ??_C@_15NEOEKKDJ@?$AAu?$AAr?$AA?$AA@ 10063a88     LIBCMTD:winapinls.obj
 0002:0000aa90       ??_C@_15NFICGAJK@?$AAi?$AAd?$AA?$AA@ 10063a90     LIBCMTD:winapinls.obj
 0002:0000aa98       ??_C@_15PJPFLCCM@?$AAu?$AAk?$AA?$AA@ 10063a98     LIBCMTD:winapinls.obj
 0002:0000aaa0       ??_C@_15HPJPHDM@?$AAb?$AAe?$AA?$AA@ 10063aa0     LIBCMTD:winapinls.obj
 0002:0000aaa8       ??_C@_15LCHLGJII@?$AAs?$AAl?$AA?$AA@ 10063aa8     LIBCMTD:winapinls.obj
 0002:0000aab0       ??_C@_15PCFJPHHO@?$AAe?$AAt?$AA?$AA@ 10063ab0     LIBCMTD:winapinls.obj
 0002:0000aab8       ??_C@_15HPFPGODN@?$AAl?$AAv?$AA?$AA@ 10063ab8     LIBCMTD:winapinls.obj
 0002:0000aac0       ??_C@_15NFFGKGLG@?$AAl?$AAt?$AA?$AA@ 10063ac0     LIBCMTD:winapinls.obj
 0002:0000aac8       ??_C@_15BDAKCCHN@?$AAf?$AAa?$AA?$AA@ 10063ac8     LIBCMTD:winapinls.obj
 0002:0000aad0       ??_C@_15NFGIAIAJ@?$AAv?$AAi?$AA?$AA@ 10063ad0     LIBCMTD:winapinls.obj
 0002:0000aad8       ??_C@_15LMKNDMHN@?$AAh?$AAy?$AA?$AA@ 10063ad8     LIBCMTD:winapinls.obj
 0002:0000aae0       ??_C@_15IJBHMCFL@?$AAa?$AAz?$AA?$AA@ 10063ae0     LIBCMTD:winapinls.obj
 0002:0000aae8       ??_C@_15EKOFJABL@?$AAe?$AAu?$AA?$AA@ 10063ae8     LIBCMTD:winapinls.obj
 0002:0000aaf0       ??_C@_15BGHADCNK@?$AAm?$AAk?$AA?$AA@ 10063af0     LIBCMTD:winapinls.obj
 0002:0000aaf8       ??_C@_15JDNICKHM@?$AAa?$AAf?$AA?$AA@ 10063af8     LIBCMTD:winapinls.obj
 0002:0000ab00       ??_C@_15KPJEDBKD@?$AAk?$AAa?$AA?$AA@ 10063b00     LIBCMTD:winapinls.obj
 0002:0000ab08       ??_C@_15PDNFFFEO@?$AAf?$AAo?$AA?$AA@ 10063b08     LIBCMTD:winapinls.obj
 0002:0000ab10       ??_C@_15OMLEGLOC@?$AAh?$AAi?$AA?$AA@ 10063b10     LIBCMTD:winapinls.obj
 0002:0000ab18       ??_C@_15IDNNENKK@?$AAm?$AAs?$AA?$AA@ 10063b18     LIBCMTD:winapinls.obj
 0002:0000ab20       ??_C@_15MACJNBMH@?$AAk?$AAk?$AA?$AA@ 10063b20     LIBCMTD:winapinls.obj
 0002:0000ab28       ??_C@_15DKDJEOND@?$AAk?$AAy?$AA?$AA@ 10063b28     LIBCMTD:winapinls.obj
 0002:0000ab30       ??_C@_15DFGDLJBG@?$AAs?$AAw?$AA?$AA@ 10063b30     LIBCMTD:winapinls.obj
 0002:0000ab38       ??_C@_15BBFAICNG@?$AAu?$AAz?$AA?$AA@ 10063b38     LIBCMTD:winapinls.obj
 0002:0000ab40       ??_C@_15DKNDCGEA@?$AAt?$AAt?$AA?$AA@ 10063b40     LIBCMTD:winapinls.obj
 0002:0000ab48       ??_C@_15MGIFMDPL@?$AAp?$AAa?$AA?$AA@ 10063b48     LIBCMTD:winapinls.obj
 0002:0000ab50       ??_C@_15HCNDBBA@?$AAg?$AAu?$AA?$AA@ 10063b50     LIBCMTD:winapinls.obj
 0002:0000ab58       ??_C@_15FNBEIBON@?$AAt?$AAa?$AA?$AA@ 10063b58     LIBCMTD:winapinls.obj
 0002:0000ab60       ??_C@_15NCHGBGLK@?$AAt?$AAe?$AA?$AA@ 10063b60     LIBCMTD:winapinls.obj
 0002:0000ab68       ??_C@_15PHPHCBPF@?$AAk?$AAn?$AA?$AA@ 10063b68     LIBCMTD:winapinls.obj
 0002:0000ab70       ??_C@_15DLGBCKMP@?$AAm?$AAr?$AA?$AA@ 10063b70     LIBCMTD:winapinls.obj
 0002:0000ab78       ??_C@_15EABBLBFF@?$AAs?$AAa?$AA?$AA@ 10063b78     LIBCMTD:winapinls.obj
 0002:0000ab80       ??_C@_15CBKOMCOI@?$AAm?$AAn?$AA?$AA@ 10063b80     LIBCMTD:winapinls.obj
 0002:0000ab88       ??_C@_15CKDMCJAF@?$AAg?$AAl?$AA?$AA@ 10063b88     LIBCMTD:winapinls.obj
 0002:0000ab90       ??_C@_17CNJFBPG@?$AAk?$AAo?$AAk?$AA?$AA@ 10063b90     LIBCMTD:winapinls.obj
 0002:0000ab98       ??_C@_17FFBJICPL@?$AAs?$AAy?$AAr?$AA?$AA@ 10063b98     LIBCMTD:winapinls.obj
 0002:0000aba0       ??_C@_17KPNDCPAF@?$AAd?$AAi?$AAv?$AA?$AA@ 10063ba0     LIBCMTD:winapinls.obj
 0002:0000aba8       ??_C@_1M@OKAHONE@?$AAa?$AAr?$AA?9?$AAS?$AAA?$AA?$AA@ 10063ba8     LIBCMTD:winapinls.obj
 0002:0000abb4       ??_C@_1M@FFFIGIGK@?$AAb?$AAg?$AA?9?$AAB?$AAG?$AA?$AA@ 10063bb4     LIBCMTD:winapinls.obj
 0002:0000abc0       ??_C@_1M@BJNKEDC@?$AAc?$AAa?$AA?9?$AAE?$AAS?$AA?$AA@ 10063bc0     LIBCMTD:winapinls.obj
 0002:0000abcc       ??_C@_1M@IJJHFJHA@?$AAc?$AAs?$AA?9?$AAC?$AAZ?$AA?$AA@ 10063bcc     LIBCMTD:winapinls.obj
 0002:0000abd8       ??_C@_1M@CLPEOBGI@?$AAd?$AAa?$AA?9?$AAD?$AAK?$AA?$AA@ 10063bd8     LIBCMTD:winapinls.obj
 0002:0000abe4       ??_C@_1M@MCMADGCB@?$AAd?$AAe?$AA?9?$AAD?$AAE?$AA?$AA@ 10063be4     LIBCMTD:winapinls.obj
 0002:0000abf0       ??_C@_1M@OOCKEMAM@?$AAe?$AAl?$AA?9?$AAG?$AAR?$AA?$AA@ 10063bf0     LIBCMTD:winapinls.obj
 0002:0000abfc       ??_C@_1M@DDNJFGID@?$AAf?$AAi?$AA?9?$AAF?$AAI?$AA?$AA@ 10063bfc     LIBCMTD:winapinls.obj
 0002:0000ac08       ??_C@_1M@GLIPPMAC@?$AAf?$AAr?$AA?9?$AAF?$AAR?$AA?$AA@ 10063c08     LIBCMTD:winapinls.obj
 0002:0000ac14       ??_C@_1M@GFMCHPE@?$AAh?$AAe?$AA?9?$AAI?$AAL?$AA?$AA@ 10063c14     LIBCMTD:winapinls.obj
 0002:0000ac20       ??_C@_1M@MHLPGNKM@?$AAh?$AAu?$AA?9?$AAH?$AAU?$AA?$AA@ 10063c20     LIBCMTD:winapinls.obj
 0002:0000ac2c       ??_C@_1M@LPDDNNPN@?$AAi?$AAs?$AA?9?$AAI?$AAS?$AA?$AA@ 10063c2c     LIBCMTD:winapinls.obj
 0002:0000ac38       ??_C@_1M@MADIPODN@?$AAi?$AAt?$AA?9?$AAI?$AAT?$AA?$AA@ 10063c38     LIBCMTD:winapinls.obj
 0002:0000ac44       ??_C@_1M@IHBJJGG@?$AAn?$AAl?$AA?9?$AAN?$AAL?$AA?$AA@ 10063c44     LIBCMTD:winapinls.obj
 0002:0000ac50       ??_C@_1M@EANAGDL@?$AAn?$AAb?$AA?9?$AAN?$AAO?$AA?$AA@ 10063c50     LIBCMTD:winapinls.obj
 0002:0000ac5c       ??_C@_1M@NEIEMEGP@?$AAp?$AAl?$AA?9?$AAP?$AAL?$AA?$AA@ 10063c5c     LIBCMTD:winapinls.obj
 0002:0000ac68       ??_C@_1M@BOCFIGEP@?$AAp?$AAt?$AA?9?$AAB?$AAR?$AA?$AA@ 10063c68     LIBCMTD:winapinls.obj
 0002:0000ac74       ??_C@_1M@IMPFOPBG@?$AAr?$AAo?$AA?9?$AAR?$AAO?$AA?$AA@ 10063c74     LIBCMTD:winapinls.obj
 0002:0000ac80       ??_C@_1M@IDNNEJMM@?$AAr?$AAu?$AA?9?$AAR?$AAU?$AA?$AA@ 10063c80     LIBCMTD:winapinls.obj
 0002:0000ac8c       ??_C@_1M@LILEEOGM@?$AAh?$AAr?$AA?9?$AAH?$AAR?$AA?$AA@ 10063c8c     LIBCMTD:winapinls.obj
 0002:0000ac98       ??_C@_1M@FKIFEHPB@?$AAs?$AAk?$AA?9?$AAS?$AAK?$AA?$AA@ 10063c98     LIBCMTD:winapinls.obj
 0002:0000aca4       ??_C@_1M@LJMAMNPJ@?$AAs?$AAq?$AA?9?$AAA?$AAL?$AA?$AA@ 10063ca4     LIBCMTD:winapinls.obj
 0002:0000acb0       ??_C@_1M@GIAKDKJK@?$AAs?$AAv?$AA?9?$AAS?$AAE?$AA?$AA@ 10063cb0     LIBCMTD:winapinls.obj
 0002:0000acbc       ??_C@_1M@MKJKIKCL@?$AAt?$AAh?$AA?9?$AAT?$AAH?$AA?$AA@ 10063cbc     LIBCMTD:winapinls.obj
 0002:0000acc8       ??_C@_1M@MFLCCMPB@?$AAt?$AAr?$AA?9?$AAT?$AAR?$AA?$AA@ 10063cc8     LIBCMTD:winapinls.obj
 0002:0000acd4       ??_C@_1M@OIJHDKJN@?$AAu?$AAr?$AA?9?$AAP?$AAK?$AA?$AA@ 10063cd4     LIBCMTD:winapinls.obj
 0002:0000ace0       ??_C@_1M@LHIPCIEK@?$AAi?$AAd?$AA?9?$AAI?$AAD?$AA?$AA@ 10063ce0     LIBCMTD:winapinls.obj
 0002:0000acec       ??_C@_1M@MFMOBGI@?$AAu?$AAk?$AA?9?$AAU?$AAA?$AA?$AA@ 10063cec     LIBCMTD:winapinls.obj
 0002:0000acf8       ??_C@_1M@OBGLJIPL@?$AAb?$AAe?$AA?9?$AAB?$AAY?$AA?$AA@ 10063cf8     LIBCMTD:winapinls.obj
 0002:0000ad04       ??_C@_1M@BCFAJEAD@?$AAs?$AAl?$AA?9?$AAS?$AAI?$AA?$AA@ 10063d04     LIBCMTD:winapinls.obj
 0002:0000ad10       ??_C@_1M@FKFFEDDN@?$AAe?$AAt?$AA?9?$AAE?$AAE?$AA?$AA@ 10063d10     LIBCMTD:winapinls.obj
 0002:0000ad1c       ??_C@_1M@KGKKAACI@?$AAl?$AAv?$AA?9?$AAL?$AAV?$AA?$AA@ 10063d1c     LIBCMTD:winapinls.obj
 0002:0000ad28       ??_C@_1M@IFGBIJO@?$AAl?$AAt?$AA?9?$AAL?$AAT?$AA?$AA@ 10063d28     LIBCMTD:winapinls.obj
 0002:0000ad34       ??_C@_1M@FGEAHEDM@?$AAf?$AAa?$AA?9?$AAI?$AAR?$AA?$AA@ 10063d34     LIBCMTD:winapinls.obj
 0002:0000ad40       ??_C@_1M@KBMAIBFN@?$AAv?$AAi?$AA?9?$AAV?$AAN?$AA?$AA@ 10063d40     LIBCMTD:winapinls.obj
 0002:0000ad4c       ??_C@_1M@GPCBKDJK@?$AAh?$AAy?$AA?9?$AAA?$AAM?$AA?$AA@ 10063d4c     LIBCMTD:winapinls.obj
 0002:0000ad58       ??_C@_1BG@BECMDDJB@?$AAa?$AAz?$AA?9?$AAA?$AAZ?$AA?9?$AAL?$AAa?$AAt?$AAn?$AA?$AA@ 10063d58     LIBCMTD:winapinls.obj
 0002:0000ad70       ??_C@_1M@MAOFCAEA@?$AAe?$AAu?$AA?9?$AAE?$AAS?$AA?$AA@ 10063d70     LIBCMTD:winapinls.obj
 0002:0000ad7c       ??_C@_1M@IGHABKPI@?$AAm?$AAk?$AA?9?$AAM?$AAK?$AA?$AA@ 10063d7c     LIBCMTD:winapinls.obj
 0002:0000ad88       ??_C@_1M@IAIGNEJG@?$AAt?$AAn?$AA?9?$AAZ?$AAA?$AA?$AA@ 10063d88     LIBCMTD:winapinls.obj
 0002:0000ad94       ??_C@_1M@IIJCOJFA@?$AAx?$AAh?$AA?9?$AAZ?$AAA?$AA?$AA@ 10063d94     LIBCMTD:winapinls.obj
 0002:0000ada0       ??_C@_1M@LGPJHNJH@?$AAz?$AAu?$AA?9?$AAZ?$AAA?$AA?$AA@ 10063da0     LIBCMTD:winapinls.obj
 0002:0000adac       ??_C@_1M@HOKAOIO@?$AAa?$AAf?$AA?9?$AAZ?$AAA?$AA?$AA@ 10063dac     LIBCMTD:winapinls.obj
 0002:0000adb8       ??_C@_1M@DPCLHLIE@?$AAk?$AAa?$AA?9?$AAG?$AAE?$AA?$AA@ 10063db8     LIBCMTD:winapinls.obj
 0002:0000adc4       ??_C@_1M@BLKMHJBI@?$AAf?$AAo?$AA?9?$AAF?$AAO?$AA?$AA@ 10063dc4     LIBCMTD:winapinls.obj
 0002:0000add0       ??_C@_1M@LGGJAPPB@?$AAh?$AAi?$AA?9?$AAI?$AAN?$AA?$AA@ 10063dd0     LIBCMTD:winapinls.obj
 0002:0000addc       ??_C@_1M@FIKPIHFE@?$AAm?$AAt?$AA?9?$AAM?$AAT?$AA?$AA@ 10063ddc     LIBCMTD:winapinls.obj
 0002:0000ade8       ??_C@_1M@HEGGPBFA@?$AAs?$AAe?$AA?9?$AAN?$AAO?$AA?$AA@ 10063de8     LIBCMTD:winapinls.obj
 0002:0000adf4       ??_C@_1M@EIBJEEPA@?$AAm?$AAs?$AA?9?$AAM?$AAY?$AA?$AA@ 10063df4     LIBCMTD:winapinls.obj
 0002:0000ae00       ??_C@_1M@FHLBGMPP@?$AAk?$AAk?$AA?9?$AAK?$AAZ?$AA?$AA@ 10063e00     LIBCMTD:winapinls.obj
 0002:0000ae0c       ??_C@_1M@NGJJLCGI@?$AAk?$AAy?$AA?9?$AAK?$AAG?$AA?$AA@ 10063e0c     LIBCMTD:winapinls.obj
 0002:0000ae18       ??_C@_1M@GIENNBFC@?$AAs?$AAw?$AA?9?$AAK?$AAE?$AA?$AA@ 10063e18     LIBCMTD:winapinls.obj
 0002:0000ae24       ??_C@_1BG@NDGMJIMJ@?$AAu?$AAz?$AA?9?$AAU?$AAZ?$AA?9?$AAL?$AAa?$AAt?$AAn?$AA?$AA@ 10063e24     LIBCMTD:winapinls.obj
 0002:0000ae3c       ??_C@_1M@IDCCIHBC@?$AAt?$AAt?$AA?9?$AAR?$AAU?$AA?$AA@ 10063e3c     LIBCMTD:winapinls.obj
 0002:0000ae48       ??_C@_1M@LOICPMOJ@?$AAb?$AAn?$AA?9?$AAI?$AAN?$AA?$AA@ 10063e48     LIBCMTD:winapinls.obj
 0002:0000ae54       ??_C@_1M@KPKKNEAH@?$AAp?$AAa?$AA?9?$AAI?$AAN?$AA?$AA@ 10063e54     LIBCMTD:winapinls.obj
 0002:0000ae60       ??_C@_1M@PJGPPBOG@?$AAg?$AAu?$AA?9?$AAI?$AAN?$AA?$AA@ 10063e60     LIBCMTD:winapinls.obj
 0002:0000ae6c       ??_C@_1M@KMKMOPHI@?$AAt?$AAa?$AA?9?$AAI?$AAN?$AA?$AA@ 10063e6c     LIBCMTD:winapinls.obj
 0002:0000ae78       ??_C@_1M@KFEHEPAC@?$AAt?$AAe?$AA?9?$AAI?$AAN?$AA?$AA@ 10063e78     LIBCMTD:winapinls.obj
 0002:0000ae84       ??_C@_1M@CDCLMGHI@?$AAk?$AAn?$AA?9?$AAI?$AAN?$AA?$AA@ 10063e84     LIBCMTD:winapinls.obj
 0002:0000ae90       ??_C@_1M@MIODLDKF@?$AAm?$AAl?$AA?9?$AAI?$AAN?$AA?$AA@ 10063e90     LIBCMTD:winapinls.obj
 0002:0000ae9c       ??_C@_1M@PBIEACPO@?$AAm?$AAr?$AA?9?$AAI?$AAN?$AA?$AA@ 10063e9c     LIBCMTD:winapinls.obj
 0002:0000aea8       ??_C@_1M@NIDEAGPH@?$AAs?$AAa?$AA?9?$AAI?$AAN?$AA?$AA@ 10063ea8     LIBCMTD:winapinls.obj
 0002:0000aeb4       ??_C@_1M@FHIHCBIO@?$AAm?$AAn?$AA?9?$AAM?$AAN?$AA?$AA@ 10063eb4     LIBCMTD:winapinls.obj
 0002:0000aec0       ??_C@_1M@JAIJPENP@?$AAc?$AAy?$AA?9?$AAG?$AAB?$AA?$AA@ 10063ec0     LIBCMTD:winapinls.obj
 0002:0000aecc       ??_C@_1M@PHGFBEPN@?$AAg?$AAl?$AA?9?$AAE?$AAS?$AA?$AA@ 10063ecc     LIBCMTD:winapinls.obj
 0002:0000aed8       ??_C@_1O@KPIPDNCP@?$AAk?$AAo?$AAk?$AA?9?$AAI?$AAN?$AA?$AA@ 10063ed8     LIBCMTD:winapinls.obj
 0002:0000aee8       ??_C@_1O@KNHJLDJA@?$AAs?$AAy?$AAr?$AA?9?$AAS?$AAY?$AA?$AA@ 10063ee8     LIBCMTD:winapinls.obj
 0002:0000aef8       ??_C@_1O@MKEKBLAH@?$AAd?$AAi?$AAv?$AA?9?$AAM?$AAV?$AA?$AA@ 10063ef8     LIBCMTD:winapinls.obj
 0002:0000af08       ??_C@_1O@OHDCKDDF@?$AAq?$AAu?$AAz?$AA?9?$AAB?$AAO?$AA?$AA@ 10063f08     LIBCMTD:winapinls.obj
 0002:0000af18       ??_C@_1M@LEPJNLFD@?$AAn?$AAs?$AA?9?$AAZ?$AAA?$AA?$AA@ 10063f18     LIBCMTD:winapinls.obj
 0002:0000af24       ??_C@_1M@OMLEIIJB@?$AAm?$AAi?$AA?9?$AAN?$AAZ?$AA?$AA@ 10063f24     LIBCMTD:winapinls.obj
 0002:0000af30       ??_C@_1M@PMPEAILG@?$AAa?$AAr?$AA?9?$AAI?$AAQ?$AA?$AA@ 10063f30     LIBCMTD:winapinls.obj
 0002:0000af3c       ??_C@_1M@CNKPNOEE@?$AAd?$AAe?$AA?9?$AAC?$AAH?$AA?$AA@ 10063f3c     LIBCMTD:winapinls.obj
 0002:0000af48       ??_C@_1M@LKMGMLKO@?$AAe?$AAn?$AA?9?$AAG?$AAB?$AA?$AA@ 10063f48     LIBCMTD:winapinls.obj
 0002:0000af54       ??_C@_1M@PGKJFFGL@?$AAe?$AAs?$AA?9?$AAM?$AAX?$AA?$AA@ 10063f54     LIBCMTD:winapinls.obj
 0002:0000af60       ??_C@_1M@DNNANBDC@?$AAf?$AAr?$AA?9?$AAB?$AAE?$AA?$AA@ 10063f60     LIBCMTD:winapinls.obj
 0002:0000af6c       ??_C@_1M@HLGMDFHM@?$AAi?$AAt?$AA?9?$AAC?$AAH?$AA?$AA@ 10063f6c     LIBCMTD:winapinls.obj
 0002:0000af78       ??_C@_1M@CLLBGJH@?$AAn?$AAl?$AA?9?$AAB?$AAE?$AA?$AA@ 10063f78     LIBCMTD:winapinls.obj
 0002:0000af84       ??_C@_1M@BODBOGLF@?$AAn?$AAn?$AA?9?$AAN?$AAO?$AA?$AA@ 10063f84     LIBCMTD:winapinls.obj
 0002:0000af90       ??_C@_1M@HFFAHKAD@?$AAp?$AAt?$AA?9?$AAP?$AAT?$AA?$AA@ 10063f90     LIBCMTD:winapinls.obj
 0002:0000af9c       ??_C@_1BG@LNOAKHIE@?$AAs?$AAr?$AA?9?$AAS?$AAP?$AA?9?$AAL?$AAa?$AAt?$AAn?$AA?$AA@ 10063f9c     LIBCMTD:winapinls.obj
 0002:0000afb4       ??_C@_1M@HBMHBGAK@?$AAs?$AAv?$AA?9?$AAF?$AAI?$AA?$AA@ 10063fb4     LIBCMTD:winapinls.obj
 0002:0000afc0       ??_C@_1BG@DGCJGJBE@?$AAa?$AAz?$AA?9?$AAA?$AAZ?$AA?9?$AAC?$AAy?$AAr?$AAl?$AA?$AA@ 10063fc0     LIBCMTD:winapinls.obj
 0002:0000afd8       ??_C@_1M@KEJDAAHB@?$AAs?$AAe?$AA?9?$AAS?$AAE?$AA?$AA@ 10063fd8     LIBCMTD:winapinls.obj
 0002:0000afe4       ??_C@_1M@HEIBJJAD@?$AAm?$AAs?$AA?9?$AAB?$AAN?$AA?$AA@ 10063fe4     LIBCMTD:winapinls.obj
 0002:0000aff0       ??_C@_1BG@PBGJMCEM@?$AAu?$AAz?$AA?9?$AAU?$AAZ?$AA?9?$AAC?$AAy?$AAr?$AAl?$AA?$AA@ 10063ff0     LIBCMTD:winapinls.obj
 0002:0000b008       ??_C@_1O@LAOBCMDF@?$AAq?$AAu?$AAz?$AA?9?$AAE?$AAC?$AA?$AA@ 10064008     LIBCMTD:winapinls.obj
 0002:0000b018       ??_C@_1M@POEEMAIO@?$AAa?$AAr?$AA?9?$AAE?$AAG?$AA?$AA@ 10064018     LIBCMTD:winapinls.obj
 0002:0000b024       ??_C@_1M@EFAKDEDL@?$AAz?$AAh?$AA?9?$AAH?$AAK?$AA?$AA@ 10064024     LIBCMTD:winapinls.obj
 0002:0000b030       ??_C@_1M@HKKIJHGI@?$AAd?$AAe?$AA?9?$AAA?$AAT?$AA?$AA@ 10064030     LIBCMTD:winapinls.obj
 0002:0000b03c       ??_C@_1M@KBFBEHJF@?$AAe?$AAn?$AA?9?$AAA?$AAU?$AA?$AA@ 1006403c     LIBCMTD:winapinls.obj
 0002:0000b048       ??_C@_1M@MNPLFAAH@?$AAe?$AAs?$AA?9?$AAE?$AAS?$AA?$AA@ 10064048     LIBCMTD:winapinls.obj
 0002:0000b054       ??_C@_1M@HJOOJFMA@?$AAf?$AAr?$AA?9?$AAC?$AAA?$AA?$AA@ 10064054     LIBCMTD:winapinls.obj
 0002:0000b060       ??_C@_1BG@JPOFPNAB@?$AAs?$AAr?$AA?9?$AAS?$AAP?$AA?9?$AAC?$AAy?$AAr?$AAl?$AA?$AA@ 10064060     LIBCMTD:winapinls.obj
 0002:0000b078       ??_C@_1M@LNFOCMOB@?$AAs?$AAe?$AA?9?$AAF?$AAI?$AA?$AA@ 10064078     LIBCMTD:winapinls.obj
 0002:0000b084       ??_C@_1O@MGJBOAMB@?$AAq?$AAu?$AAz?$AA?9?$AAP?$AAE?$AA?$AA@ 10064084     LIBCMTD:winapinls.obj
 0002:0000b094       ??_C@_1M@GJINLBOK@?$AAa?$AAr?$AA?9?$AAL?$AAY?$AA?$AA@ 10064094     LIBCMTD:winapinls.obj
 0002:0000b0a0       ??_C@_1M@GGMNHJNL@?$AAz?$AAh?$AA?9?$AAS?$AAG?$AA?$AA@ 100640a0     LIBCMTD:winapinls.obj
 0002:0000b0ac       ??_C@_1M@HOIKODND@?$AAd?$AAe?$AA?9?$AAL?$AAU?$AA?$AA@ 100640ac     LIBCMTD:winapinls.obj
 0002:0000b0b8       ??_C@_1M@DDOCCGFG@?$AAe?$AAn?$AA?9?$AAC?$AAA?$AA?$AA@ 100640b8     LIBCMTD:winapinls.obj
 0002:0000b0c4       ??_C@_1M@BNOEMJLF@?$AAe?$AAs?$AA?9?$AAG?$AAT?$AA?$AA@ 100640c4     LIBCMTD:winapinls.obj
 0002:0000b0d0       ??_C@_1M@EOGNKEK@?$AAf?$AAr?$AA?9?$AAC?$AAH?$AA?$AA@ 100640d0     LIBCMTD:winapinls.obj
 0002:0000b0dc       ??_C@_1M@FLIDJFHL@?$AAh?$AAr?$AA?9?$AAB?$AAA?$AA?$AA@ 100640dc     LIBCMTD:winapinls.obj
 0002:0000b0e8       ??_C@_1O@FMCELNAJ@?$AAs?$AAm?$AAj?$AA?9?$AAN?$AAO?$AA?$AA@ 100640e8     LIBCMTD:winapinls.obj
 0002:0000b0f8       ??_C@_1M@JHGLJMGJ@?$AAa?$AAr?$AA?9?$AAD?$AAZ?$AA?$AA@ 100640f8     LIBCMTD:winapinls.obj
 0002:0000b104       ??_C@_1M@JKKFDCNP@?$AAz?$AAh?$AA?9?$AAM?$AAO?$AA?$AA@ 10064104     LIBCMTD:winapinls.obj
 0002:0000b110       ??_C@_1M@GEEFALPE@?$AAd?$AAe?$AA?9?$AAL?$AAI?$AA?$AA@ 10064110     LIBCMTD:winapinls.obj
 0002:0000b11c       ??_C@_1M@IGEOFBG@?$AAe?$AAn?$AA?9?$AAN?$AAZ?$AA?$AA@ 1006411c     LIBCMTD:winapinls.obj
 0002:0000b128       ??_C@_1M@KDBONEHP@?$AAe?$AAs?$AA?9?$AAC?$AAR?$AA?$AA@ 10064128     LIBCMTD:winapinls.obj
 0002:0000b134       ??_C@_1M@FHMDOHNN@?$AAf?$AAr?$AA?9?$AAL?$AAU?$AA?$AA@ 10064134     LIBCMTD:winapinls.obj
 0002:0000b140       ??_C@_1BG@NFKKMAFG@?$AAb?$AAs?$AA?9?$AAB?$AAA?$AA?9?$AAL?$AAa?$AAt?$AAn?$AA?$AA@ 10064140     LIBCMTD:winapinls.obj
 0002:0000b158       ??_C@_1O@IMNBEMCI@?$AAs?$AAm?$AAj?$AA?9?$AAS?$AAE?$AA?$AA@ 10064158     LIBCMTD:winapinls.obj
 0002:0000b168       ??_C@_1M@DHHMBNDP@?$AAa?$AAr?$AA?9?$AAM?$AAA?$AA?$AA@ 10064168     LIBCMTD:winapinls.obj
 0002:0000b174       ??_C@_1M@BNBLJCGH@?$AAe?$AAn?$AA?9?$AAI?$AAE?$AA?$AA@ 10064174     LIBCMTD:winapinls.obj
 0002:0000b180       ??_C@_1M@GEPAFMDL@?$AAe?$AAs?$AA?9?$AAP?$AAA?$AA?$AA@ 10064180     LIBCMTD:winapinls.obj
 0002:0000b18c       ??_C@_1M@OJONDMDL@?$AAf?$AAr?$AA?9?$AAM?$AAC?$AA?$AA@ 1006418c     LIBCMTD:winapinls.obj
 0002:0000b198       ??_C@_1BG@OBCNFJB@?$AAs?$AAr?$AA?9?$AAB?$AAA?$AA?9?$AAL?$AAa?$AAt?$AAn?$AA?$AA@ 10064198     LIBCMTD:winapinls.obj
 0002:0000b1b0       ??_C@_1O@KEMEEGPO@?$AAs?$AAm?$AAa?$AA?9?$AAN?$AAO?$AA?$AA@ 100641b0     LIBCMTD:winapinls.obj
 0002:0000b1c0       ??_C@_1M@ELMGFODK@?$AAa?$AAr?$AA?9?$AAT?$AAN?$AA?$AA@ 100641c0     LIBCMTD:winapinls.obj
 0002:0000b1cc       ??_C@_1M@BHDLHFAF@?$AAe?$AAn?$AA?9?$AAZ?$AAA?$AA?$AA@ 100641cc     LIBCMTD:winapinls.obj
 0002:0000b1d8       ??_C@_1M@BMGIGLIF@?$AAe?$AAs?$AA?9?$AAD?$AAO?$AA?$AA@ 100641d8     LIBCMTD:winapinls.obj
 0002:0000b1e4       ??_C@_1BG@CMBHIPBE@?$AAs?$AAr?$AA?9?$AAB?$AAA?$AA?9?$AAC?$AAy?$AAr?$AAl?$AA?$AA@ 100641e4     LIBCMTD:winapinls.obj
 0002:0000b1fc       ??_C@_1O@HEDBLHNP@?$AAs?$AAm?$AAa?$AA?9?$AAS?$AAE?$AA?$AA@ 100641fc     LIBCMTD:winapinls.obj
 0002:0000b20c       ??_C@_1M@DAGCADIM@?$AAa?$AAr?$AA?9?$AAO?$AAM?$AA?$AA@ 1006420c     LIBCMTD:winapinls.obj
 0002:0000b218       ??_C@_1M@FODLMICG@?$AAe?$AAn?$AA?9?$AAJ?$AAM?$AA?$AA@ 10064218     LIBCMTD:winapinls.obj
 0002:0000b224       ??_C@_1M@DNMLCIHB@?$AAe?$AAs?$AA?9?$AAV?$AAE?$AA?$AA@ 10064224     LIBCMTD:winapinls.obj
 0002:0000b230       ??_C@_1O@EOKHMKJK@?$AAs?$AAm?$AAs?$AA?9?$AAF?$AAI?$AA?$AA@ 10064230     LIBCMTD:winapinls.obj
 0002:0000b240       ??_C@_1M@CAFJMKOF@?$AAa?$AAr?$AA?9?$AAY?$AAE?$AA?$AA@ 10064240     LIBCMTD:winapinls.obj
 0002:0000b24c       ??_C@_1M@CBFHIJLI@?$AAe?$AAn?$AA?9?$AAC?$AAB?$AA?$AA@ 1006424c     LIBCMTD:winapinls.obj
 0002:0000b258       ??_C@_1M@BGNFLDN@?$AAe?$AAs?$AA?9?$AAC?$AAO?$AA?$AA@ 10064258     LIBCMTD:winapinls.obj
 0002:0000b264       ??_C@_1O@JMPHMAMC@?$AAs?$AAm?$AAn?$AA?9?$AAF?$AAI?$AA?$AA@ 10064264     LIBCMTD:winapinls.obj
 0002:0000b274       ??_C@_1M@JLANABKE@?$AAa?$AAr?$AA?9?$AAS?$AAY?$AA?$AA@ 10064274     LIBCMTD:winapinls.obj
 0002:0000b280       ??_C@_1M@HPKGCFGN@?$AAe?$AAn?$AA?9?$AAB?$AAZ?$AA?$AA@ 10064280     LIBCMTD:winapinls.obj
 0002:0000b28c       ??_C@_1M@OLJCMLGM@?$AAe?$AAs?$AA?9?$AAP?$AAE?$AA?$AA@ 1006428c     LIBCMTD:winapinls.obj
 0002:0000b298       ??_C@_1M@MKKGFKLE@?$AAa?$AAr?$AA?9?$AAJ?$AAO?$AA?$AA@ 10064298     LIBCMTD:winapinls.obj
 0002:0000b2a4       ??_C@_1M@EKPGLDNI@?$AAe?$AAn?$AA?9?$AAT?$AAT?$AA?$AA@ 100642a4     LIBCMTD:winapinls.obj
 0002:0000b2b0       ??_C@_1M@OONGHFHE@?$AAe?$AAs?$AA?9?$AAA?$AAR?$AA?$AA@ 100642b0     LIBCMTD:winapinls.obj
 0002:0000b2bc       ??_C@_1M@OOJFGBHE@?$AAa?$AAr?$AA?9?$AAL?$AAB?$AA?$AA@ 100642bc     LIBCMTD:winapinls.obj
 0002:0000b2c8       ??_C@_1M@GCEJHNEG@?$AAe?$AAn?$AA?9?$AAZ?$AAW?$AA?$AA@ 100642c8     LIBCMTD:winapinls.obj
 0002:0000b2d4       ??_C@_1M@JNOCAHJI@?$AAe?$AAs?$AA?9?$AAE?$AAC?$AA?$AA@ 100642d4     LIBCMTD:winapinls.obj
 0002:0000b2e0       ??_C@_1M@JEFHPGGB@?$AAa?$AAr?$AA?9?$AAK?$AAW?$AA?$AA@ 100642e0     LIBCMTD:winapinls.obj
 0002:0000b2ec       ??_C@_1M@MLKIBJOJ@?$AAe?$AAn?$AA?9?$AAP?$AAH?$AA?$AA@ 100642ec     LIBCMTD:winapinls.obj
 0002:0000b2f8       ??_C@_1M@BDNIPEND@?$AAe?$AAs?$AA?9?$AAC?$AAL?$AA?$AA@ 100642f8     LIBCMTD:winapinls.obj
 0002:0000b304       ??_C@_1M@MPNMEKBD@?$AAa?$AAr?$AA?9?$AAA?$AAE?$AA?$AA@ 10064304     LIBCMTD:winapinls.obj
 0002:0000b310       ??_C@_1M@KBJALCPI@?$AAe?$AAs?$AA?9?$AAU?$AAY?$AA?$AA@ 10064310     LIBCMTD:winapinls.obj
 0002:0000b31c       ??_C@_1M@LLCCOAGA@?$AAa?$AAr?$AA?9?$AAB?$AAH?$AA?$AA@ 1006431c     LIBCMTD:winapinls.obj
 0002:0000b328       ??_C@_1M@PBFNCDEL@?$AAe?$AAs?$AA?9?$AAP?$AAY?$AA?$AA@ 10064328     LIBCMTD:winapinls.obj
 0002:0000b334       ??_C@_1M@EDGINPNP@?$AAa?$AAr?$AA?9?$AAQ?$AAA?$AA?$AA@ 10064334     LIBCMTD:winapinls.obj
 0002:0000b340       ??_C@_1M@MKDBIIJI@?$AAe?$AAs?$AA?9?$AAB?$AAO?$AA?$AA@ 10064340     LIBCMTD:winapinls.obj
 0002:0000b34c       ??_C@_1M@CPKKEBLD@?$AAe?$AAs?$AA?9?$AAS?$AAV?$AA?$AA@ 1006434c     LIBCMTD:winapinls.obj
 0002:0000b358       ??_C@_1M@NDBGMMJL@?$AAe?$AAs?$AA?9?$AAH?$AAN?$AA?$AA@ 10064358     LIBCMTD:winapinls.obj
 0002:0000b364       ??_C@_1M@JIJIBHDP@?$AAe?$AAs?$AA?9?$AAN?$AAI?$AA?$AA@ 10064364     LIBCMTD:winapinls.obj
 0002:0000b370       ??_C@_1M@CGFMKEEK@?$AAe?$AAs?$AA?9?$AAP?$AAR?$AA?$AA@ 10064370     LIBCMTD:winapinls.obj
 0002:0000b37c       ??_C@_1O@ICJHKIIK@?$AAz?$AAh?$AA?9?$AAC?$AAH?$AAT?$AA?$AA@ 1006437c     LIBCMTD:winapinls.obj
 0002:0000b38c       ??_C@_15CLNEJCE@?$AAs?$AAr?$AA?$AA@ 1006438c     LIBCMTD:winapinls.obj
 0002:0000b398       _LocaleNameToIndexTable    10064398     LIBCMTD:winapinls.obj
 0002:0000bab8       _LcidToLocaleNameTable     10064ab8     LIBCMTD:winapinls.obj
 0002:0000c1d8       ??_C@_1M@KAHEKEIG@?$AAa?$AAf?$AA?9?$AAz?$AAa?$AA?$AA@ 100651d8     LIBCMTD:winapinls.obj
 0002:0000c1e4       ??_C@_1M@GIECOABL@?$AAa?$AAr?$AA?9?$AAa?$AAe?$AA?$AA@ 100651e4     LIBCMTD:winapinls.obj
 0002:0000c1f0       ??_C@_1M@BMLMEKGI@?$AAa?$AAr?$AA?9?$AAb?$AAh?$AA?$AA@ 100651f0     LIBCMTD:winapinls.obj
 0002:0000c1fc       ??_C@_1M@DAPFDGGB@?$AAa?$AAr?$AA?9?$AAd?$AAz?$AA?$AA@ 100651fc     LIBCMTD:winapinls.obj
 0002:0000c208       ??_C@_1M@FJNKGKIG@?$AAa?$AAr?$AA?9?$AAe?$AAg?$AA?$AA@ 10065208     LIBCMTD:winapinls.obj
 0002:0000c214       ??_C@_1M@FLGKKCLO@?$AAa?$AAr?$AA?9?$AAi?$AAq?$AA?$AA@ 10065214     LIBCMTD:winapinls.obj
 0002:0000c220       ??_C@_1M@GNDIPALM@?$AAa?$AAr?$AA?9?$AAj?$AAo?$AA?$AA@ 10065220     LIBCMTD:winapinls.obj
 0002:0000c22c       ??_C@_1M@DDMJFMGJ@?$AAa?$AAr?$AA?9?$AAk?$AAw?$AA?$AA@ 1006522c     LIBCMTD:winapinls.obj
 0002:0000c238       ??_C@_1M@EJALMLHM@?$AAa?$AAr?$AA?9?$AAl?$AAb?$AA?$AA@ 10065238     LIBCMTD:winapinls.obj
 0002:0000c244       ??_C@_1M@MOBDBLOC@?$AAa?$AAr?$AA?9?$AAl?$AAy?$AA?$AA@ 10065244     LIBCMTD:winapinls.obj
 0002:0000c250       ??_C@_1M@JAOCLHDH@?$AAa?$AAr?$AA?9?$AAm?$AAa?$AA?$AA@ 10065250     LIBCMTD:winapinls.obj
 0002:0000c25c       ??_C@_1M@JHPMKJIE@?$AAa?$AAr?$AA?9?$AAo?$AAm?$AA?$AA@ 1006525c     LIBCMTD:winapinls.obj
 0002:0000c268       ??_C@_1M@OEPGHFNH@?$AAa?$AAr?$AA?9?$AAq?$AAa?$AA?$AA@ 10065268     LIBCMTD:winapinls.obj
 0002:0000c274       ??_C@_1M@KJDONENM@?$AAa?$AAr?$AA?9?$AAs?$AAa?$AA?$AA@ 10065274     LIBCMTD:winapinls.obj
 0002:0000c280       ??_C@_1M@DMJDKLKM@?$AAa?$AAr?$AA?9?$AAs?$AAy?$AA?$AA@ 10065280     LIBCMTD:winapinls.obj
 0002:0000c28c       ??_C@_1M@OMFIPEDC@?$AAa?$AAr?$AA?9?$AAt?$AAn?$AA?$AA@ 1006528c     LIBCMTD:winapinls.obj
 0002:0000c298       ??_C@_1M@IHMHGAON@?$AAa?$AAr?$AA?9?$AAy?$AAe?$AA?$AA@ 10065298     LIBCMTD:winapinls.obj
 0002:0000c2a4       ??_C@_1BG@KDCPGJGB@?$AAa?$AAz?$AA?9?$AAa?$AAz?$AA?9?$AAc?$AAy?$AAr?$AAl?$AA?$AA@ 100652a4     LIBCMTD:winapinls.obj
 0002:0000c2bc       ??_C@_1BG@IBCKDDOE@?$AAa?$AAz?$AA?9?$AAa?$AAz?$AA?9?$AAl?$AAa?$AAt?$AAn?$AA?$AA@ 100652bc     LIBCMTD:winapinls.obj
 0002:0000c2d4       ??_C@_1M@EGPFDCPD@?$AAb?$AAe?$AA?9?$AAb?$AAy?$AA?$AA@ 100652d4     LIBCMTD:winapinls.obj
 0002:0000c2e0       ??_C@_1M@PCMGMCGC@?$AAb?$AAg?$AA?9?$AAb?$AAg?$AA?$AA@ 100652e0     LIBCMTD:winapinls.obj
 0002:0000c2ec       ??_C@_1M@BJBMFGOB@?$AAb?$AAn?$AA?9?$AAi?$AAn?$AA?$AA@ 100652ec     LIBCMTD:winapinls.obj
 0002:0000c2f8       ??_C@_1BG@EAKMMACD@?$AAb?$AAs?$AA?9?$AAb?$AAa?$AA?9?$AAl?$AAa?$AAt?$AAn?$AA?$AA@ 100652f8     LIBCMTD:winapinls.obj
 0002:0000c310       ??_C@_1M@KGADAODK@?$AAc?$AAa?$AA?9?$AAe?$AAs?$AA?$AA@ 10065310     LIBCMTD:winapinls.obj
 0002:0000c31c       ??_C@_1M@COAJPDHI@?$AAc?$AAs?$AA?9?$AAc?$AAz?$AA?$AA@ 1006531c     LIBCMTD:winapinls.obj
 0002:0000c328       ??_C@_1M@DHBHFONH@?$AAc?$AAy?$AA?9?$AAg?$AAb?$AA?$AA@ 10065328     LIBCMTD:winapinls.obj
 0002:0000c334       ??_C@_1M@IMGKELGA@?$AAd?$AAa?$AA?9?$AAd?$AAk?$AA?$AA@ 10065334     LIBCMTD:winapinls.obj
 0002:0000c340       ??_C@_1M@NNDGDNGA@?$AAd?$AAe?$AA?9?$AAa?$AAt?$AA?$AA@ 10065340     LIBCMTD:winapinls.obj
 0002:0000c34c       ??_C@_1M@IKDBHEEM@?$AAd?$AAe?$AA?9?$AAc?$AAh?$AA?$AA@ 1006534c     LIBCMTD:winapinls.obj
 0002:0000c358       ??_C@_1M@GFFOJMCJ@?$AAd?$AAe?$AA?9?$AAd?$AAe?$AA?$AA@ 10065358     LIBCMTD:winapinls.obj
 0002:0000c364       ??_C@_1M@MDNLKBPM@?$AAd?$AAe?$AA?9?$AAl?$AAi?$AA?$AA@ 10065364     LIBCMTD:winapinls.obj
 0002:0000c370       ??_C@_1M@NJBEEJNL@?$AAd?$AAe?$AA?9?$AAl?$AAu?$AA?$AA@ 10065370     LIBCMTD:winapinls.obj
 0002:0000c37c       ??_C@_1O@GNNELBAP@?$AAd?$AAi?$AAv?$AA?9?$AAm?$AAv?$AA?$AA@ 1006537c     LIBCMTD:winapinls.obj
 0002:0000c38c       ??_C@_1M@EJLEOGAE@?$AAe?$AAl?$AA?9?$AAg?$AAr?$AA?$AA@ 1006538c     LIBCMTD:winapinls.obj
 0002:0000c398       ??_C@_1M@GMPONJN@?$AAe?$AAn?$AA?9?$AAa?$AAu?$AA?$AA@ 10065398     LIBCMTD:winapinls.obj
 0002:0000c3a4       ??_C@_1M@NIDIIPGF@?$AAe?$AAn?$AA?9?$AAb?$AAz?$AA?$AA@ 100653a4     LIBCMTD:winapinls.obj
 0002:0000c3b0       ??_C@_1M@JEHMIMFO@?$AAe?$AAn?$AA?9?$AAc?$AAa?$AA?$AA@ 100653b0     LIBCMTD:winapinls.obj
 0002:0000c3bc       ??_C@_1M@IGMJCDLA@?$AAe?$AAn?$AA?9?$AAc?$AAb?$AA?$AA@ 100653bc     LIBCMTD:winapinls.obj
 0002:0000c3c8       ??_C@_1M@BNFIGBKG@?$AAe?$AAn?$AA?9?$AAg?$AAb?$AA?$AA@ 100653c8     LIBCMTD:winapinls.obj
 0002:0000c3d4       ??_C@_1M@LKIFDIGP@?$AAe?$AAn?$AA?9?$AAi?$AAe?$AA?$AA@ 100653d4     LIBCMTD:winapinls.obj
 0002:0000c3e0       ??_C@_1M@PJKFGCCO@?$AAe?$AAn?$AA?9?$AAj?$AAm?$AA?$AA@ 100653e0     LIBCMTD:winapinls.obj
 0002:0000c3ec       ??_C@_1M@KPPKEPBO@?$AAe?$AAn?$AA?9?$AAn?$AAz?$AA?$AA@ 100653ec     LIBCMTD:winapinls.obj
 0002:0000c3f8       ??_C@_1M@GMDGLDOB@?$AAe?$AAn?$AA?9?$AAp?$AAh?$AA?$AA@ 100653f8     LIBCMTD:winapinls.obj
 0002:0000c404       ??_C@_1M@ONGIBJNA@?$AAe?$AAn?$AA?9?$AAt?$AAt?$AA?$AA@ 10065404     LIBCMTD:winapinls.obj
 0002:0000c410       ??_C@_1M@LLODPCMM@?$AAe?$AAn?$AA?9?$AAu?$AAs?$AA?$AA@ 10065410     LIBCMTD:winapinls.obj
 0002:0000c41c       ??_C@_1M@LAKFNPAN@?$AAe?$AAn?$AA?9?$AAz?$AAa?$AA?$AA@ 1006541c     LIBCMTD:winapinls.obj
 0002:0000c428       ??_C@_1M@MFNHNHEO@?$AAe?$AAn?$AA?9?$AAz?$AAw?$AA?$AA@ 10065428     LIBCMTD:winapinls.obj
 0002:0000c434       ??_C@_1M@EJEINPHM@?$AAe?$AAs?$AA?9?$AAa?$AAr?$AA?$AA@ 10065434     LIBCMTD:winapinls.obj
 0002:0000c440       ??_C@_1M@GNKPCCJA@?$AAe?$AAs?$AA?9?$AAb?$AAo?$AA?$AA@ 10065440     LIBCMTD:winapinls.obj
 0002:0000c44c       ??_C@_1M@LEEGFONL@?$AAe?$AAs?$AA?9?$AAc?$AAl?$AA?$AA@ 1006544c     LIBCMTD:winapinls.obj
 0002:0000c458       ??_C@_1M@KGPDPBDF@?$AAe?$AAs?$AA?9?$AAc?$AAo?$AA?$AA@ 10065458     LIBCMTD:winapinls.obj
 0002:0000c464       ??_C@_1M@EIAHOHH@?$AAe?$AAs?$AA?9?$AAc?$AAr?$AA?$AA@ 10065464     LIBCMTD:winapinls.obj
 0002:0000c470       ??_C@_1M@LLPGMBIN@?$AAe?$AAs?$AA?9?$AAd?$AAo?$AA?$AA@ 10065470     LIBCMTD:winapinls.obj
 0002:0000c47c       ??_C@_1M@DKHMKNJA@?$AAe?$AAs?$AA?9?$AAe?$AAc?$AA?$AA@ 1006547c     LIBCMTD:winapinls.obj
 0002:0000c488       ??_C@_1M@GKGFPKAP@?$AAe?$AAs?$AA?9?$AAe?$AAs?$AA?$AA@ 10065488     LIBCMTD:winapinls.obj
 0002:0000c494       ??_C@_1M@LKHKGDLN@?$AAe?$AAs?$AA?9?$AAg?$AAt?$AA?$AA@ 10065494     LIBCMTD:winapinls.obj
 0002:0000c4a0       ??_C@_1M@HEIIGGJD@?$AAe?$AAs?$AA?9?$AAh?$AAn?$AA?$AA@ 100654a0     LIBCMTD:winapinls.obj
 0002:0000c4ac       ??_C@_1M@FBDHPPGD@?$AAe?$AAs?$AA?9?$AAm?$AAx?$AA?$AA@ 100654ac     LIBCMTD:winapinls.obj
 0002:0000c4b8       ??_C@_1M@DPAGLNDH@?$AAe?$AAs?$AA?9?$AAn?$AAi?$AA?$AA@ 100654b8     LIBCMTD:winapinls.obj
 0002:0000c4c4       ??_C@_1M@MDGOPGDD@?$AAe?$AAs?$AA?9?$AAp?$AAa?$AA?$AA@ 100654c4     LIBCMTD:winapinls.obj
 0002:0000c4d0       ??_C@_1M@EMAMGBGE@?$AAe?$AAs?$AA?9?$AAp?$AAe?$AA?$AA@ 100654d0     LIBCMTD:winapinls.obj
 0002:0000c4dc       ??_C@_1M@IBMCAOEC@?$AAe?$AAs?$AA?9?$AAp?$AAr?$AA?$AA@ 100654dc     LIBCMTD:winapinls.obj
 0002:0000c4e8       ??_C@_1M@FGMDIJED@?$AAe?$AAs?$AA?9?$AAp?$AAy?$AA?$AA@ 100654e8     LIBCMTD:winapinls.obj
 0002:0000c4f4       ??_C@_1M@IIDEOLLL@?$AAe?$AAs?$AA?9?$AAs?$AAv?$AA?$AA@ 100654f4     LIBCMTD:winapinls.obj
 0002:0000c500       ??_C@_1M@GAOBIPA@?$AAe?$AAs?$AA?9?$AAu?$AAy?$AA?$AA@ 10065500     LIBCMTD:winapinls.obj
 0002:0000c50c       ??_C@_1M@JKFFICHJ@?$AAe?$AAs?$AA?9?$AAv?$AAe?$AA?$AA@ 1006550c     LIBCMTD:winapinls.obj
 0002:0000c518       ??_C@_1M@PNMLOJDF@?$AAe?$AAt?$AA?9?$AAe?$AAe?$AA?$AA@ 10065518     LIBCMTD:winapinls.obj
 0002:0000c524       ??_C@_1M@GHHLIKEI@?$AAe?$AAu?$AA?9?$AAe?$AAs?$AA?$AA@ 10065524     LIBCMTD:winapinls.obj
 0002:0000c530       ??_C@_1M@PBNONODE@?$AAf?$AAa?$AA?9?$AAi?$AAr?$AA?$AA@ 10065530     LIBCMTD:winapinls.obj
 0002:0000c53c       ??_C@_1M@JEEHPMIL@?$AAf?$AAi?$AA?9?$AAf?$AAi?$AA?$AA@ 1006553c     LIBCMTD:winapinls.obj
 0002:0000c548       ??_C@_1M@LMDCNDBA@?$AAf?$AAo?$AA?9?$AAf?$AAo?$AA?$AA@ 10065548     LIBCMTD:winapinls.obj
 0002:0000c554       ??_C@_1M@JKEOHLDK@?$AAf?$AAr?$AA?9?$AAb?$AAe?$AA?$AA@ 10065554     LIBCMTD:winapinls.obj
 0002:0000c560       ??_C@_1M@NOHADPMI@?$AAf?$AAr?$AA?9?$AAc?$AAa?$AA?$AA@ 10065560     LIBCMTD:winapinls.obj
 0002:0000c56c       ??_C@_1M@KDHIHAEC@?$AAf?$AAr?$AA?9?$AAc?$AAh?$AA?$AA@ 1006556c     LIBCMTD:winapinls.obj
 0002:0000c578       ??_C@_1M@MMBBFGAK@?$AAf?$AAr?$AA?9?$AAf?$AAr?$AA?$AA@ 10065578     LIBCMTD:winapinls.obj
 0002:0000c584       ??_C@_1M@PAFNENNF@?$AAf?$AAr?$AA?9?$AAl?$AAu?$AA?$AA@ 10065584     LIBCMTD:winapinls.obj
 0002:0000c590       ??_C@_1M@EOHDJGDD@?$AAf?$AAr?$AA?9?$AAm?$AAc?$AA?$AA@ 10065590     LIBCMTD:winapinls.obj
 0002:0000c59c       ??_C@_1M@FAPLLOPF@?$AAg?$AAl?$AA?9?$AAe?$AAs?$AA?$AA@ 1006559c     LIBCMTD:winapinls.obj
 0002:0000c5a8       ??_C@_1M@FOPBFLOO@?$AAg?$AAu?$AA?9?$AAi?$AAn?$AA?$AA@ 100655a8     LIBCMTD:winapinls.obj
 0002:0000c5b4       ??_C@_1M@KBMCINPM@?$AAh?$AAe?$AA?9?$AAi?$AAl?$AA?$AA@ 100655b4     LIBCMTD:winapinls.obj
 0002:0000c5c0       ??_C@_1M@BBPHKFPJ@?$AAh?$AAi?$AA?9?$AAi?$AAn?$AA?$AA@ 100655c0     LIBCMTD:winapinls.obj
 0002:0000c5cc       ??_C@_1M@PMBNDPHD@?$AAh?$AAr?$AA?9?$AAb?$AAa?$AA?$AA@ 100655cc     LIBCMTD:winapinls.obj
 0002:0000c5d8       ??_C@_1M@BPCKOEGE@?$AAh?$AAr?$AA?9?$AAh?$AAr?$AA?$AA@ 100655d8     LIBCMTD:winapinls.obj
 0002:0000c5e4       ??_C@_1M@GACBMHKE@?$AAh?$AAu?$AA?9?$AAh?$AAu?$AA?$AA@ 100655e4     LIBCMTD:winapinls.obj
 0002:0000c5f0       ??_C@_1M@MILPAJJC@?$AAh?$AAy?$AA?9?$AAa?$AAm?$AA?$AA@ 100655f0     LIBCMTD:winapinls.obj
 0002:0000c5fc       ??_C@_1M@BABBICEC@?$AAi?$AAd?$AA?9?$AAi?$AAd?$AA?$AA@ 100655fc     LIBCMTD:winapinls.obj
 0002:0000c608       ??_C@_1M@BIKNHHPF@?$AAi?$AAs?$AA?9?$AAi?$AAs?$AA?$AA@ 10065608     LIBCMTD:winapinls.obj
 0002:0000c614       ??_C@_1M@NMPCJPHE@?$AAi?$AAt?$AA?9?$AAc?$AAh?$AA?$AA@ 10065614     LIBCMTD:winapinls.obj
 0002:0000c620       ??_C@_1M@GHKGFEDF@?$AAi?$AAt?$AA?9?$AAi?$AAt?$AA?$AA@ 10065620     LIBCMTD:winapinls.obj
 0002:0000c62c       ??_C@_1M@NIEJCJJA@?$AAj?$AAa?$AA?9?$AAj?$AAp?$AA?$AA@ 1006562c     LIBCMTD:winapinls.obj
 0002:0000c638       ??_C@_1M@JILFNBIM@?$AAk?$AAa?$AA?9?$AAg?$AAe?$AA?$AA@ 10065638     LIBCMTD:winapinls.obj
 0002:0000c644       ??_C@_1M@PACPMGPH@?$AAk?$AAk?$AA?9?$AAk?$AAz?$AA?$AA@ 10065644     LIBCMTD:winapinls.obj
 0002:0000c650       ??_C@_1M@IELFGMHA@?$AAk?$AAn?$AA?9?$AAi?$AAn?$AA?$AA@ 10065650     LIBCMTD:winapinls.obj
 0002:0000c65c       ??_C@_1O@IBBJHCH@?$AAk?$AAo?$AAk?$AA?9?$AAi?$AAn?$AA?$AA@ 1006565c     LIBCMTD:winapinls.obj
 0002:0000c66c       ??_C@_1M@DMHAEOGC@?$AAk?$AAo?$AA?9?$AAk?$AAr?$AA?$AA@ 1006566c     LIBCMTD:winapinls.obj
 0002:0000c678       ??_C@_1M@HBAHBIGA@?$AAk?$AAy?$AA?9?$AAk?$AAg?$AA?$AA@ 10065678     LIBCMTD:winapinls.obj
 0002:0000c684       ??_C@_1M@KPMILCJG@?$AAl?$AAt?$AA?9?$AAl?$AAt?$AA?$AA@ 10065684     LIBCMTD:winapinls.obj
 0002:0000c690       ??_C@_1M@BDEKKCA@?$AAl?$AAv?$AA?9?$AAl?$AAv?$AA?$AA@ 10065690     LIBCMTD:winapinls.obj
 0002:0000c69c       ??_C@_1M@ELCKCCJJ@?$AAm?$AAi?$AA?9?$AAn?$AAz?$AA?$AA@ 1006569c     LIBCMTD:winapinls.obj
 0002:0000c6a8       ??_C@_1M@CBOOLAPA@?$AAm?$AAk?$AA?9?$AAm?$AAk?$AA?$AA@ 100656a8     LIBCMTD:winapinls.obj
 0002:0000c6b4       ??_C@_1M@GPHNBJKN@?$AAm?$AAl?$AA?9?$AAi?$AAn?$AA?$AA@ 100656b4     LIBCMTD:winapinls.obj
 0002:0000c6c0       ??_C@_1M@PABJILIG@?$AAm?$AAn?$AA?9?$AAm?$AAn?$AA?$AA@ 100656c0     LIBCMTD:winapinls.obj
 0002:0000c6cc       ??_C@_1M@FGBKKIPG@?$AAm?$AAr?$AA?9?$AAi?$AAn?$AA?$AA@ 100656cc     LIBCMTD:winapinls.obj
 0002:0000c6d8       ??_C@_1M@NDBPDDAL@?$AAm?$AAs?$AA?9?$AAb?$AAn?$AA?$AA@ 100656d8     LIBCMTD:winapinls.obj
 0002:0000c6e4       ??_C@_1M@OPIHOOPI@?$AAm?$AAs?$AA?9?$AAm?$AAy?$AA?$AA@ 100656e4     LIBCMTD:winapinls.obj
 0002:0000c6f0       ??_C@_1M@PPDBCNFM@?$AAm?$AAt?$AA?9?$AAm?$AAt?$AA?$AA@ 100656f0     LIBCMTD:winapinls.obj
 0002:0000c6fc       ??_C@_1M@KDJDKMDD@?$AAn?$AAb?$AA?9?$AAn?$AAo?$AA?$AA@ 100656fc     LIBCMTD:winapinls.obj
 0002:0000c708       ??_C@_1M@KFCFLMJP@?$AAn?$AAl?$AA?9?$AAb?$AAe?$AA?$AA@ 10065708     LIBCMTD:winapinls.obj
 0002:0000c714       ??_C@_1M@KPOPDDGO@?$AAn?$AAl?$AA?9?$AAn?$AAl?$AA?$AA@ 10065714     LIBCMTD:winapinls.obj
 0002:0000c720       ??_C@_1M@LJKPEMLN@?$AAn?$AAn?$AA?9?$AAn?$AAo?$AA?$AA@ 10065720     LIBCMTD:winapinls.obj
 0002:0000c72c       ??_C@_1M@BDGHHBFL@?$AAn?$AAs?$AA?9?$AAz?$AAa?$AA?$AA@ 1006572c     LIBCMTD:winapinls.obj
 0002:0000c738       ??_C@_1M@IDEHOAP@?$AAp?$AAa?$AA?9?$AAi?$AAn?$AA?$AA@ 10065738     LIBCMTD:winapinls.obj
 0002:0000c744       ??_C@_1M@HDBKGOGH@?$AAp?$AAl?$AA?9?$AAp?$AAl?$AA?$AA@ 10065744     LIBCMTD:winapinls.obj
 0002:0000c750       ??_C@_1M@LJLLCMEH@?$AAp?$AAt?$AA?9?$AAb?$AAr?$AA?$AA@ 10065750     LIBCMTD:winapinls.obj
 0002:0000c75c       ??_C@_1M@NCMONAAL@?$AAp?$AAt?$AA?9?$AAp?$AAt?$AA?$AA@ 1006575c     LIBCMTD:winapinls.obj
 0002:0000c768       ??_C@_1O@EAKMAJDN@?$AAq?$AAu?$AAz?$AA?9?$AAb?$AAo?$AA?$AA@ 10065768     LIBCMTD:winapinls.obj
 0002:0000c778       ??_C@_1O@BHHPIGDN@?$AAq?$AAu?$AAz?$AA?9?$AAe?$AAc?$AA?$AA@ 10065778     LIBCMTD:winapinls.obj
 0002:0000c788       ??_C@_1O@GBAPEKMJ@?$AAq?$AAu?$AAz?$AA?9?$AAp?$AAe?$AA?$AA@ 10065788     LIBCMTD:winapinls.obj
 0002:0000c798       ??_C@_1M@CLGLEFBO@?$AAr?$AAo?$AA?9?$AAr?$AAo?$AA?$AA@ 10065798     LIBCMTD:winapinls.obj
 0002:0000c7a4       ??_C@_1M@CEEDODME@?$AAr?$AAu?$AA?9?$AAr?$AAu?$AA?$AA@ 100657a4     LIBCMTD:winapinls.obj
 0002:0000c7b0       ??_C@_1M@HPKKKMPP@?$AAs?$AAa?$AA?9?$AAi?$AAn?$AA?$AA@ 100657b0     LIBCMTD:winapinls.obj
 0002:0000c7bc       ??_C@_1M@BKMAIGOJ@?$AAs?$AAe?$AA?9?$AAf?$AAi?$AA?$AA@ 100657bc     LIBCMTD:winapinls.obj
 0002:0000c7c8       ??_C@_1M@NDPIFLFI@?$AAs?$AAe?$AA?9?$AAn?$AAo?$AA?$AA@ 100657c8     LIBCMTD:winapinls.obj
 0002:0000c7d4       ??_C@_1M@DANKKHJ@?$AAs?$AAe?$AA?9?$AAs?$AAe?$AA?$AA@ 100657d4     LIBCMTD:winapinls.obj
 0002:0000c7e0       ??_C@_1M@PNBLONPJ@?$AAs?$AAk?$AA?9?$AAs?$AAk?$AA?$AA@ 100657e0     LIBCMTD:winapinls.obj
 0002:0000c7ec       ??_C@_1M@LFMODOAL@?$AAs?$AAl?$AA?9?$AAs?$AAi?$AA?$AA@ 100657ec     LIBCMTD:winapinls.obj
 0002:0000c7f8       ??_C@_1O@DFKOMPG@?$AAs?$AAm?$AAa?$AA?9?$AAn?$AAo?$AA?$AA@ 100657f8     LIBCMTD:winapinls.obj
 0002:0000c808       ??_C@_1O@NDKPBNNH@?$AAs?$AAm?$AAa?$AA?9?$AAs?$AAe?$AA?$AA@ 10065808     LIBCMTD:winapinls.obj
 0002:0000c818       ??_C@_1O@PLLKBHAB@?$AAs?$AAm?$AAj?$AA?9?$AAn?$AAo?$AA?$AA@ 10065818     LIBCMTD:winapinls.obj
 0002:0000c828       ??_C@_1O@CLEPOGCA@?$AAs?$AAm?$AAj?$AA?9?$AAs?$AAe?$AA?$AA@ 10065828     LIBCMTD:winapinls.obj
 0002:0000c838       ??_C@_1O@DLGJGKMK@?$AAs?$AAm?$AAn?$AA?9?$AAf?$AAi?$AA?$AA@ 10065838     LIBCMTD:winapinls.obj
 0002:0000c848       ??_C@_1O@OJDJGAJC@?$AAs?$AAm?$AAs?$AA?9?$AAf?$AAi?$AA?$AA@ 10065848     LIBCMTD:winapinls.obj
 0002:0000c858       ??_C@_1M@BOFOGHPB@?$AAs?$AAq?$AA?9?$AAa?$AAl?$AA?$AA@ 10065858     LIBCMTD:winapinls.obj
 0002:0000c864       ??_C@_1BG@LJBBIPGB@?$AAs?$AAr?$AA?9?$AAb?$AAa?$AA?9?$AAc?$AAy?$AAr?$AAl?$AA?$AA@ 10065864     LIBCMTD:winapinls.obj
 0002:0000c87c       ??_C@_1BG@JLBENFOE@?$AAs?$AAr?$AA?9?$AAb?$AAa?$AA?9?$AAl?$AAa?$AAt?$AAn?$AA?$AA@ 1006587c     LIBCMTD:winapinls.obj
 0002:0000c894       ??_C@_1BG@KODPNHE@?$AAs?$AAr?$AA?9?$AAs?$AAp?$AA?9?$AAc?$AAy?$AAr?$AAl?$AA?$AA@ 10065894     LIBCMTD:winapinls.obj
 0002:0000c8ac       ??_C@_1BG@CIOGKHPB@?$AAs?$AAr?$AA?9?$AAs?$AAp?$AA?9?$AAl?$AAa?$AAt?$AAn?$AA?$AA@ 100658ac     LIBCMTD:winapinls.obj
 0002:0000c8c4       ??_C@_1M@NGFJLMAC@?$AAs?$AAv?$AA?9?$AAf?$AAi?$AA?$AA@ 100658c4     LIBCMTD:winapinls.obj
 0002:0000c8d0       ??_C@_1M@MPJEJAJC@?$AAs?$AAv?$AA?9?$AAs?$AAe?$AA?$AA@ 100658d0     LIBCMTD:winapinls.obj
 0002:0000c8dc       ??_C@_1M@MPNDHLFK@?$AAs?$AAw?$AA?9?$AAk?$AAe?$AA?$AA@ 100658dc     LIBCMTD:winapinls.obj
 0002:0000c8e8       ??_C@_1O@KOHBJJI@?$AAs?$AAy?$AAr?$AA?9?$AAs?$AAy?$AA?$AA@ 100658e8     LIBCMTD:winapinls.obj
 0002:0000c8f8       ??_C@_1M@LDCEFHA@?$AAt?$AAa?$AA?9?$AAi?$AAn?$AA?$AA@ 100658f8     LIBCMTD:winapinls.obj
 0002:0000c904       ??_C@_1M@CNJOFAK@?$AAt?$AAe?$AA?9?$AAi?$AAn?$AA?$AA@ 10065904     LIBCMTD:winapinls.obj
 0002:0000c910       ??_C@_1M@GNAECACD@?$AAt?$AAh?$AA?9?$AAt?$AAh?$AA?$AA@ 10065910     LIBCMTD:winapinls.obj
 0002:0000c91c       ??_C@_1M@CHBIHOJO@?$AAt?$AAn?$AA?9?$AAz?$AAa?$AA?$AA@ 1006591c     LIBCMTD:winapinls.obj
 0002:0000c928       ??_C@_1M@GCCMIGPJ@?$AAt?$AAr?$AA?9?$AAt?$AAr?$AA?$AA@ 10065928     LIBCMTD:winapinls.obj
 0002:0000c934       ??_C@_1M@CELMCNBK@?$AAt?$AAt?$AA?9?$AAr?$AAu?$AA?$AA@ 10065934     LIBCMTD:winapinls.obj
 0002:0000c940       ??_C@_1M@KLMCELGA@?$AAu?$AAk?$AA?9?$AAu?$AAa?$AA?$AA@ 10065940     LIBCMTD:winapinls.obj
 0002:0000c94c       ??_C@_1M@EPAJJAJF@?$AAu?$AAr?$AA?9?$AAp?$AAk?$AA?$AA@ 1006594c     LIBCMTD:winapinls.obj
 0002:0000c958       ??_C@_1BG@GEGPMCDJ@?$AAu?$AAz?$AA?9?$AAu?$AAz?$AA?9?$AAc?$AAy?$AAr?$AAl?$AA?$AA@ 10065958     LIBCMTD:winapinls.obj
 0002:0000c970       ??_C@_1BG@EGGKJILM@?$AAu?$AAz?$AA?9?$AAu?$AAz?$AA?9?$AAl?$AAa?$AAt?$AAn?$AA?$AA@ 10065970     LIBCMTD:winapinls.obj
 0002:0000c988       ??_C@_1M@GFOCLFF@?$AAv?$AAi?$AA?9?$AAv?$AAn?$AA?$AA@ 10065988     LIBCMTD:winapinls.obj
 0002:0000c994       ??_C@_1M@CPAMEDFI@?$AAx?$AAh?$AA?9?$AAz?$AAa?$AA?$AA@ 10065994     LIBCMTD:winapinls.obj
 0002:0000c9a0       ??_C@_1O@EBKIFIGN@?$AAz?$AAh?$AA?9?$AAc?$AAh?$AAs?$AA?$AA@ 100659a0     LIBCMTD:winapinls.obj
 0002:0000c9b0       ??_C@_1O@NMHPGANE@?$AAz?$AAh?$AA?9?$AAc?$AAh?$AAt?$AA?$AA@ 100659b0     LIBCMTD:winapinls.obj
 0002:0000c9c0       ??_C@_1M@LPINJOMC@?$AAz?$AAh?$AA?9?$AAc?$AAn?$AA?$AA@ 100659c0     LIBCMTD:winapinls.obj
 0002:0000c9cc       ??_C@_1M@OCJEJODD@?$AAz?$AAh?$AA?9?$AAh?$AAk?$AA?$AA@ 100659cc     LIBCMTD:winapinls.obj
 0002:0000c9d8       ??_C@_1M@DNDLJINH@?$AAz?$AAh?$AA?9?$AAm?$AAo?$AA?$AA@ 100659d8     LIBCMTD:winapinls.obj
 0002:0000c9e4       ??_C@_1M@MBFDNDND@?$AAz?$AAh?$AA?9?$AAs?$AAg?$AA?$AA@ 100659e4     LIBCMTD:winapinls.obj
 0002:0000c9f0       ??_C@_1M@IMEPLEPE@?$AAz?$AAh?$AA?9?$AAt?$AAw?$AA?$AA@ 100659f0     LIBCMTD:winapinls.obj
 0002:0000c9fc       ??_C@_1M@BBGHNHJP@?$AAz?$AAu?$AA?9?$AAz?$AAa?$AA?$AA@ 100659fc     LIBCMTD:winapinls.obj
 0002:0000ca08       ??_C@_15EMKDOKLE@?$AAa?$AAr?$AA?$AA@ 10065a08     LIBCMTD:winapinls.obj
 0002:0000ca10       ??_C@_15KNPADPLH@?$AAb?$AAg?$AA?$AA@ 10065a10     LIBCMTD:winapinls.obj
 0002:0000ca18       ??_C@_1FE@HAPBHJIC@?$AAf?$AA?3?$AA?2?$AAd?$AAd?$AA?2?$AAv?$AAc?$AAt?$AAo?$AAo?$AAl?$AAs?$AA?2?$AAc?$AAr?$AAt?$AA?2?$AAc?$AAr?$AAt?$AAw?$AA3?$AA2?$AA?2?$AAm?$AAi?$AAs?$AAc?$AA?2?$AAw?$AAi@ 10065a18     LIBCMTD:winapinls.obj
 0002:0000ca6c       ??_C@_1DO@MBHJDOGM@?$AA_?$AA_?$AAc?$AAr?$AAt?$AAD?$AAo?$AAw?$AAn?$AAl?$AAe?$AAv?$AAe?$AAl?$AAL?$AAC?$AAI?$AAD?$AAT?$AAo?$AAL?$AAo?$AAc?$AAa?$AAl?$AAe?$AAN?$AAa?$AAm?$AAe?$AA?$AA@ 10065a6c     LIBCMTD:winapinls.obj
 0002:0000cab0       ??_C@_1FO@LFACCMJH@?$AAw?$AAc?$AAs?$AAc?$AAp?$AAy?$AA_?$AAs?$AA?$CI?$AAo?$AAu?$AAt?$AAL?$AAo?$AAc?$AAa?$AAl?$AAe?$AAN?$AAa?$AAm?$AAe?$AA?0?$AA?5?$AAc?$AAc?$AAh?$AAL?$AAo?$AAc?$AAa?$AAl@ 10065ab0     LIBCMTD:winapinls.obj
 0002:0000cb10       ??_C@_0CI@NOHEOGNG@f?3?2dd?2vctools?2crt?2crtw32?2misc?2in@ 10065b10     LIBCMTD:initmon.obj
 0002:0000cb38       ??_C@_1DM@GKAPAMDO@?$AAp?$AAl?$AAo?$AAc?$AAi?$AA?9?$AA?$DO?$AAl?$AAc?$AAo?$AAn?$AAv?$AA_?$AAm?$AAo?$AAn?$AA_?$AAr?$AAe?$AAf?$AAc?$AAo?$AAu?$AAn?$AAt?$AA?5?$AA?$DO?$AA?5?$AA0?$AA?$AA@ 10065b38     LIBCMTD:initmon.obj
 0002:0000cb78       ??_C@_1FA@CNNDGPJL@?$AAf?$AA?3?$AA?2?$AAd?$AAd?$AA?2?$AAv?$AAc?$AAt?$AAo?$AAo?$AAl?$AAs?$AA?2?$AAc?$AAr?$AAt?$AA?2?$AAc?$AAr?$AAt?$AAw?$AA3?$AA2?$AA?2?$AAm?$AAi?$AAs?$AAc?$AA?2?$AAi?$AAn@ 10065b78     LIBCMTD:initmon.obj
 0002:0000cbc8       ??_C@_0CI@GAAFLELF@f?3?2dd?2vctools?2crt?2crtw32?2misc?2in@ 10065bc8     LIBCMTD:initnum.obj
 0002:0000cbf0       ??_C@_1DM@IFKAINNE@?$AAp?$AAl?$AAo?$AAc?$AAi?$AA?9?$AA?$DO?$AAl?$AAc?$AAo?$AAn?$AAv?$AA_?$AAn?$AAu?$AAm?$AA_?$AAr?$AAe?$AAf?$AAc?$AAo?$AAu?$AAn?$AAt?$AA?5?$AA?$DO?$AA?5?$AA0?$AA?$AA@ 10065bf0     LIBCMTD:initnum.obj
 0002:0000cc30       ??_C@_1FA@OEEOKLKJ@?$AAf?$AA?3?$AA?2?$AAd?$AAd?$AA?2?$AAv?$AAc?$AAt?$AAo?$AAo?$AAl?$AAs?$AA?2?$AAc?$AAr?$AAt?$AA?2?$AAc?$AAr?$AAt?$AAw?$AA3?$AA2?$AA?2?$AAm?$AAi?$AAs?$AAc?$AA?2?$AAi?$AAn@ 10065c30     LIBCMTD:initnum.obj
 0002:0000cc80       ??_C@_0CJ@HGFGLKBM@f?3?2dd?2vctools?2crt?2crtw32?2misc?2in@ 10065c80     LIBCMTD:inittime.obj
 0002:0000ccb0       ??_C@_1EE@FDHCFDHN@?$AAp?$AAl?$AAo?$AAc?$AAi?$AA?9?$AA?$DO?$AAl?$AAc?$AA_?$AAt?$AAi?$AAm?$AAe?$AA_?$AAc?$AAu?$AAr?$AAr?$AA?9?$AA?$DO?$AAr?$AAe?$AAf?$AAc?$AAo?$AAu?$AAn?$AAt?$AA?5?$AA?$DO?$AA?5@ 10065cb0     LIBCMTD:inittime.obj
 0002:0000ccf8       ??_C@_1FC@GNPEEAOA@?$AAf?$AA?3?$AA?2?$AAd?$AAd?$AA?2?$AAv?$AAc?$AAt?$AAo?$AAo?$AAl?$AAs?$AA?2?$AAc?$AAr?$AAt?$AA?2?$AAc?$AAr?$AAt?$AAw?$AA3?$AA2?$AA?2?$AAm?$AAi?$AAs?$AAc?$AA?2?$AAi?$AAn@ 10065cf8     LIBCMTD:inittime.obj
 0002:0000cd50       ___lc_category             10065d50     LIBCMTD:wsetloca.obj
 0002:0000cd98       ??_C@_1O@GIFLHMA@?$AAL?$AAC?$AA_?$AAA?$AAL?$AAL?$AA?$AA@ 10065d98     LIBCMTD:wsetloca.obj
 0002:0000cda8       ??_C@_1BG@PPOMIBNJ@?$AAL?$AAC?$AA_?$AAC?$AAO?$AAL?$AAL?$AAA?$AAT?$AAE?$AA?$AA@ 10065da8     LIBCMTD:wsetloca.obj
 0002:0000cdc0       ??_C@_1BC@FFJGAPJM@?$AAL?$AAC?$AA_?$AAC?$AAT?$AAY?$AAP?$AAE?$AA?$AA@ 10065dc0     LIBCMTD:wsetloca.obj
 0002:0000cdd4       ??_C@_1BI@PCKFNJFB@?$AAL?$AAC?$AA_?$AAM?$AAO?$AAN?$AAE?$AAT?$AAA?$AAR?$AAY?$AA?$AA@ 10065dd4     LIBCMTD:wsetloca.obj
 0002:0000cdec       ??_C@_1BG@ENIEDKID@?$AAL?$AAC?$AA_?$AAN?$AAU?$AAM?$AAE?$AAR?$AAI?$AAC?$AA?$AA@ 10065dec     LIBCMTD:wsetloca.obj
 0002:0000ce04       ??_C@_1BA@HAAOMIIG@?$AAL?$AAC?$AA_?$AAT?$AAI?$AAM?$AAE?$AA?$AA@ 10065e04     LIBCMTD:wsetloca.obj
 0002:0000ce98       ??_C@_1GA@LDEGDKD@?$AA?$CI?$AA?$CC?$AAI?$AAn?$AAv?$AAa?$AAl?$AAi?$AAd?$AA?5?$AAp?$AAa?$AAr?$AAa?$AAm?$AAe?$AAt?$AAe?$AAr?$AA?5?$AAf?$AAo?$AAr?$AA?5?$AA_?$AAc?$AAo?$AAn?$AAf?$AAi?$AAg?$AAt@ 10065e98     LIBCMTD:wsetloca.obj
 0002:0000cef8       ??_C@_1FC@GFIKBLFA@?$AAf?$AA?3?$AA?2?$AAd?$AAd?$AA?2?$AAv?$AAc?$AAt?$AAo?$AAo?$AAl?$AAs?$AA?2?$AAc?$AAr?$AAt?$AA?2?$AAc?$AAr?$AAt?$AAw?$AA3?$AA2?$AA?2?$AAm?$AAi?$AAs?$AAc?$AA?2?$AAw?$AAs@ 10065ef8     LIBCMTD:wsetloca.obj
 0002:0000cf4c       ??_C@_1CI@FGIONOJM@?$AA_?$AAc?$AAo?$AAn?$AAf?$AAi?$AAg?$AAt?$AAh?$AAr?$AAe?$AAa?$AAd?$AAl?$AAo?$AAc?$AAa?$AAl?$AAe?$AA?$AA@ 10065f4c     LIBCMTD:wsetloca.obj
 0002:0000cf74       ??_C@_0CJ@MIILEBP@f?3?2dd?2vctools?2crt?2crtw32?2misc?2ws@ 10065f74     LIBCMTD:wsetloca.obj
 0002:0000cfa0       ??_C@_1FG@OHLFEKMC@?$AAL?$AAC?$AA_?$AAM?$AAI?$AAN?$AA?5?$AA?$DM?$AA?$DN?$AA?5?$AA_?$AAc?$AAa?$AAt?$AAe?$AAg?$AAo?$AAr?$AAy?$AA?5?$AA?$CG?$AA?$CG?$AA?5?$AA_?$AAc?$AAa?$AAt?$AAe?$AAg?$AAo?$AAr?$AAy@ 10065fa0     LIBCMTD:wsetloca.obj
 0002:0000cff8       ??_C@_1BI@KJNPAEHL@?$AA_?$AAw?$AAs?$AAe?$AAt?$AAl?$AAo?$AAc?$AAa?$AAl?$AAe?$AA?$AA@ 10065ff8     LIBCMTD:wsetloca.obj
 0002:0000d010       ??_C@_15NBPDDFIP@?$AA?$DN?$AA?$DL?$AA?$AA@ 10066010     LIBCMTD:wsetloca.obj
 0002:0000d018       ??_C@_13PJJBFPED@?$AA?$DL?$AA?$AA@ 10066018     LIBCMTD:wsetloca.obj
 0002:0000d01c       ??_C@_1CG@DKJCBBPP@?$AA_?$AAw?$AAs?$AAe?$AAt?$AAl?$AAo?$AAc?$AAa?$AAl?$AAe?$AA_?$AAn?$AAo?$AAl?$AAo?$AAc?$AAk?$AA?$AA@ 1006601c     LIBCMTD:wsetloca.obj
 0002:0000d048       ??_C@_1IA@DGCOPCLP@?$AAw?$AAc?$AAs?$AAn?$AAc?$AAp?$AAy?$AA_?$AAs?$AA?$CI?$AAl?$AAc?$AAt?$AAe?$AAm?$AAp?$AA?0?$AA?5?$AA?$CI?$AAs?$AAi?$AAz?$AAe?$AAo?$AAf?$AA?$CI?$AAl?$AAc?$AAt?$AAe?$AAm?$AAp@ 10066048     LIBCMTD:wsetloca.obj
 0002:0000d0c8       ??_C@_1CI@ODOPEMNJ@?$AA_?$AAw?$AAs?$AAe?$AAt?$AAl?$AAo?$AAc?$AAa?$AAl?$AAe?$AA_?$AAs?$AAe?$AAt?$AA_?$AAc?$AAa?$AAt?$AA?$AA@ 100660c8     LIBCMTD:wsetloca.obj
 0002:0000d0f0       ??_C@_1EM@MHOCNIAA@?$AAw?$AAc?$AAs?$AAc?$AAp?$AAy?$AA_?$AAs?$AA?$CI?$AAp?$AAc?$AAh?$AA_?$AAc?$AAa?$AAt?$AA_?$AAl?$AAo?$AAc?$AAa?$AAl?$AAe?$AA?0?$AA?5?$AAc?$AAc?$AAh?$AA?0?$AA?5?$AAl?$AAc@ 100660f0     LIBCMTD:wsetloca.obj
 0002:0000d13c       ??_C@_13NMPKAAJP@?$AA?$DN?$AA?$AA@ 1006613c     LIBCMTD:wsetloca.obj
 0002:0000d140       ??_C@_1CI@LKOPFFBD@?$AA_?$AAw?$AAs?$AAe?$AAt?$AAl?$AAo?$AAc?$AAa?$AAl?$AAe?$AA_?$AAg?$AAe?$AAt?$AA_?$AAa?$AAl?$AAl?$AA?$AA@ 10066140     LIBCMTD:wsetloca.obj
 0002:0000d168       ??_C@_1DC@HMLJMODP@?$AAw?$AAc?$AAs?$AAc?$AAa?$AAt?$AA_?$AAs?$AA?$CI?$AAp?$AAc?$AAh?$AA?0?$AA?5?$AAc?$AAc?$AAh?$AA?0?$AA?5?$AAL?$AA?$CC?$AA?$DL?$AA?$CC?$AA?$CJ?$AA?$AA@ 10066168     LIBCMTD:wsetloca.obj
 0002:0000d19c       ??_C@_1BM@OIIBLEFG@?$AA_?$AAe?$AAx?$AAp?$AAa?$AAn?$AAd?$AAl?$AAo?$AAc?$AAa?$AAl?$AAe?$AA?$AA@ 1006619c     LIBCMTD:wsetloca.obj
 0002:0000d1b8       ??_C@_1BFG@FHLOBJGM@?$AAw?$AAc?$AAs?$AAn?$AAc?$AAp?$AAy?$AA_?$AAs?$AA?$CI?$AAl?$AAo?$AAc?$AAa?$AAl?$AAe?$AAN?$AAa?$AAm?$AAe?$AAO?$AAu?$AAt?$AAp?$AAu?$AAt?$AA?0?$AA?5?$AAl?$AAo?$AAc?$AAa@ 100661b8     LIBCMTD:wsetloca.obj
 0002:0000d310       ??_C@_1EI@OCINLCHN@?$AAw?$AAc?$AAs?$AAc?$AAp?$AAy?$AA_?$AAs?$AA?$CI?$AAo?$AAu?$AAt?$AAp?$AAu?$AAt?$AA?0?$AA?5?$AAs?$AAi?$AAz?$AAe?$AAI?$AAn?$AAC?$AAh?$AAa?$AAr?$AAs?$AA?0?$AA?5?$AAL?$AA?$CC@ 10066310     LIBCMTD:wsetloca.obj
 0002:0000d358       ??_C@_13FHBKNHDA@?$AAC?$AA?$AA@ 10066358     LIBCMTD:wsetloca.obj
 0002:0000d360       ??_C@_1MO@NNCNEOAP@?$AAw?$AAc?$AAs?$AAn?$AAc?$AAp?$AAy?$AA_?$AAs?$AA?$CI?$AAl?$AAo?$AAc?$AAa?$AAl?$AAe?$AAN?$AAa?$AAm?$AAe?$AAO?$AAu?$AAt?$AAp?$AAu?$AAt?$AA?0?$AA?5?$AAl?$AAo?$AAc?$AAa@ 10066360     LIBCMTD:wsetloca.obj
 0002:0000d430       ??_C@_1IG@MKDIEKFD@?$AAw?$AAc?$AAs?$AAn?$AAc?$AAp?$AAy?$AA_?$AAs?$AA?$CI?$AAc?$AAa?$AAc?$AAh?$AAe?$AAo?$AAu?$AAt?$AA?0?$AA?5?$AAc?$AAa?$AAc?$AAh?$AAe?$AAo?$AAu?$AAt?$AAL?$AAe?$AAn?$AA?0@ 10066430     LIBCMTD:wsetloca.obj
 0002:0000d4b8       ??_C@_1KK@KMIFPBBC@?$AAw?$AAc?$AAs?$AAn?$AAc?$AAp?$AAy?$AA_?$AAs?$AA?$CI?$AAl?$AAo?$AAc?$AAa?$AAl?$AAe?$AAN?$AAa?$AAm?$AAe?$AAO?$AAu?$AAt?$AAp?$AAu?$AAt?$AA?0?$AA?5?$AAl?$AAo?$AAc?$AAa@ 100664b8     LIBCMTD:wsetloca.obj
 0002:0000d568       ??_C@_1BEK@OJDMMIMP@?$AAw?$AAc?$AAs?$AAn?$AAc?$AAp?$AAy?$AA_?$AAs?$AA?$CI?$AA_?$AAp?$AAs?$AAe?$AAt?$AAl?$AAo?$AAc?$AA_?$AAd?$AAa?$AAt?$AAa?$AA?9?$AA?$DO?$AA_?$AAc?$AAa?$AAc?$AAh?$AAe?$AAL@ 10066568     LIBCMTD:wsetloca.obj
 0002:0000d6b8       ??_C@_1BGG@FCLLNAOE@?$AAw?$AAc?$AAs?$AAn?$AAc?$AAp?$AAy?$AA_?$AAs?$AA?$CI?$AA_?$AAp?$AAs?$AAe?$AAt?$AAl?$AAo?$AAc?$AA_?$AAd?$AAa?$AAt?$AAa?$AA?9?$AA?$DO?$AA_?$AAc?$AAa?$AAc?$AAh?$AAe?$AAL@ 100666b8     LIBCMTD:wsetloca.obj
 0002:0000d820       ??_C@_1IC@FCCDBGLL@?$AAw?$AAc?$AAs?$AAn?$AAc?$AAp?$AAy?$AA_?$AAs?$AA?$CI?$AAc?$AAa?$AAc?$AAh?$AAe?$AAi?$AAn?$AA?0?$AA?5?$AAc?$AAa?$AAc?$AAh?$AAe?$AAi?$AAn?$AAL?$AAe?$AAn?$AA?0?$AA?5?$AAe@ 10066820     LIBCMTD:wsetloca.obj
 0002:0000d8a8       ??_C@_1FA@HOOAAHFF@?$AAw?$AAc?$AAs?$AAc?$AAp?$AAy?$AA_?$AAs?$AA?$CI?$AAo?$AAu?$AAt?$AAp?$AAu?$AAt?$AA?0?$AA?5?$AAs?$AAi?$AAz?$AAe?$AAI?$AAn?$AAC?$AAh?$AAa?$AAr?$AAs?$AA?0?$AA?5?$AAc?$AAa@ 100668a8     LIBCMTD:wsetloca.obj
 0002:0000d8f8       ??_C@_1BC@LEOKFFML@?$AA_?$AAw?$AAc?$AAs?$AAc?$AAa?$AAt?$AAs?$AA?$AA@ 100668f8     LIBCMTD:wsetloca.obj
 0002:0000d910       ??_C@_1BII@IONPPCCF@?$AAw?$AAc?$AAs?$AAc?$AAa?$AAt?$AA_?$AAs?$AA?$CI?$AAo?$AAu?$AAt?$AAs?$AAt?$AAr?$AA?0?$AA?5?$AAn?$AAu?$AAm?$AAb?$AAe?$AAr?$AAO?$AAf?$AAE?$AAl?$AAe?$AAm?$AAe?$AAn?$AAt@ 10066910     LIBCMTD:wsetloca.obj
 0002:0000da98       ??_C@_1BK@GNCHCGCN@?$AA_?$AA_?$AAl?$AAc?$AA_?$AAw?$AAc?$AAs?$AAt?$AAo?$AAl?$AAc?$AA?$AA@ 10066a98     LIBCMTD:wsetloca.obj
 0002:0000dab8       ??_C@_1NI@NELJHJBO@?$AAw?$AAc?$AAs?$AAn?$AAc?$AAp?$AAy?$AA_?$AAs?$AA?$CI?$AAn?$AAa?$AAm?$AAe?$AAs?$AA?9?$AA?$DO?$AAs?$AAz?$AAC?$AAo?$AAd?$AAe?$AAP?$AAa?$AAg?$AAe?$AA?0?$AA?5?$AA?$CI?$AAs?$AAi@ 10066ab8     LIBCMTD:wsetloca.obj
 0002:0000db90       ??_C@_17MBJJLFDM@?$AA_?$AA?4?$AA?0?$AA?$AA@ 10066b90     LIBCMTD:wsetloca.obj
 0002:0000db98       ??_C@_1MO@PBGOIBFL@?$AAw?$AAc?$AAs?$AAn?$AAc?$AAp?$AAy?$AA_?$AAs?$AA?$CI?$AAn?$AAa?$AAm?$AAe?$AAs?$AA?9?$AA?$DO?$AAs?$AAz?$AAL?$AAa?$AAn?$AAg?$AAu?$AAa?$AAg?$AAe?$AA?0?$AA?5?$AA?$CI?$AAs?$AAi@ 10066b98     LIBCMTD:wsetloca.obj
 0002:0000dc68       ??_C@_1MI@CLMFNAAJ@?$AAw?$AAc?$AAs?$AAn?$AAc?$AAp?$AAy?$AA_?$AAs?$AA?$CI?$AAn?$AAa?$AAm?$AAe?$AAs?$AA?9?$AA?$DO?$AAs?$AAz?$AAC?$AAo?$AAu?$AAn?$AAt?$AAr?$AAy?$AA?0?$AA?5?$AA?$CI?$AAs?$AAi?$AAz@ 10066c68     LIBCMTD:wsetloca.obj
 0002:0000dd30       ??_C@_1MO@NBFBMKCB@?$AAw?$AAc?$AAs?$AAn?$AAc?$AAp?$AAy?$AA_?$AAs?$AA?$CI?$AAn?$AAa?$AAm?$AAe?$AAs?$AA?9?$AA?$DO?$AAs?$AAz?$AAC?$AAo?$AAd?$AAe?$AAP?$AAa?$AAg?$AAe?$AA?0?$AA?5?$AA?$CI?$AAs?$AAi@ 10066d30     LIBCMTD:wsetloca.obj
 0002:0000de00       ??_C@_1BK@HEBMGPEK@?$AA_?$AA_?$AAl?$AAc?$AA_?$AAl?$AAc?$AAt?$AAo?$AAw?$AAc?$AAs?$AA?$AA@ 10066e00     LIBCMTD:wsetloca.obj
 0002:0000de20       ??_C@_1GM@FOFMGOEK@?$AAw?$AAc?$AAs?$AAc?$AAp?$AAy?$AA_?$AAs?$AA?$CI?$AAl?$AAo?$AAc?$AAa?$AAl?$AAe?$AA?0?$AA?5?$AAn?$AAu?$AAm?$AAb?$AAe?$AAr?$AAO?$AAf?$AAE?$AAl?$AAe?$AAm?$AAe?$AAn?$AAt@ 10066e20     LIBCMTD:wsetloca.obj
 0002:0000de8c       ??_C@_13ENNFDPBH@?$AA_?$AA?$AA@ 10066e8c     LIBCMTD:wsetloca.obj
 0002:0000de90       ??_C@_13JOFGPIOO@?$AA?4?$AA?$AA@ 10066e90     LIBCMTD:wsetloca.obj
 0002:0000de94       ??_C@_1CG@HCGEAFEA@?$AA_?$AA_?$AAc?$AAo?$AAp?$AAy?$AA_?$AAl?$AAo?$AAc?$AAa?$AAl?$AAe?$AA_?$AAn?$AAa?$AAm?$AAe?$AA?$AA@ 10066e94     LIBCMTD:wsetloca.obj
 0002:0000dec0       ??_C@_1GI@HBNMCKGD@?$AAw?$AAc?$AAs?$AAn?$AAc?$AAp?$AAy?$AA_?$AAs?$AA?$CI?$AAl?$AAo?$AAc?$AAa?$AAl?$AAe?$AAN?$AAa?$AAm?$AAe?$AAC?$AAo?$AAp?$AAy?$AA?0?$AA?5?$AAc?$AAc?$AAh?$AA?$CL?$AA1?$AA?0@ 10066ec0     LIBCMTD:wsetloca.obj
 0002:0000df28       ??_C@_1BI@IGILPKD@?$AA_?$AAv?$AAs?$AAp?$AAr?$AAi?$AAn?$AAt?$AAf?$AA_?$AAl?$AA?$AA@ 10066f28     LIBCMTD:vsprintf.obj
 0002:0000df40       ??_C@_1CE@HMKDJHB@?$AA_?$AAv?$AAs?$AAc?$AAp?$AAr?$AAi?$AAn?$AAt?$AAf?$AA_?$AAh?$AAe?$AAl?$AAp?$AAe?$AAr?$AA?$AA@ 10066f40     LIBCMTD:vsprintf.obj
 0002:0000df68       ___newctype                10066f68     LIBCMTD:ctype.obj
 0002:0000e268       __wctype                   10067268     LIBCMTD:ctype.obj
 0002:0000e470       ___newclmap                10067470     LIBCMTD:ctype.obj
 0002:0000e5f0       ___newcumap                100675f0     LIBCMTD:ctype.obj
 0002:0000e770       ??_C@_1FA@HHFEGMDA@?$AAf?$AA?3?$AA?2?$AAd?$AAd?$AA?2?$AAv?$AAc?$AAt?$AAo?$AAo?$AAl?$AAs?$AA?2?$AAc?$AAr?$AAt?$AA?2?$AAc?$AAr?$AAt?$AAw?$AA3?$AA2?$AA?2?$AAs?$AAt?$AAd?$AAi?$AAo?$AA?2?$AAf@ 10067770     LIBCMTD:fclose.obj
 0002:0000e7c0       ??_C@_1O@EGMJNCOI@?$AAf?$AAc?$AAl?$AAo?$AAs?$AAe?$AA?$AA@ 100677c0     LIBCMTD:fclose.obj
 0002:0000e7d0       ??_C@_1BM@JMKHIAHP@?$AA?$CI?$AAs?$AAt?$AAr?$AA?5?$AA?$CB?$AA?$DN?$AA?5?$AAN?$AAU?$AAL?$AAL?$AA?$CJ?$AA?$AA@ 100677d0     LIBCMTD:fclose.obj
 0002:0000e7ec       ??_C@_1BO@JINCABEC@?$AA_?$AAf?$AAc?$AAl?$AAo?$AAs?$AAe?$AA_?$AAn?$AAo?$AAl?$AAo?$AAc?$AAk?$AA?$AA@ 100677ec     LIBCMTD:fclose.obj
 0002:0000e810       ??_C@_1HC@KFLBHHBC@?$AA?$CI?$AAf?$AAi?$AAl?$AAe?$AAd?$AAe?$AAs?$AA?5?$AA?$DO?$AA?$DN?$AA?5?$AA0?$AA?5?$AA?$CG?$AA?$CG?$AA?5?$AA?$CI?$AAu?$AAn?$AAs?$AAi?$AAg?$AAn?$AAe?$AAd?$AA?$CJ?$AAf?$AAi?$AAl?$AAe?$AAd@ 10067810     LIBCMTD:commit.obj
 0002:0000e888       ??_C@_1FA@HELGICMG@?$AAf?$AA?3?$AA?2?$AAd?$AAd?$AA?2?$AAv?$AAc?$AAt?$AAo?$AAo?$AAl?$AAs?$AA?2?$AAc?$AAr?$AAt?$AA?2?$AAc?$AAr?$AAt?$AAw?$AA3?$AA2?$AA?2?$AAl?$AAo?$AAw?$AAi?$AAo?$AA?2?$AAc@ 10067888     LIBCMTD:commit.obj
 0002:0000e8d8       ??_C@_1BA@FLNMBBIM@?$AA_?$AAc?$AAo?$AAm?$AAm?$AAi?$AAt?$AA?$AA@ 100678d8     LIBCMTD:commit.obj
 0002:0000e8e8       ??_C@_1DG@LNNHNFHJ@?$AA?$CI?$AA_?$AAo?$AAs?$AAf?$AAi?$AAl?$AAe?$AA?$CI?$AAf?$AAi?$AAl?$AAe?$AAd?$AAe?$AAs?$AA?$CJ?$AA?5?$AA?$CG?$AA?5?$AAF?$AAO?$AAP?$AAE?$AAN?$AA?$CJ?$AA?$AA@ 100678e8     LIBCMTD:commit.obj
 0002:0000e920       ??_C@_1JE@ECKHFIFP@?$AA?$CI?$AA?$CC?$AAI?$AAn?$AAv?$AAa?$AAl?$AAi?$AAd?$AA?5?$AAf?$AAi?$AAl?$AAe?$AA?5?$AAd?$AAe?$AAs?$AAc?$AAr?$AAi?$AAp?$AAt?$AAo?$AAr?$AA?4?$AA?5?$AAF?$AAi?$AAl?$AAe?$AA?5@ 10067920     LIBCMTD:commit.obj
 0002:0000e9b8       ??_C@_1EO@NLGPLDCN@?$AAf?$AA?3?$AA?2?$AAd?$AAd?$AA?2?$AAv?$AAc?$AAt?$AAo?$AAo?$AAl?$AAs?$AA?2?$AAc?$AAr?$AAt?$AA?2?$AAc?$AAr?$AAt?$AAw?$AA3?$AA2?$AA?2?$AAl?$AAo?$AAw?$AAi?$AAo?$AA?2?$AAw@ 100679b8     LIBCMTD:write.obj
 0002:0000ea08       ??_C@_1O@KOFKDHPL@?$AA_?$AAw?$AAr?$AAi?$AAt?$AAe?$AA?$AA@ 10067a08     LIBCMTD:write.obj
 0002:0000ea18       ??_C@_1CM@OKGMMMDH@?$AA?$CI?$AA_?$AAo?$AAs?$AAf?$AAi?$AAl?$AAe?$AA?$CI?$AAf?$AAh?$AA?$CJ?$AA?5?$AA?$CG?$AA?5?$AAF?$AAO?$AAP?$AAE?$AAN?$AA?$CJ?$AA?$AA@ 10067a18     LIBCMTD:write.obj
 0002:0000ea44       ??_C@_1BM@KFJLMBPG@?$AA?$CI?$AAb?$AAu?$AAf?$AA?5?$AA?$CB?$AA?$DN?$AA?5?$AAN?$AAU?$AAL?$AAL?$AA?$CJ?$AA?$AA@ 10067a44     LIBCMTD:write.obj
 0002:0000ea60       ??_C@_1BM@NCANHCIP@?$AA_?$AAw?$AAr?$AAi?$AAt?$AAe?$AA_?$AAn?$AAo?$AAl?$AAo?$AAc?$AAk?$AA?$AA@ 10067a60     LIBCMTD:write.obj
 0002:0000ea7c       ??_C@_1CC@EEOLPHGO@?$AA?$CI?$AA?$CI?$AAc?$AAn?$AAt?$AA?5?$AA?$CG?$AA?5?$AA1?$AA?$CJ?$AA?5?$AA?$DN?$AA?$DN?$AA?5?$AA0?$AA?$CJ?$AA?$AA@ 10067a7c     LIBCMTD:write.obj
 0002:0000eaa0       ??_C@_1DI@CNMHHHLG@?$AAi?$AAs?$AAl?$AAe?$AAa?$AAd?$AAb?$AAy?$AAt?$AAe?$AA?$CI?$AA_?$AAd?$AAb?$AAc?$AAs?$AAB?$AAu?$AAf?$AAf?$AAe?$AAr?$AA?$CI?$AAf?$AAh?$AA?$CJ?$AA?$CJ?$AA?$AA@ 10067aa0     LIBCMTD:write.obj
 0002:0000ead8       ??_C@_1BK@LAOAACLJ@?$AAn?$AAp?$AAt?$AAr?$AA?5?$AA?$CB?$AA?$DN?$AA?5?$AAN?$AAU?$AAL?$AAL?$AA?$AA@ 10067ad8     LIBCMTD:strtol.obj
 0002:0000eaf8       ??_C@_1FE@OOICPOFH@?$AAf?$AA?3?$AA?2?$AAd?$AAd?$AA?2?$AAv?$AAc?$AAt?$AAo?$AAo?$AAl?$AAs?$AA?2?$AAc?$AAr?$AAt?$AA?2?$AAc?$AAr?$AAt?$AAw?$AA3?$AA2?$AA?2?$AAc?$AAo?$AAn?$AAv?$AAe?$AAr?$AAt@ 10067af8     LIBCMTD:strtol.obj
 0002:0000eb4c       ??_C@_1BA@LOLAMAJG@?$AAs?$AAt?$AAr?$AAt?$AAo?$AAx?$AAl?$AA?$AA@ 10067b4c     LIBCMTD:strtol.obj
 0002:0000eb60       ??_C@_1FE@CEHLKAHD@?$AAi?$AAb?$AAa?$AAs?$AAe?$AA?5?$AA?$DN?$AA?$DN?$AA?5?$AA0?$AA?5?$AA?$HM?$AA?$HM?$AA?5?$AA?$CI?$AA2?$AA?5?$AA?$DM?$AA?$DN?$AA?5?$AAi?$AAb?$AAa?$AAs?$AAe?$AA?5?$AA?$CG?$AA?$CG?$AA?5?$AAi?$AAb?$AAa@ 10067b60     LIBCMTD:strtol.obj
 0002:0000ebb8       ??_C@_1FE@NDDOFCDF@?$AAf?$AA?3?$AA?2?$AAd?$AAd?$AA?2?$AAv?$AAc?$AAt?$AAo?$AAo?$AAl?$AAs?$AA?2?$AAc?$AAr?$AAt?$AA?2?$AAc?$AAr?$AAt?$AAw?$AA3?$AA2?$AA?2?$AAl?$AAo?$AAw?$AAi?$AAo?$AA?2?$AAl@ 10067bb8     LIBCMTD:lseeki64.obj
 0002:0000ec0c       ??_C@_1BE@KHFBJMNM@?$AA_?$AAl?$AAs?$AAe?$AAe?$AAk?$AAi?$AA6?$AA4?$AA?$AA@ 10067c0c     LIBCMTD:lseeki64.obj
 0002:0000ec20       ??_C@_1FC@LGKDBMCL@?$AAf?$AA?3?$AA?2?$AAd?$AAd?$AA?2?$AAv?$AAc?$AAt?$AAo?$AAo?$AAl?$AAs?$AA?2?$AAc?$AAr?$AAt?$AA?2?$AAc?$AAr?$AAt?$AAw?$AA3?$AA2?$AA?2?$AAs?$AAt?$AAd?$AAi?$AAo?$AA?2?$AA_@ 10067c20     LIBCMTD:_getbuf.obj
 0002:0000ec74       ??_C@_0CJ@NMDFOMAF@f?3?2dd?2vctools?2crt?2crtw32?2stdio?2_@ 10067c74     LIBCMTD:_getbuf.obj
 0002:0000eca0       ??_C@_0CJ@JJMAJPPG@f?3?2dd?2vctools?2crt?2crtw32?2misc?2in@ 10067ca0     LIBCMTD:initctyp.obj
 0002:0000ecd0       ??_C@_1FC@OGCCCEID@?$AAf?$AA?3?$AA?2?$AAd?$AAd?$AA?2?$AAv?$AAc?$AAt?$AAo?$AAo?$AAl?$AAs?$AA?2?$AAc?$AAr?$AAt?$AA?2?$AAc?$AAr?$AAt?$AAw?$AA3?$AA2?$AA?2?$AAm?$AAi?$AAs?$AAc?$AA?2?$AAi?$AAn@ 10067cd0     LIBCMTD:initctyp.obj
 0002:0000ed24       ??_C@_1DG@NMBGBDM@?$AAp?$AAl?$AAo?$AAc?$AAi?$AA?9?$AA?$DO?$AAc?$AAt?$AAy?$AAp?$AAe?$AA1?$AA_?$AAr?$AAe?$AAf?$AAc?$AAo?$AAu?$AAn?$AAt?$AA?5?$AA?$DO?$AA?5?$AA0?$AA?$AA@ 10067d24     LIBCMTD:initctyp.obj
 0002:0000ed5c       ??_C@_1BK@GDEKGMNC@?$AA_?$AAw?$AAo?$AAu?$AAt?$AAp?$AAu?$AAt?$AA_?$AAp?$AA_?$AAl?$AA?$AA@ 10067d5c     LIBCMTD:woutputp.obj
 0002:0000ed78       ??_C@_1BK@ONMFGLDB@?$AA_?$AAw?$AAo?$AAu?$AAt?$AAp?$AAu?$AAt?$AA_?$AAs?$AA_?$AAl?$AA?$AA@ 10067d78     LIBCMTD:woutputs.obj
 0002:0000ed98       ??_C@_1FA@MCFBMFHP@?$AAf?$AA?3?$AA?2?$AAd?$AAd?$AA?2?$AAv?$AAc?$AAt?$AAo?$AAo?$AAl?$AAs?$AA?2?$AAc?$AAr?$AAt?$AA?2?$AAc?$AAr?$AAt?$AAw?$AA3?$AA2?$AA?2?$AAs?$AAt?$AAd?$AAi?$AAo?$AA?2?$AAf@ 10067d98     LIBCMTD:fputwc.obj
 0002:0000ede8       ??_C@_1O@HJNPHHHB@?$AAf?$AAp?$AAu?$AAt?$AAw?$AAc?$AA?$AA@ 10067de8     LIBCMTD:fputwc.obj
 0002:0000edf8       ??_C@_1NC@EINCOKCO@?$AA_?$AAl?$AAo?$AAc?$AA_?$AAu?$AAp?$AAd?$AAa?$AAt?$AAe?$AA?4?$AAG?$AAe?$AAt?$AAL?$AAo?$AAc?$AAa?$AAl?$AAe?$AAT?$AA?$CI?$AA?$CJ?$AA?9?$AA?$DO?$AAl?$AAo?$AAc?$AAi?$AAn?$AAf@ 10067df8     LIBCMTD:mbtowc.obj
 0002:0000eed0       ??_C@_1FE@EKLDGEI@?$AAf?$AA?3?$AA?2?$AAd?$AAd?$AA?2?$AAv?$AAc?$AAt?$AAo?$AAo?$AAl?$AAs?$AA?2?$AAc?$AAr?$AAt?$AA?2?$AAc?$AAr?$AAt?$AAw?$AA3?$AA2?$AA?2?$AAc?$AAo?$AAn?$AAv?$AAe?$AAr?$AAt@ 10067ed0     LIBCMTD:mbtowc.obj
 0002:0000ef24       ??_C@_1CA@MBDBOHIB@?$AA_?$AAL?$AAo?$AAc?$AAa?$AAl?$AAe?$AA?5?$AA?$CB?$AA?$DN?$AA?5?$AAN?$AAU?$AAL?$AAL?$AA?$AA@ 10067f24     LIBCMTD:strgtold.obj
 0002:0000ef48       ??_C@_1FO@OFJNJPKB@?$AAf?$AA?3?$AA?2?$AAd?$AAd?$AA?2?$AAv?$AAc?$AAt?$AAo?$AAo?$AAl?$AAs?$AA?2?$AAc?$AAr?$AAt?$AA?2?$AAf?$AAp?$AAw?$AA3?$AA2?$AA?2?$AAi?$AAn?$AAc?$AAl?$AAu?$AAd?$AAe?$AA?2@ 10067f48     LIBCMTD:strgtold.obj
 0002:0000efa8       ??_C@_1BO@IHLJHOPI@?$AA_?$AA_?$AAs?$AAt?$AAr?$AAg?$AAt?$AAo?$AAl?$AAd?$AA1?$AA2?$AA_?$AAl?$AA?$AA@ 10067fa8     LIBCMTD:strgtold.obj
 0002:0000efc8       ??_C@_1EO@IKHIJFCK@?$AAf?$AA?3?$AA?2?$AAd?$AAd?$AA?2?$AAv?$AAc?$AAt?$AAo?$AAo?$AAl?$AAs?$AA?2?$AAc?$AAr?$AAt?$AA?2?$AAf?$AAp?$AAw?$AA3?$AA2?$AA?2?$AAc?$AAo?$AAn?$AAv?$AA?2?$AAx?$AA1?$AA0@ 10067fc8     LIBCMTD:x10fout.obj
 0002:0000f018       ??_C@_1BI@ELMAAFLN@?$AA$?$AAI?$AA1?$AA0?$AA_?$AAO?$AAU?$AAT?$AAP?$AAU?$AAT?$AA?$AA@ 10068018     LIBCMTD:x10fout.obj
 0002:0000f030       ??_C@_1EG@CDDBFNOB@?$AAs?$AAt?$AAr?$AAc?$AAp?$AAy?$AA_?$AAs?$AA?$CI?$AAf?$AAo?$AAs?$AA?9?$AA?$DO?$AAm?$AAa?$AAn?$AA?0?$AA?5?$AA2?$AA1?$AA?$CL?$AA1?$AA?0?$AA?5?$AA?$CC?$AA1?$AA?$CD?$AAS?$AAN?$AAA?$AAN@ 10068030     LIBCMTD:x10fout.obj
 0002:0000f078       ??_C@_06PGGFOGJG@1?$CDSNAN?$AA@ 10068078     LIBCMTD:x10fout.obj
 0002:0000f080       ??_C@_1EE@MADEBIHF@?$AAs?$AAt?$AAr?$AAc?$AAp?$AAy?$AA_?$AAs?$AA?$CI?$AAf?$AAo?$AAs?$AA?9?$AA?$DO?$AAm?$AAa?$AAn?$AA?0?$AA?5?$AA2?$AA1?$AA?$CL?$AA1?$AA?0?$AA?5?$AA?$CC?$AA1?$AA?$CD?$AAI?$AAN?$AAD?$AA?$CC@ 10068080     LIBCMTD:x10fout.obj
 0002:0000f0c4       ??_C@_05PHHOCPM@1?$CDIND?$AA@ 100680c4     LIBCMTD:x10fout.obj
 0002:0000f0d0       ??_C@_1EE@ICBBBPAI@?$AAs?$AAt?$AAr?$AAc?$AAp?$AAy?$AA_?$AAs?$AA?$CI?$AAf?$AAo?$AAs?$AA?9?$AA?$DO?$AAm?$AAa?$AAn?$AA?0?$AA?5?$AA2?$AA1?$AA?$CL?$AA1?$AA?0?$AA?5?$AA?$CC?$AA1?$AA?$CD?$AAI?$AAN?$AAF?$AA?$CC@ 100680d0     LIBCMTD:x10fout.obj
 0002:0000f114       ??_C@_05DNEBIAHO@1?$CDINF?$AA@ 10068114     LIBCMTD:x10fout.obj
 0002:0000f120       ??_C@_1EG@MCFPJJEM@?$AAs?$AAt?$AAr?$AAc?$AAp?$AAy?$AA_?$AAs?$AA?$CI?$AAf?$AAo?$AAs?$AA?9?$AA?$DO?$AAm?$AAa?$AAn?$AA?0?$AA?5?$AA2?$AA1?$AA?$CL?$AA1?$AA?0?$AA?5?$AA?$CC?$AA1?$AA?$CD?$AAQ?$AAN?$AAA?$AAN@ 10068120     LIBCMTD:x10fout.obj
 0002:0000f168       ??_C@_06IMKFLFPG@1?$CDQNAN?$AA@ 10068168     LIBCMTD:x10fout.obj
 0002:0000f170       ?commonFlags@?1??_control87@@9@9 10068170     LIBCMTD:ieee87.obj
 0002:0000f178       ??_C@_1FG@DINMPAPJ@?$AAf?$AA?3?$AA?2?$AAd?$AAd?$AA?2?$AAv?$AAc?$AAt?$AAo?$AAo?$AAl?$AAs?$AA?2?$AAc?$AAr?$AAt?$AA?2?$AAf?$AAp?$AAw?$AA3?$AA2?$AA?2?$AAt?$AAr?$AAa?$AAn?$AA?2?$AAi?$AA3?$AA8@ 10068178     LIBCMTD:ieee87.obj
 0002:0000f1d0       ??_C@_1BO@OFDNCLL@?$AA_?$AAs?$AAe?$AAt?$AA_?$AAc?$AAo?$AAn?$AAt?$AAr?$AAo?$AAl?$AAf?$AAp?$AA?$AA@ 100681d0     LIBCMTD:ieee87.obj
 0002:0000f1f0       ??_C@_1GO@OKJGOMCB@?$AA_?$AAc?$AAo?$AAn?$AAt?$AAr?$AAo?$AAl?$AAf?$AAp?$AA_?$AAs?$AA?$CI?$AA?$CI?$AA?$CI?$AAv?$AAo?$AAi?$AAd?$AA?5?$AA?$CK?$AA?$CJ?$AA0?$AA?$CJ?$AA?0?$AA?5?$AAn?$AAe?$AAw?$AAc?$AAt?$AAr@ 100681f0     LIBCMTD:ieee87.obj
 0002:0000f260       ___rg_language             10068260     LIBCMTD:getqloc.obj
 0002:0000f56c       ??_C@_1BC@LLOKLNP@?$AAa?$AAm?$AAe?$AAr?$AAi?$AAc?$AAa?$AAn?$AA?$AA@ 1006856c     LIBCMTD:getqloc.obj
 0002:0000f580       ??_C@_1CC@HEIGCDGG@?$AAa?$AAm?$AAe?$AAr?$AAi?$AAc?$AAa?$AAn?$AA?5?$AAe?$AAn?$AAg?$AAl?$AAi?$AAs?$AAh?$AA?$AA@ 10068580     LIBCMTD:getqloc.obj
 0002:0000f5a4       ??_C@_1CC@IHCNOMIN@?$AAa?$AAm?$AAe?$AAr?$AAi?$AAc?$AAa?$AAn?$AA?9?$AAe?$AAn?$AAg?$AAl?$AAi?$AAs?$AAh?$AA?$AA@ 100685a4     LIBCMTD:getqloc.obj
 0002:0000f5c8       ??_C@_1BG@GKAGPCGG@?$AAa?$AAu?$AAs?$AAt?$AAr?$AAa?$AAl?$AAi?$AAa?$AAn?$AA?$AA@ 100685c8     LIBCMTD:getqloc.obj
 0002:0000f5e0       ??_C@_1BA@GMENCENF@?$AAb?$AAe?$AAl?$AAg?$AAi?$AAa?$AAn?$AA?$AA@ 100685e0     LIBCMTD:getqloc.obj
 0002:0000f5f0       ??_C@_1BC@PJMIIAAN@?$AAc?$AAa?$AAn?$AAa?$AAd?$AAi?$AAa?$AAn?$AA?$AA@ 100685f0     LIBCMTD:getqloc.obj
 0002:0000f604       ??_C@_17NOIMNFBF@?$AAc?$AAh?$AAh?$AA?$AA@ 10068604     LIBCMTD:getqloc.obj
 0002:0000f60c       ??_C@_17GGDALCHA@?$AAc?$AAh?$AAi?$AA?$AA@ 1006860c     LIBCMTD:getqloc.obj
 0002:0000f614       ??_C@_1BA@NPNJKIBL@?$AAc?$AAh?$AAi?$AAn?$AAe?$AAs?$AAe?$AA?$AA@ 10068614     LIBCMTD:getqloc.obj
 0002:0000f624       ??_C@_1CC@DINBAMMJ@?$AAc?$AAh?$AAi?$AAn?$AAe?$AAs?$AAe?$AA?9?$AAh?$AAo?$AAn?$AAg?$AAk?$AAo?$AAn?$AAg?$AA?$AA@ 10068624     LIBCMTD:getqloc.obj
 0002:0000f648       ??_C@_1CG@IOBJPACO@?$AAc?$AAh?$AAi?$AAn?$AAe?$AAs?$AAe?$AA?9?$AAs?$AAi?$AAm?$AAp?$AAl?$AAi?$AAf?$AAi?$AAe?$AAd?$AA?$AA@ 10068648     LIBCMTD:getqloc.obj
 0002:0000f670       ??_C@_1CE@GAJNDCKG@?$AAc?$AAh?$AAi?$AAn?$AAe?$AAs?$AAe?$AA?9?$AAs?$AAi?$AAn?$AAg?$AAa?$AAp?$AAo?$AAr?$AAe?$AA?$AA@ 10068670     LIBCMTD:getqloc.obj
 0002:0000f694       ??_C@_1CI@PAJPIOOD@?$AAc?$AAh?$AAi?$AAn?$AAe?$AAs?$AAe?$AA?9?$AAt?$AAr?$AAa?$AAd?$AAi?$AAt?$AAi?$AAo?$AAn?$AAa?$AAl?$AA?$AA@ 10068694     LIBCMTD:getqloc.obj
 0002:0000f6bc       ??_C@_1BM@NILJBMMD@?$AAd?$AAu?$AAt?$AAc?$AAh?$AA?9?$AAb?$AAe?$AAl?$AAg?$AAi?$AAa?$AAn?$AA?$AA@ 100686bc     LIBCMTD:getqloc.obj
 0002:0000f6d8       ??_C@_1CC@OOJPJNEJ@?$AAe?$AAn?$AAg?$AAl?$AAi?$AAs?$AAh?$AA?9?$AAa?$AAm?$AAe?$AAr?$AAi?$AAc?$AAa?$AAn?$AA?$AA@ 100686d8     LIBCMTD:getqloc.obj
 0002:0000f6fc       ??_C@_1BI@IOLFEEM@?$AAe?$AAn?$AAg?$AAl?$AAi?$AAs?$AAh?$AA?9?$AAa?$AAu?$AAs?$AA?$AA@ 100686fc     LIBCMTD:getqloc.obj
 0002:0000f714       ??_C@_1BO@HFFNLENJ@?$AAe?$AAn?$AAg?$AAl?$AAi?$AAs?$AAh?$AA?9?$AAb?$AAe?$AAl?$AAi?$AAz?$AAe?$AA?$AA@ 10068714     LIBCMTD:getqloc.obj
 0002:0000f734       ??_C@_1BI@HAPKJMPO@?$AAe?$AAn?$AAg?$AAl?$AAi?$AAs?$AAh?$AA?9?$AAc?$AAa?$AAn?$AA?$AA@ 10068734     LIBCMTD:getqloc.obj
 0002:0000f74c       ??_C@_1CE@HLNDMIOJ@?$AAe?$AAn?$AAg?$AAl?$AAi?$AAs?$AAh?$AA?9?$AAc?$AAa?$AAr?$AAi?$AAb?$AAb?$AAe?$AAa?$AAn?$AA?$AA@ 1006874c     LIBCMTD:getqloc.obj
 0002:0000f770       ??_C@_1BI@LDHJHHAC@?$AAe?$AAn?$AAg?$AAl?$AAi?$AAs?$AAh?$AA?9?$AAi?$AAr?$AAe?$AA?$AA@ 10068770     LIBCMTD:getqloc.obj
 0002:0000f788       ??_C@_1CA@NJMMCFOC@?$AAe?$AAn?$AAg?$AAl?$AAi?$AAs?$AAh?$AA?9?$AAj?$AAa?$AAm?$AAa?$AAi?$AAc?$AAa?$AA?$AA@ 10068788     LIBCMTD:getqloc.obj
 0002:0000f7a8       ??_C@_1BG@BHJEBBGG@?$AAe?$AAn?$AAg?$AAl?$AAi?$AAs?$AAh?$AA?9?$AAn?$AAz?$AA?$AA@ 100687a8     LIBCMTD:getqloc.obj
 0002:0000f7c0       ??_C@_1CK@FGOEJJCO@?$AAe?$AAn?$AAg?$AAl?$AAi?$AAs?$AAh?$AA?9?$AAs?$AAo?$AAu?$AAt?$AAh?$AA?5?$AAa?$AAf?$AAr?$AAi?$AAc?$AAa?$AA?$AA@ 100687c0     LIBCMTD:getqloc.obj
 0002:0000f7ec       ??_C@_1DE@PDBJPCJ@?$AAe?$AAn?$AAg?$AAl?$AAi?$AAs?$AAh?$AA?9?$AAt?$AAr?$AAi?$AAn?$AAi?$AAd?$AAa?$AAd?$AA?5?$AAy?$AA?5?$AAt?$AAo?$AAb?$AAa?$AAg?$AAo?$AA?$AA@ 100687ec     LIBCMTD:getqloc.obj
 0002:0000f820       ??_C@_1BG@JGCANDME@?$AAe?$AAn?$AAg?$AAl?$AAi?$AAs?$AAh?$AA?9?$AAu?$AAk?$AA?$AA@ 10068820     LIBCMTD:getqloc.obj
 0002:0000f838       ??_C@_1BG@DINKMLE@?$AAe?$AAn?$AAg?$AAl?$AAi?$AAs?$AAh?$AA?9?$AAu?$AAs?$AA?$AA@ 10068838     LIBCMTD:getqloc.obj
 0002:0000f850       ??_C@_1BI@NMFDBHJE@?$AAe?$AAn?$AAg?$AAl?$AAi?$AAs?$AAh?$AA?9?$AAu?$AAs?$AAa?$AA?$AA@ 10068850     LIBCMTD:getqloc.obj
 0002:0000f868       ??_C@_1BO@OIHKJKII@?$AAf?$AAr?$AAe?$AAn?$AAc?$AAh?$AA?9?$AAb?$AAe?$AAl?$AAg?$AAi?$AAa?$AAn?$AA?$AA@ 10068868     LIBCMTD:getqloc.obj
 0002:0000f888       ??_C@_1CA@NKAELJKI@?$AAf?$AAr?$AAe?$AAn?$AAc?$AAh?$AA?9?$AAc?$AAa?$AAn?$AAa?$AAd?$AAi?$AAa?$AAn?$AA?$AA@ 10068888     LIBCMTD:getqloc.obj
 0002:0000f8a8       ??_C@_1CE@MGKCNLGN@?$AAf?$AAr?$AAe?$AAn?$AAc?$AAh?$AA?9?$AAl?$AAu?$AAx?$AAe?$AAm?$AAb?$AAo?$AAu?$AAr?$AAg?$AA?$AA@ 100688a8     LIBCMTD:getqloc.obj
 0002:0000f8cc       ??_C@_1BK@CEGEAILM@?$AAf?$AAr?$AAe?$AAn?$AAc?$AAh?$AA?9?$AAs?$AAw?$AAi?$AAs?$AAs?$AA?$AA@ 100688cc     LIBCMTD:getqloc.obj
 0002:0000f8e8       ??_C@_1CA@PAFKEOCC@?$AAg?$AAe?$AAr?$AAm?$AAa?$AAn?$AA?9?$AAa?$AAu?$AAs?$AAt?$AAr?$AAi?$AAa?$AAn?$AA?$AA@ 100688e8     LIBCMTD:getqloc.obj
 0002:0000f908       ??_C@_1CI@HCFHGOFD@?$AAg?$AAe?$AAr?$AAm?$AAa?$AAn?$AA?9?$AAl?$AAi?$AAc?$AAh?$AAt?$AAe?$AAn?$AAs?$AAt?$AAe?$AAi?$AAn?$AA?$AA@ 10068908     LIBCMTD:getqloc.obj
 0002:0000f930       ??_C@_1CE@FEDDNPDG@?$AAg?$AAe?$AAr?$AAm?$AAa?$AAn?$AA?9?$AAl?$AAu?$AAx?$AAe?$AAm?$AAb?$AAo?$AAu?$AAr?$AAg?$AA?$AA@ 10068930     LIBCMTD:getqloc.obj
 0002:0000f954       ??_C@_1BK@LIMINNMN@?$AAg?$AAe?$AAr?$AAm?$AAa?$AAn?$AA?9?$AAs?$AAw?$AAi?$AAs?$AAs?$AA?$AA@ 10068954     LIBCMTD:getqloc.obj
 0002:0000f970       ??_C@_1BM@LGMDBEPD@?$AAi?$AAr?$AAi?$AAs?$AAh?$AA?9?$AAe?$AAn?$AAg?$AAl?$AAi?$AAs?$AAh?$AA?$AA@ 10068970     LIBCMTD:getqloc.obj
 0002:0000f98c       ??_C@_1BM@NNCFBAEE@?$AAi?$AAt?$AAa?$AAl?$AAi?$AAa?$AAn?$AA?9?$AAs?$AAw?$AAi?$AAs?$AAs?$AA?$AA@ 1006898c     LIBCMTD:getqloc.obj
 0002:0000f9a8       ??_C@_1BE@FEDJNPIB@?$AAn?$AAo?$AAr?$AAw?$AAe?$AAg?$AAi?$AAa?$AAn?$AA?$AA@ 100689a8     LIBCMTD:getqloc.obj
 0002:0000f9bc       ??_C@_1CC@CILKDEIE@?$AAn?$AAo?$AAr?$AAw?$AAe?$AAg?$AAi?$AAa?$AAn?$AA?9?$AAb?$AAo?$AAk?$AAm?$AAa?$AAl?$AA?$AA@ 100689bc     LIBCMTD:getqloc.obj
 0002:0000f9e0       ??_C@_1CE@DHMMHEPL@?$AAn?$AAo?$AAr?$AAw?$AAe?$AAg?$AAi?$AAa?$AAn?$AA?9?$AAn?$AAy?$AAn?$AAo?$AAr?$AAs?$AAk?$AA?$AA@ 100689e0     LIBCMTD:getqloc.obj
 0002:0000fa04       ??_C@_1CK@OPNMHECD@?$AAp?$AAo?$AAr?$AAt?$AAu?$AAg?$AAu?$AAe?$AAs?$AAe?$AA?9?$AAb?$AAr?$AAa?$AAz?$AAi?$AAl?$AAi?$AAa?$AAn?$AA?$AA@ 10068a04     LIBCMTD:getqloc.obj
 0002:0000fa30       ??_C@_1CE@KEEHCDB@?$AAs?$AAp?$AAa?$AAn?$AAi?$AAs?$AAh?$AA?9?$AAa?$AAr?$AAg?$AAe?$AAn?$AAt?$AAi?$AAn?$AAa?$AA?$AA@ 10068a30     LIBCMTD:getqloc.obj
 0002:0000fa54       ??_C@_1CA@GIAOLHJD@?$AAs?$AAp?$AAa?$AAn?$AAi?$AAs?$AAh?$AA?9?$AAb?$AAo?$AAl?$AAi?$AAv?$AAi?$AAa?$AA?$AA@ 10068a54     LIBCMTD:getqloc.obj
 0002:0000fa74       ??_C@_1BM@OJNDFNPD@?$AAs?$AAp?$AAa?$AAn?$AAi?$AAs?$AAh?$AA?9?$AAc?$AAh?$AAi?$AAl?$AAe?$AA?$AA@ 10068a74     LIBCMTD:getqloc.obj
 0002:0000fa90       ??_C@_1CC@OCOLPALL@?$AAs?$AAp?$AAa?$AAn?$AAi?$AAs?$AAh?$AA?9?$AAc?$AAo?$AAl?$AAo?$AAm?$AAb?$AAi?$AAa?$AA?$AA@ 10068a90     LIBCMTD:getqloc.obj
 0002:0000fab4       ??_C@_1CG@BPOFMKBB@?$AAs?$AAp?$AAa?$AAn?$AAi?$AAs?$AAh?$AA?9?$AAc?$AAo?$AAs?$AAt?$AAa?$AA?5?$AAr?$AAi?$AAc?$AAa?$AA?$AA@ 10068ab4     LIBCMTD:getqloc.obj
 0002:0000fadc       ??_C@_1DG@IGOBAPBB@?$AAs?$AAp?$AAa?$AAn?$AAi?$AAs?$AAh?$AA?9?$AAd?$AAo?$AAm?$AAi?$AAn?$AAi?$AAc?$AAa?$AAn?$AA?5?$AAr?$AAe?$AAp?$AAu?$AAb?$AAl?$AAi?$AAc?$AA?$AA@ 10068adc     LIBCMTD:getqloc.obj
 0002:0000fb14       ??_C@_1CA@JHAPGEGI@?$AAs?$AAp?$AAa?$AAn?$AAi?$AAs?$AAh?$AA?9?$AAe?$AAc?$AAu?$AAa?$AAd?$AAo?$AAr?$AA?$AA@ 10068b14     LIBCMTD:getqloc.obj
 0002:0000fb34       ??_C@_1CI@LAPALJPP@?$AAs?$AAp?$AAa?$AAn?$AAi?$AAs?$AAh?$AA?9?$AAe?$AAl?$AA?5?$AAs?$AAa?$AAl?$AAv?$AAa?$AAd?$AAo?$AAr?$AA?$AA@ 10068b34     LIBCMTD:getqloc.obj
 0002:0000fb5c       ??_C@_1CE@PDGBOFOM@?$AAs?$AAp?$AAa?$AAn?$AAi?$AAs?$AAh?$AA?9?$AAg?$AAu?$AAa?$AAt?$AAe?$AAm?$AAa?$AAl?$AAa?$AA?$AA@ 10068b5c     LIBCMTD:getqloc.obj
 0002:0000fb80       ??_C@_1CC@NBEBAODI@?$AAs?$AAp?$AAa?$AAn?$AAi?$AAs?$AAh?$AA?9?$AAh?$AAo?$AAn?$AAd?$AAu?$AAr?$AAa?$AAs?$AA?$AA@ 10068b80     LIBCMTD:getqloc.obj
 0002:0000fba4       ??_C@_1CA@LLKGHBMF@?$AAs?$AAp?$AAa?$AAn?$AAi?$AAs?$AAh?$AA?9?$AAm?$AAe?$AAx?$AAi?$AAc?$AAa?$AAn?$AA?$AA@ 10068ba4     LIBCMTD:getqloc.obj
 0002:0000fbc4       ??_C@_1BO@LKNDOIGD@?$AAs?$AAp?$AAa?$AAn?$AAi?$AAs?$AAh?$AA?9?$AAm?$AAo?$AAd?$AAe?$AAr?$AAn?$AA?$AA@ 10068bc4     LIBCMTD:getqloc.obj
 0002:0000fbe4       ??_C@_1CE@NMDMOEEB@?$AAs?$AAp?$AAa?$AAn?$AAi?$AAs?$AAh?$AA?9?$AAn?$AAi?$AAc?$AAa?$AAr?$AAa?$AAg?$AAu?$AAa?$AA?$AA@ 10068be4     LIBCMTD:getqloc.obj
 0002:0000fc08       ??_C@_1BO@LLCBEJGB@?$AAs?$AAp?$AAa?$AAn?$AAi?$AAs?$AAh?$AA?9?$AAp?$AAa?$AAn?$AAa?$AAm?$AAa?$AA?$AA@ 10068c08     LIBCMTD:getqloc.obj
 0002:0000fc28       ??_C@_1CC@FKPGGIHO@?$AAs?$AAp?$AAa?$AAn?$AAi?$AAs?$AAh?$AA?9?$AAp?$AAa?$AAr?$AAa?$AAg?$AAu?$AAa?$AAy?$AA?$AA@ 10068c28     LIBCMTD:getqloc.obj
 0002:0000fc4c       ??_C@_1BK@CDEIHOOP@?$AAs?$AAp?$AAa?$AAn?$AAi?$AAs?$AAh?$AA?9?$AAp?$AAe?$AAr?$AAu?$AA?$AA@ 10068c4c     LIBCMTD:getqloc.obj
 0002:0000fc68       ??_C@_1CI@GAHAKKGP@?$AAs?$AAp?$AAa?$AAn?$AAi?$AAs?$AAh?$AA?9?$AAp?$AAu?$AAe?$AAr?$AAt?$AAo?$AA?5?$AAr?$AAi?$AAc?$AAo?$AA?$AA@ 10068c68     LIBCMTD:getqloc.obj
 0002:0000fc90       ??_C@_1CA@NKJBCAGP@?$AAs?$AAp?$AAa?$AAn?$AAi?$AAs?$AAh?$AA?9?$AAu?$AAr?$AAu?$AAg?$AAu?$AAa?$AAy?$AA?$AA@ 10068c90     LIBCMTD:getqloc.obj
 0002:0000fcb0       ??_C@_1CE@ODILCONM@?$AAs?$AAp?$AAa?$AAn?$AAi?$AAs?$AAh?$AA?9?$AAv?$AAe?$AAn?$AAe?$AAz?$AAu?$AAe?$AAl?$AAa?$AA?$AA@ 10068cb0     LIBCMTD:getqloc.obj
 0002:0000fcd4       ??_C@_1CA@OBNMCGFO@?$AAs?$AAw?$AAe?$AAd?$AAi?$AAs?$AAh?$AA?9?$AAf?$AAi?$AAn?$AAl?$AAa?$AAn?$AAd?$AA?$AA@ 10068cd4     LIBCMTD:getqloc.obj
 0002:0000fcf4       ??_C@_1M@PIPDDPPI@?$AAs?$AAw?$AAi?$AAs?$AAs?$AA?$AA@ 10068cf4     LIBCMTD:getqloc.obj
 0002:0000fd00       ??_C@_15GMFIMNFM@?$AAu?$AAs?$AA?$AA@ 10068d00     LIBCMTD:getqloc.obj
 0002:0000fd08       ??_C@_17HAEBFAGL@?$AAu?$AAs?$AAa?$AA?$AA@ 10068d08     LIBCMTD:getqloc.obj
 0002:0000fd10       ___rg_country              10068d10     LIBCMTD:getqloc.obj
 0002:0000fe24       ??_C@_1BA@DPFJEPHB@?$AAa?$AAm?$AAe?$AAr?$AAi?$AAc?$AAa?$AA?$AA@ 10068e24     LIBCMTD:getqloc.obj
 0002:0000fe34       ??_C@_1BA@ELOGGFK@?$AAb?$AAr?$AAi?$AAt?$AAa?$AAi?$AAn?$AA?$AA@ 10068e34     LIBCMTD:getqloc.obj
 0002:0000fe44       ??_C@_1M@GHBGIGDA@?$AAc?$AAh?$AAi?$AAn?$AAa?$AA?$AA@ 10068e44     LIBCMTD:getqloc.obj
 0002:0000fe50       ??_C@_1M@NCHEJOPO@?$AAc?$AAz?$AAe?$AAc?$AAh?$AA?$AA@ 10068e50     LIBCMTD:getqloc.obj
 0002:0000fe5c       ??_C@_1BA@BKPAPBLA@?$AAe?$AAn?$AAg?$AAl?$AAa?$AAn?$AAd?$AA?$AA@ 10068e5c     LIBCMTD:getqloc.obj
 0002:0000fe6c       ??_C@_1BM@HKBCKIPC@?$AAg?$AAr?$AAe?$AAa?$AAt?$AA?5?$AAb?$AAr?$AAi?$AAt?$AAa?$AAi?$AAn?$AA?$AA@ 10068e6c     LIBCMTD:getqloc.obj
 0002:0000fe88       ??_C@_1BA@PPCHPGJB@?$AAh?$AAo?$AAl?$AAl?$AAa?$AAn?$AAd?$AA?$AA@ 10068e88     LIBCMTD:getqloc.obj
 0002:0000fe98       ??_C@_1BE@JBMPEGDG@?$AAh?$AAo?$AAn?$AAg?$AA?9?$AAk?$AAo?$AAn?$AAg?$AA?$AA@ 10068e98     LIBCMTD:getqloc.obj
 0002:0000feac       ??_C@_1BI@KOELBBPJ@?$AAn?$AAe?$AAw?$AA?9?$AAz?$AAe?$AAa?$AAl?$AAa?$AAn?$AAd?$AA?$AA@ 10068eac     LIBCMTD:getqloc.obj
 0002:0000fec4       ??_C@_15HIEBHAIO@?$AAn?$AAz?$AA?$AA@ 10068ec4     LIBCMTD:getqloc.obj
 0002:0000fecc       ??_C@_1BC@CHBCPFPI@?$AAp?$AAr?$AA?5?$AAc?$AAh?$AAi?$AAn?$AAa?$AA?$AA@ 10068ecc     LIBCMTD:getqloc.obj
 0002:0000fee0       ??_C@_1BC@JAOIIFKD@?$AAp?$AAr?$AA?9?$AAc?$AAh?$AAi?$AAn?$AAa?$AA?$AA@ 10068ee0     LIBCMTD:getqloc.obj
 0002:0000fef4       ??_C@_1BI@BEHPPHKC@?$AAp?$AAu?$AAe?$AAr?$AAt?$AAo?$AA?9?$AAr?$AAi?$AAc?$AAo?$AA?$AA@ 10068ef4     LIBCMTD:getqloc.obj
 0002:0000ff0c       ??_C@_1O@PAEOFKDI@?$AAs?$AAl?$AAo?$AAv?$AAa?$AAk?$AA?$AA@ 10068f0c     LIBCMTD:getqloc.obj
 0002:0000ff1c       ??_C@_1BK@FIHMCKAM@?$AAs?$AAo?$AAu?$AAt?$AAh?$AA?5?$AAa?$AAf?$AAr?$AAi?$AAc?$AAa?$AA?$AA@ 10068f1c     LIBCMTD:getqloc.obj
 0002:0000ff38       ??_C@_1BI@NAEOODKB@?$AAs?$AAo?$AAu?$AAt?$AAh?$AA?5?$AAk?$AAo?$AAr?$AAe?$AAa?$AA?$AA@ 10068f38     LIBCMTD:getqloc.obj
 0002:0000ff50       ??_C@_1BK@FBDGGIFF@?$AAs?$AAo?$AAu?$AAt?$AAh?$AA?9?$AAa?$AAf?$AAr?$AAi?$AAc?$AAa?$AA?$AA@ 10068f50     LIBCMTD:getqloc.obj
 0002:0000ff6c       ??_C@_1BI@GHLEJDPK@?$AAs?$AAo?$AAu?$AAt?$AAh?$AA?9?$AAk?$AAo?$AAr?$AAe?$AAa?$AA?$AA@ 10068f6c     LIBCMTD:getqloc.obj
 0002:0000ff84       ??_C@_1CE@PLHLOMJF@?$AAt?$AAr?$AAi?$AAn?$AAi?$AAd?$AAa?$AAd?$AA?5?$AA?$CG?$AA?5?$AAt?$AAo?$AAb?$AAa?$AAg?$AAo?$AA?$AA@ 10068f84     LIBCMTD:getqloc.obj
 0002:0000ffa8       ??_C@_1BO@MODIMHHI@?$AAu?$AAn?$AAi?$AAt?$AAe?$AAd?$AA?9?$AAk?$AAi?$AAn?$AAg?$AAd?$AAo?$AAm?$AA?$AA@ 10068fa8     LIBCMTD:getqloc.obj
 0002:0000ffc8       ??_C@_1BM@FFHJONBJ@?$AAu?$AAn?$AAi?$AAt?$AAe?$AAd?$AA?9?$AAs?$AAt?$AAa?$AAt?$AAe?$AAs?$AA?$AA@ 10068fc8     LIBCMTD:getqloc.obj
 0002:0000ffe4       ___rg_language_count       10068fe4     LIBCMTD:getqloc.obj
 0002:0000ffe8       ___rg_country_count        10068fe8     LIBCMTD:getqloc.obj
 0002:0000fff0       ??_C@_1FA@KCJCBMIG@?$AAf?$AA?3?$AA?2?$AAd?$AAd?$AA?2?$AAv?$AAc?$AAt?$AAo?$AAo?$AAl?$AAs?$AA?2?$AAc?$AAr?$AAt?$AA?2?$AAc?$AAr?$AAt?$AAw?$AA3?$AA2?$AA?2?$AAm?$AAi?$AAs?$AAc?$AA?2?$AAg?$AAe@ 10068ff0     LIBCMTD:getqloc.obj
 0002:00010040       ??_C@_1CO@NJACLALJ@?$AA_?$AA_?$AAg?$AAe?$AAt?$AA_?$AAq?$AAu?$AAa?$AAl?$AAi?$AAf?$AAi?$AAe?$AAd?$AA_?$AAl?$AAo?$AAc?$AAa?$AAl?$AAe?$AA?$AA@ 10069040     LIBCMTD:getqloc.obj
 0002:00010070       ??_C@_1BGM@FCCPEFDE@?$AAw?$AAc?$AAs?$AAn?$AAc?$AAp?$AAy?$AA_?$AAs?$AA?$CI?$AAl?$AAp?$AAO?$AAu?$AAt?$AAS?$AAt?$AAr?$AA?9?$AA?$DO?$AAs?$AAz?$AAL?$AAo?$AAc?$AAa?$AAl?$AAe?$AAN?$AAa?$AAm?$AAe@ 10069070     LIBCMTD:getqloc.obj
 0002:000101dc       ??_C@_1CM@OGEMFJNJ@?$AAL?$AAa?$AAn?$AAg?$AAC?$AAo?$AAu?$AAn?$AAt?$AAr?$AAy?$AAE?$AAn?$AAu?$AAm?$AAP?$AAr?$AAo?$AAc?$AAE?$AAx?$AA?$AA@ 100691dc     LIBCMTD:getqloc.obj
 0002:00010208       ??_C@_1BFO@LLJKJAIC@?$AAw?$AAc?$AAs?$AAn?$AAc?$AAp?$AAy?$AA_?$AAs?$AA?$CI?$AA_?$AAp?$AAs?$AAe?$AAt?$AAl?$AAo?$AAc?$AA_?$AAd?$AAa?$AAt?$AAa?$AA?9?$AA?$DO?$AA_?$AAc?$AAa?$AAc?$AAh?$AAe?$AAL@ 10069208     LIBCMTD:getqloc.obj
 0002:00010368       ??_C@_1CG@PGLLICHO@?$AAL?$AAa?$AAn?$AAg?$AAu?$AAa?$AAg?$AAe?$AAE?$AAn?$AAu?$AAm?$AAP?$AAr?$AAo?$AAc?$AAE?$AAx?$AA?$AA@ 10069368     LIBCMTD:getqloc.obj
 0002:00010390       ??_C@_1DC@CPKFANGP@?$AAG?$AAe?$AAt?$AAL?$AAo?$AAc?$AAa?$AAl?$AAe?$AAN?$AAa?$AAm?$AAe?$AAF?$AAr?$AAo?$AAm?$AAD?$AAe?$AAf?$AAa?$AAu?$AAl?$AAt?$AA?$AA@ 10069390     LIBCMTD:getqloc.obj
 0002:000103c8       ??_C@_1BEO@EJBNGKHB@?$AAw?$AAc?$AAs?$AAn?$AAc?$AAp?$AAy?$AA_?$AAs?$AA?$CI?$AA_?$AAp?$AAs?$AAe?$AAt?$AAl?$AAo?$AAc?$AA_?$AAd?$AAa?$AAt?$AAa?$AA?9?$AA?$DO?$AA_?$AAc?$AAa?$AAc?$AAh?$AAe?$AAL@ 100693c8     LIBCMTD:getqloc.obj
 0002:00010518       ??_C@_17DNCLJFIF@?$AAA?$AAC?$AAP?$AA?$AA@ 10069518     LIBCMTD:getqloc.obj
 0002:00010520       ??_C@_17CIKBIHLH@?$AAO?$AAC?$AAP?$AA?$AA@ 10069520     LIBCMTD:getqloc.obj
 0002:00010528       ___rglangidNotDefault      10069528     LIBCMTD:getqloc_downlevel.obj
 0002:00010540       ??_C@_1EO@EJLBBGEB@?$AAf?$AA?3?$AA?2?$AAd?$AAd?$AA?2?$AAv?$AAc?$AAt?$AAo?$AAo?$AAl?$AAs?$AA?2?$AAc?$AAr?$AAt?$AA?2?$AAc?$AAr?$AAt?$AAw?$AA3?$AA2?$AA?2?$AAl?$AAo?$AAw?$AAi?$AAo?$AA?2?$AAc@ 10069540     LIBCMTD:close.obj
 0002:00010590       ??_C@_1O@EDEJGJBM@?$AA_?$AAc?$AAl?$AAo?$AAs?$AAe?$AA?$AA@ 10069590     LIBCMTD:close.obj
 0002:000105a0       ??_C@_1BO@KIJENGPH@?$AAs?$AAt?$AAr?$AAe?$AAa?$AAm?$AA?5?$AA?$CB?$AA?$DN?$AA?5?$AAN?$AAU?$AAL?$AAL?$AA?$AA@ 100695a0     LIBCMTD:_freebuf.obj
 0002:000105c0       ??_C@_1FE@DBCNNJOP@?$AAf?$AA?3?$AA?2?$AAd?$AAd?$AA?2?$AAv?$AAc?$AAt?$AAo?$AAo?$AAl?$AAs?$AA?2?$AAc?$AAr?$AAt?$AA?2?$AAc?$AAr?$AAt?$AAw?$AA3?$AA2?$AA?2?$AAs?$AAt?$AAd?$AAi?$AAo?$AA?2?$AA_@ 100695c0     LIBCMTD:_freebuf.obj
 0002:00010614       ??_C@_0CJ@IGOJMKM@f?3?2dd?2vctools?2crt?2crtw32?2lowio?2o@ 10069614     LIBCMTD:osfinfo.obj
 0002:00010640       ??_C@_1FC@BEKMGBFL@?$AAf?$AA?3?$AA?2?$AAd?$AAd?$AA?2?$AAv?$AAc?$AAt?$AAo?$AAo?$AAl?$AAs?$AA?2?$AAc?$AAr?$AAt?$AA?2?$AAc?$AAr?$AAt?$AAw?$AA3?$AA2?$AA?2?$AAl?$AAo?$AAw?$AAi?$AAo?$AA?2?$AAo@ 10069640     LIBCMTD:osfinfo.obj
 0002:00010694       ??_C@_1BO@EMBOBGKE@?$AA_?$AAg?$AAe?$AAt?$AA_?$AAo?$AAs?$AAf?$AAh?$AAa?$AAn?$AAd?$AAl?$AAe?$AA?$AA@ 10069694     LIBCMTD:osfinfo.obj
 0002:000106b8       ??_C@_1FE@GDPLAOMM@?$AAf?$AA?3?$AA?2?$AAd?$AAd?$AA?2?$AAv?$AAc?$AAt?$AAo?$AAo?$AAl?$AAs?$AA?2?$AAc?$AAr?$AAt?$AA?2?$AAc?$AAr?$AAt?$AAw?$AA3?$AA2?$AA?2?$AAc?$AAo?$AAn?$AAv?$AAe?$AAr?$AAt@ 100696b8     LIBCMTD:wcstol.obj
 0002:0001070c       ??_C@_1BA@PCFLFGNC@?$AAw?$AAc?$AAs?$AAt?$AAo?$AAx?$AAl?$AA?$AA@ 1006970c     LIBCMTD:wcstol.obj
 0002:00010720       ??_C@_1FE@JDMNKKN@?$AAf?$AA?3?$AA?2?$AAd?$AAd?$AA?2?$AAv?$AAc?$AAt?$AAo?$AAo?$AAl?$AAs?$AA?2?$AAc?$AAr?$AAt?$AA?2?$AAc?$AAr?$AAt?$AAw?$AA3?$AA2?$AA?2?$AAc?$AAo?$AAn?$AAv?$AAe?$AAr?$AAt@ 10069720     LIBCMTD:strtoq.obj
 0002:00010774       ??_C@_1BA@BMMDEPNE@?$AAs?$AAt?$AAr?$AAt?$AAo?$AAx?$AAq?$AA?$AA@ 10069774     LIBCMTD:strtoq.obj
 0002:00010788       ??_C@_1FE@NDFDLJMJ@?$AAf?$AA?3?$AA?2?$AAd?$AAd?$AA?2?$AAv?$AAc?$AAt?$AAo?$AAo?$AAl?$AAs?$AA?2?$AAc?$AAr?$AAt?$AA?2?$AAc?$AAr?$AAt?$AAw?$AA3?$AA2?$AA?2?$AAs?$AAt?$AAr?$AAi?$AAn?$AAg?$AA?2@ 10069788     LIBCMTD:wcsicmp.obj
 0002:000107dc       ??_C@_1BG@EELGPCPD@?$AA_?$AAw?$AAc?$AAs?$AAi?$AAc?$AAm?$AAp?$AA_?$AAl?$AA?$AA@ 100697dc     LIBCMTD:wcsicmp.obj
 0002:000107f4       ??_C@_1BC@NHIBDOMC@?$AA_?$AAw?$AAc?$AAs?$AAi?$AAc?$AAm?$AAp?$AA?$AA@ 100697f4     LIBCMTD:wcsicmp.obj
 0002:00010808       ??_C@_1BM@CBACDFHA@?$AAf?$AAi?$AAr?$AAs?$AAt?$AA?5?$AA?$CB?$AA?$DN?$AA?5?$AAN?$AAU?$AAL?$AAL?$AA?$AA@ 10069808     LIBCMTD:wcsnicmp.obj
 0002:00010828       ??_C@_1FG@GGNDOPHP@?$AAf?$AA?3?$AA?2?$AAd?$AAd?$AA?2?$AAv?$AAc?$AAt?$AAo?$AAo?$AAl?$AAs?$AA?2?$AAc?$AAr?$AAt?$AA?2?$AAc?$AAr?$AAt?$AAw?$AA3?$AA2?$AA?2?$AAs?$AAt?$AAr?$AAi?$AAn?$AAg?$AA?2@ 10069828     LIBCMTD:wcsnicmp.obj
 0002:00010880       ??_C@_1BI@KLMFNDBC@?$AA_?$AAw?$AAc?$AAs?$AAn?$AAi?$AAc?$AAm?$AAp?$AA_?$AAl?$AA?$AA@ 10069880     LIBCMTD:wcsnicmp.obj
 0002:00010898       ??_C@_1BK@LKBOPAFJ@?$AAl?$AAa?$AAs?$AAt?$AA?5?$AA?$CB?$AA?$DN?$AA?5?$AAN?$AAU?$AAL?$AAL?$AA?$AA@ 10069898     LIBCMTD:wcsnicmp.obj
 0002:000108b4       ??_C@_1BE@JKOKKFEL@?$AA_?$AAw?$AAc?$AAs?$AAn?$AAi?$AAc?$AAm?$AAp?$AA?$AA@ 100698b4     LIBCMTD:wcsnicmp.obj
 0002:000108c8       ??_C@_1BA@BALFACEM@?$AAC?$AAO?$AAN?$AAO?$AAU?$AAT?$AA$?$AA?$AA@ 100698c8     LIBCMTD:initcon.obj
 0002:000108d8       ??_C@_1FE@DNGHOFOC@?$AAf?$AA?3?$AA?2?$AAd?$AAd?$AA?2?$AAv?$AAc?$AAt?$AAo?$AAo?$AAl?$AAs?$AA?2?$AAc?$AAr?$AAt?$AA?2?$AAc?$AAr?$AAt?$AAw?$AA3?$AA2?$AA?2?$AAc?$AAo?$AAn?$AAv?$AAe?$AAr?$AAt@ 100698d8     LIBCMTD:strtod.obj
 0002:0001092c       ??_C@_1BE@KFBKGHJC@?$AA_?$AAs?$AAt?$AAr?$AAt?$AAo?$AAd?$AA_?$AAl?$AA?$AA@ 1006992c     LIBCMTD:strtod.obj
 0002:00010940       ??_C@_1FE@IEEFCKDG@?$AAf?$AA?3?$AA?2?$AAd?$AAd?$AA?2?$AAv?$AAc?$AAt?$AAo?$AAo?$AAl?$AAs?$AA?2?$AAc?$AAr?$AAt?$AA?2?$AAc?$AAr?$AAt?$AAw?$AA3?$AA2?$AA?2?$AAc?$AAo?$AAn?$AAv?$AAe?$AAr?$AAt@ 10069940     LIBCMTD:wcstoq.obj
 0002:00010994       ??_C@_1BA@FACINJJA@?$AAw?$AAc?$AAs?$AAt?$AAo?$AAx?$AAq?$AA?$AA@ 10069994     LIBCMTD:wcstoq.obj
 0002:000109a4       ??_C@_0CK@CEJCOKEF@f?3?2dd?2vctools?2crt?2crtw32?2convert@ 100699a4     LIBCMTD:wcstoq.obj
 0002:000109d0       __real@00000000            100699d0     LIBCMTD:wcstoq.obj
 0002:000109d8       ??_C@_1FE@LABOBFHJ@?$AAf?$AA?3?$AA?2?$AAd?$AAd?$AA?2?$AAv?$AAc?$AAt?$AAo?$AAo?$AAl?$AAs?$AA?2?$AAc?$AAr?$AAt?$AA?2?$AAc?$AAr?$AAt?$AAw?$AA3?$AA2?$AA?2?$AAc?$AAo?$AAn?$AAv?$AAe?$AAr?$AAt@ 100699d8     LIBCMTD:wcstod.obj
 0002:00010a2c       ??_C@_1BE@CIGDJHAJ@?$AA_?$AAw?$AAc?$AAs?$AAt?$AAo?$AAd?$AA_?$AAl?$AA?$AA@ 10069a2c     LIBCMTD:wcstod.obj
 0002:00010a40       ??_C@_1CA@JGBKKNCE@?$AA_?$AA_?$AAw?$AAs?$AAt?$AAr?$AAg?$AAt?$AAo?$AAl?$AAd?$AA1?$AA2?$AA_?$AAl?$AA?$AA@ 10069a40     LIBCMTD:wstrgtold.obj
 0002:00010a60       __load_config_used         10069a60     LIBCMTD:loadcfg.obj
 0002:00010b38       ??_R1A@?0A@EA@exception@std@@8 10069b38     libcpmtd:xthrow.obj
 0002:00010b54       ??_R3exception@std@@8      10069b54     libcpmtd:xthrow.obj
 0002:00010b64       ??_R2exception@std@@8      10069b64     libcpmtd:xthrow.obj
 0002:00010b6c       ??_R4bad_alloc@std@@6B@    10069b6c     libcpmtd:xthrow.obj
 0002:00010b80       ??_R3bad_alloc@std@@8      10069b80     libcpmtd:xthrow.obj
 0002:00010b90       ??_R2bad_alloc@std@@8      10069b90     libcpmtd:xthrow.obj
 0002:00010b9c       ??_R1A@?0A@EA@bad_alloc@std@@8 10069b9c     libcpmtd:xthrow.obj
 0002:00010bb8       ??_R4logic_error@std@@6B@  10069bb8     libcpmtd:xthrow.obj
 0002:00010bcc       ??_R3logic_error@std@@8    10069bcc     libcpmtd:xthrow.obj
 0002:00010bdc       ??_R2logic_error@std@@8    10069bdc     libcpmtd:xthrow.obj
 0002:00010be8       ??_R1A@?0A@EA@logic_error@std@@8 10069be8     libcpmtd:xthrow.obj
 0002:00010c04       ??_R4invalid_argument@std@@6B@ 10069c04     libcpmtd:xthrow.obj
 0002:00010c18       ??_R3invalid_argument@std@@8 10069c18     libcpmtd:xthrow.obj
 0002:00010c28       ??_R2invalid_argument@std@@8 10069c28     libcpmtd:xthrow.obj
 0002:00010c38       ??_R1A@?0A@EA@invalid_argument@std@@8 10069c38     libcpmtd:xthrow.obj
 0002:00010c54       ??_R4length_error@std@@6B@ 10069c54     libcpmtd:xthrow.obj
 0002:00010c68       ??_R3length_error@std@@8   10069c68     libcpmtd:xthrow.obj
 0002:00010c78       ??_R2length_error@std@@8   10069c78     libcpmtd:xthrow.obj
 0002:00010c88       ??_R1A@?0A@EA@length_error@std@@8 10069c88     libcpmtd:xthrow.obj
 0002:00010ca4       ??_R4out_of_range@std@@6B@ 10069ca4     libcpmtd:xthrow.obj
 0002:00010cb8       ??_R3out_of_range@std@@8   10069cb8     libcpmtd:xthrow.obj
 0002:00010cc8       ??_R2out_of_range@std@@8   10069cc8     libcpmtd:xthrow.obj
 0002:00010cd8       ??_R1A@?0A@EA@out_of_range@std@@8 10069cd8     libcpmtd:xthrow.obj
 0002:00010cf4       ??_R4runtime_error@std@@6B@ 10069cf4     libcpmtd:xthrow.obj
 0002:00010d08       ??_R3runtime_error@std@@8  10069d08     libcpmtd:xthrow.obj
 0002:00010d18       ??_R2runtime_error@std@@8  10069d18     libcpmtd:xthrow.obj
 0002:00010d24       ??_R1A@?0A@EA@runtime_error@std@@8 10069d24     libcpmtd:xthrow.obj
 0002:00010d40       ??_R4overflow_error@std@@6B@ 10069d40     libcpmtd:xthrow.obj
 0002:00010d54       ??_R3overflow_error@std@@8 10069d54     libcpmtd:xthrow.obj
 0002:00010d64       ??_R2overflow_error@std@@8 10069d64     libcpmtd:xthrow.obj
 0002:00010d74       ??_R1A@?0A@EA@overflow_error@std@@8 10069d74     libcpmtd:xthrow.obj
 0002:00010d90       ??_R4bad_function_call@std@@6B@ 10069d90     libcpmtd:xthrow.obj
 0002:00010da4       ??_R3bad_function_call@std@@8 10069da4     libcpmtd:xthrow.obj
 0002:00010db4       ??_R2bad_function_call@std@@8 10069db4     libcpmtd:xthrow.obj
 0002:00010dc0       ??_R1A@?0A@EA@bad_function_call@std@@8 10069dc0     libcpmtd:xthrow.obj
 0002:00010ddc       ??_R4error_category@std@@6B@ 10069ddc     libcpmtd:xthrow.obj
 0002:00010df0       ??_R3error_category@std@@8 10069df0     libcpmtd:xthrow.obj
 0002:00010e00       ??_R2error_category@std@@8 10069e00     libcpmtd:xthrow.obj
 0002:00010e08       ??_R1A@?0A@EA@error_category@std@@8 10069e08     libcpmtd:xthrow.obj
 0002:00010e24       ??_R4_Generic_error_category@std@@6B@ 10069e24     libcpmtd:xthrow.obj
 0002:00010e38       ??_R3_Generic_error_category@std@@8 10069e38     libcpmtd:xthrow.obj
 0002:00010e48       ??_R2_Generic_error_category@std@@8 10069e48     libcpmtd:xthrow.obj
 0002:00010e54       ??_R1A@?0A@EA@_Generic_error_category@std@@8 10069e54     libcpmtd:xthrow.obj
 0002:00010e70       ??_R4_Iostream_error_category@std@@6B@ 10069e70     libcpmtd:xthrow.obj
 0002:00010e84       ??_R3_Iostream_error_category@std@@8 10069e84     libcpmtd:xthrow.obj
 0002:00010e94       ??_R2_Iostream_error_category@std@@8 10069e94     libcpmtd:xthrow.obj
 0002:00010ea4       ??_R1A@?0A@EA@_Iostream_error_category@std@@8 10069ea4     libcpmtd:xthrow.obj
 0002:00010ec0       ??_R4_System_error_category@std@@6B@ 10069ec0     libcpmtd:xthrow.obj
 0002:00010ed4       ??_R3_System_error_category@std@@8 10069ed4     libcpmtd:xthrow.obj
 0002:00010ee4       ??_R2_System_error_category@std@@8 10069ee4     libcpmtd:xthrow.obj
 0002:00010ef4       ??_R1A@?0A@EA@_System_error_category@std@@8 10069ef4     libcpmtd:xthrow.obj
 0002:00010f10       ??_R4regex_error@std@@6B@  10069f10     libcpmtd:xthrow.obj
 0002:00010f24       ??_R3regex_error@std@@8    10069f24     libcpmtd:xthrow.obj
 0002:00010f34       ??_R2regex_error@std@@8    10069f34     libcpmtd:xthrow.obj
 0002:00010f44       ??_R1A@?0A@EA@regex_error@std@@8 10069f44     libcpmtd:xthrow.obj
 0002:00010f60       ??_R4type_info@@6B@        10069f60     LIBCMTD:typinfo.obj
 0002:00010f74       ??_R3type_info@@8          10069f74     LIBCMTD:typinfo.obj
 0002:00010f84       ??_R2type_info@@8          10069f84     LIBCMTD:typinfo.obj
 0002:00010f8c       ??_R1A@?0A@EA@type_info@@8 10069f8c     LIBCMTD:typinfo.obj
 0002:00010fa8       ??_R4exception@std@@6B@    10069fa8     LIBCMTD:stdexcpt.obj
 0002:00010fbc       ??_R4bad_cast@std@@6B@     10069fbc     LIBCMTD:stdexcpt.obj
 0002:00010fd0       ??_R3bad_cast@std@@8       10069fd0     LIBCMTD:stdexcpt.obj
 0002:00010fe0       ??_R2bad_cast@std@@8       10069fe0     LIBCMTD:stdexcpt.obj
 0002:00010fec       ??_R1A@?0A@EA@bad_cast@std@@8 10069fec     LIBCMTD:stdexcpt.obj
 0002:00011008       ??_R4bad_typeid@std@@6B@   1006a008     LIBCMTD:stdexcpt.obj
 0002:0001101c       ??_R3bad_typeid@std@@8     1006a01c     LIBCMTD:stdexcpt.obj
 0002:0001102c       ??_R2bad_typeid@std@@8     1006a02c     LIBCMTD:stdexcpt.obj
 0002:00011038       ??_R1A@?0A@EA@bad_typeid@std@@8 1006a038     LIBCMTD:stdexcpt.obj
 0002:00011054       ??_R4__non_rtti_object@std@@6B@ 1006a054     LIBCMTD:stdexcpt.obj
 0002:00011068       ??_R3__non_rtti_object@std@@8 1006a068     LIBCMTD:stdexcpt.obj
 0002:00011078       ??_R2__non_rtti_object@std@@8 1006a078     LIBCMTD:stdexcpt.obj
 0002:00011088       ??_R1A@?0A@EA@__non_rtti_object@std@@8 1006a088     LIBCMTD:stdexcpt.obj
 0002:000110a4       ??_R4bad_exception@std@@6B@ 1006a0a4     LIBCMTD:frame.obj
 0002:000110b8       ??_R3bad_exception@std@@8  1006a0b8     LIBCMTD:frame.obj
 0002:000110c8       ??_R2bad_exception@std@@8  1006a0c8     LIBCMTD:frame.obj
 0002:000110d4       ??_R1A@?0A@EA@bad_exception@std@@8 1006a0d4     LIBCMTD:frame.obj
 0002:000110f0       ??_R4DNameNode@@6B@        1006a0f0     LIBCMTD:undname.obj
 0002:00011104       ??_R3DNameNode@@8          1006a104     LIBCMTD:undname.obj
 0002:00011114       ??_R2DNameNode@@8          1006a114     LIBCMTD:undname.obj
 0002:0001111c       ??_R1A@?0A@EA@DNameNode@@8 1006a11c     LIBCMTD:undname.obj
 0002:00011138       ??_R4charNode@@6B@         1006a138     LIBCMTD:undname.obj
 0002:0001114c       ??_R3charNode@@8           1006a14c     LIBCMTD:undname.obj
 0002:0001115c       ??_R2charNode@@8           1006a15c     LIBCMTD:undname.obj
 0002:00011168       ??_R1A@?0A@EA@charNode@@8  1006a168     LIBCMTD:undname.obj
 0002:00011184       ??_R4pcharNode@@6B@        1006a184     LIBCMTD:undname.obj
 0002:00011198       ??_R3pcharNode@@8          1006a198     LIBCMTD:undname.obj
 0002:000111a8       ??_R2pcharNode@@8          1006a1a8     LIBCMTD:undname.obj
 0002:000111b4       ??_R1A@?0A@EA@pcharNode@@8 1006a1b4     LIBCMTD:undname.obj
 0002:000111d0       ??_R4pDNameNode@@6B@       1006a1d0     LIBCMTD:undname.obj
 0002:000111e4       ??_R3pDNameNode@@8         1006a1e4     LIBCMTD:undname.obj
 0002:000111f4       ??_R2pDNameNode@@8         1006a1f4     LIBCMTD:undname.obj
 0002:00011200       ??_R1A@?0A@EA@pDNameNode@@8 1006a200     LIBCMTD:undname.obj
 0002:0001121c       ??_R4DNameStatusNode@@6B@  1006a21c     LIBCMTD:undname.obj
 0002:00011230       ??_R3DNameStatusNode@@8    1006a230     LIBCMTD:undname.obj
 0002:00011240       ??_R2DNameStatusNode@@8    1006a240     LIBCMTD:undname.obj
 0002:0001124c       ??_R1A@?0A@EA@DNameStatusNode@@8 1006a24c     LIBCMTD:undname.obj
 0002:00011268       ??_R4pairNode@@6B@         1006a268     LIBCMTD:undname.obj
 0002:0001127c       ??_R3pairNode@@8           1006a27c     LIBCMTD:undname.obj
 0002:0001128c       ??_R2pairNode@@8           1006a28c     LIBCMTD:undname.obj
 0002:00011298       ??_R1A@?0A@EA@pairNode@@8  1006a298     LIBCMTD:undname.obj
 0002:000112c0       ___safe_se_handler_table   1006a2c0     <linker-defined>
 0002:000113c4       ___rtc_iaa                 1006a3c4     LIBCMTD:initsect.obj
 0002:000113c8       ___rtc_izz                 1006a3c8     LIBCMTD:initsect.obj
 0002:000113cc       ___rtc_taa                 1006a3cc     LIBCMTD:initsect.obj
 0002:000113d0       ___rtc_tzz                 1006a3d0     LIBCMTD:initsect.obj
 0002:00012198       __TI2?AVbad_alloc@std@@    1006b198     libcpmtd:xthrow.obj
 0002:000121a8       __CTA2?AVbad_alloc@std@@   1006b1a8     libcpmtd:xthrow.obj
 0002:000121b4       __CT??_R0?AVbad_alloc@std@@@8??0bad_alloc@std@@QAE@ABV01@@Z12 1006b1b4     libcpmtd:xthrow.obj
 0002:000121d0       __CT??_R0?AVexception@std@@@8??0exception@std@@QAE@ABV01@@Z12 1006b1d0     libcpmtd:xthrow.obj
 0002:000121ec       __TI3?AVinvalid_argument@std@@ 1006b1ec     libcpmtd:xthrow.obj
 0002:000121fc       __CTA3?AVinvalid_argument@std@@ 1006b1fc     libcpmtd:xthrow.obj
 0002:0001220c       __CT??_R0?AVinvalid_argument@std@@@8??0invalid_argument@std@@QAE@ABV01@@Z12 1006b20c     libcpmtd:xthrow.obj
 0002:00012228       __CT??_R0?AVlogic_error@std@@@8??0logic_error@std@@QAE@ABV01@@Z12 1006b228     libcpmtd:xthrow.obj
 0002:00012244       __TI3?AVlength_error@std@@ 1006b244     libcpmtd:xthrow.obj
 0002:00012254       __CTA3?AVlength_error@std@@ 1006b254     libcpmtd:xthrow.obj
 0002:00012264       __CT??_R0?AVlength_error@std@@@8??0length_error@std@@QAE@ABV01@@Z12 1006b264     libcpmtd:xthrow.obj
 0002:00012280       __TI3?AVout_of_range@std@@ 1006b280     libcpmtd:xthrow.obj
 0002:00012290       __CTA3?AVout_of_range@std@@ 1006b290     libcpmtd:xthrow.obj
 0002:000122a0       __CT??_R0?AVout_of_range@std@@@8??0out_of_range@std@@QAE@ABV01@@Z12 1006b2a0     libcpmtd:xthrow.obj
 0002:000122bc       __TI3?AVoverflow_error@std@@ 1006b2bc     libcpmtd:xthrow.obj
 0002:000122cc       __CTA3?AVoverflow_error@std@@ 1006b2cc     libcpmtd:xthrow.obj
 0002:000122dc       __CT??_R0?AVoverflow_error@std@@@8??0overflow_error@std@@QAE@ABV01@@Z12 1006b2dc     libcpmtd:xthrow.obj
 0002:000122f8       __CT??_R0?AVruntime_error@std@@@8??0runtime_error@std@@QAE@ABV01@@Z12 1006b2f8     libcpmtd:xthrow.obj
 0002:00012314       __TI2?AVruntime_error@std@@ 1006b314     libcpmtd:xthrow.obj
 0002:00012324       __CTA2?AVruntime_error@std@@ 1006b324     libcpmtd:xthrow.obj
 0002:00012330       __TI2?AVbad_function_call@std@@ 1006b330     libcpmtd:xthrow.obj
 0002:00012340       __CTA2?AVbad_function_call@std@@ 1006b340     libcpmtd:xthrow.obj
 0002:0001234c       __CT??_R0?AVbad_function_call@std@@@8??0bad_function_call@std@@QAE@ABV01@@Z12 1006b34c     libcpmtd:xthrow.obj
 0002:00012368       __TI3?AVregex_error@std@@  1006b368     libcpmtd:xthrow.obj
 0002:00012378       __CTA3?AVregex_error@std@@ 1006b378     libcpmtd:xthrow.obj
 0002:00012388       __CT??_R0?AVregex_error@std@@@8??0regex_error@std@@QAE@ABV01@@Z16 1006b388     libcpmtd:xthrow.obj
 0002:000128f4       __TI2?AVbad_exception@std@@ 1006b8f4     LIBCMTD:frame.obj
 0002:00012904       __CTA2?AVbad_exception@std@@ 1006b904     LIBCMTD:frame.obj
 0002:00012910       __CT??_R0?AVbad_exception@std@@@8??0bad_exception@std@@QAE@ABV01@@Z12 1006b910     LIBCMTD:frame.obj
 0002:00012f34       __IMPORT_DESCRIPTOR_KERNEL32 1006bf34     kernel32:KERNEL32.dll
 0002:00012f48       __IMPORT_DESCRIPTOR_IPHLPAPI 1006bf48     IPHLPAPI:IPHLPAPI.DLL
 0002:00012f5c       __NULL_IMPORT_DESCRIPTOR   1006bf5c     kernel32:KERNEL32.dll
 0003:00000000       _caplDllTable4             1006d000     capldll.obj
 0003:00000008       ?auchCRCHi@@3PAEA          1006d008     capldll.obj
 0003:00000108       ?auchCRCLo@@3PAEA          1006d108     capldll.obj
 0003:00000208       ?table@@3PAUCAPL_DLL_INFO4@@A 1006d208     capldll.obj
 0003:00001034       ___security_cookie         1006e034     LIBCMTD:gs_cookie.obj
 0003:00001038       ___security_cookie_complement 1006e038     LIBCMTD:gs_cookie.obj
 0003:0000103c       __fltused                  1006e03c     LIBCMTD:fpinit.obj
 0003:00001040       __ldused                   1006e040     LIBCMTD:fpinit.obj
 0003:00001174       __crtBreakAlloc            1006e174     LIBCMTD:dbgheap.obj
 0003:00001178       ___crtDebugFillThreshold   1006e178     LIBCMTD:dbgheap.obj
 0003:0000117c       __crtDbgFlag               1006e17c     LIBCMTD:dbgheap.obj
 0003:00001188       __pfnAllocHook             1006e188     LIBCMTD:dbghook.obj
 0003:00001190       ___isa_enabled             1006e190     LIBCMTD:cpu_disp.obj
 0003:00001308       __iob                      1006e308     LIBCMTD:_file.obj
 0003:00001588       ___nullstring              1006e588     LIBCMTD:output.obj
 0003:0000158c       ___wnullstring             1006e58c     LIBCMTD:output.obj
 0003:00001598       __d_inf                    1006e598     LIBCMTD:util.obj
 0003:000015a0       __d_ind                    1006e5a0     LIBCMTD:util.obj
 0003:000015a8       __d_max                    1006e5a8     LIBCMTD:util.obj
 0003:000015b0       __d_min                    1006e5b0     LIBCMTD:util.obj
 0003:000015b8       __d_mzero                  1006e5b8     LIBCMTD:util.obj
 0003:000016c4       __CrtDbgMode               1006e6c4     LIBCMTD:dbgrptt.obj
 0003:000016d0       __CrtDbgFile               1006e6d0     LIBCMTD:dbgrptt.obj
 0003:000016dc       __crtAssertBusy            1006e6dc     LIBCMTD:dbgrptt.obj
 0003:000016e0       ___flsindex                1006e6e0     LIBCMTD:tidtable.obj
 0003:000016f0       __cfltcvt_tab              1006e6f0     LIBCMTD:cmiscdat.obj
 0003:00001718       ___badioinfo               1006e718     LIBCMTD:ioinit.obj
 0003:00001758       ___abort_behavior          1006e758     LIBCMTD:abort.obj
 0003:00001760       __mbctype                  1006e760     LIBCMTD:mbctype.obj
 0003:00001868       __mbcasemap                1006e868     LIBCMTD:mbctype.obj
 0003:00001968       ___initialmbcinfo          1006e968     LIBCMTD:mbctype.obj
 0003:00001b8c       ___ptmbcinfo               1006eb8c     LIBCMTD:mbctype.obj
 0003:00001c84       ___mb_cur_max              1006ec84     LIBCMTD:nlsdata.obj
 0003:00001c88       ___wclocalestr             1006ec88     LIBCMTD:nlsdata.obj
 0003:00001c90       ___lc_time_c               1006ec90     LIBCMTD:nlsdata.obj
 0003:00001df4       ___ptlocinfo               1006edf4     LIBCMTD:nlsdata.obj
 0003:00001df8       ___initiallocinfo          1006edf8     LIBCMTD:nlsdata.obj
 0003:00001eb0       ___initiallocalestructinfo 1006eeb0     LIBCMTD:nlsdata.obj
 0003:00001eb8       ___globallocalestatus      1006eeb8     LIBCMTD:glstatus.obj
 0003:00001ec0       __matherr_flag             1006eec0     LIBCMTD:matherr.obj
 0003:00001ed0       __NLG_Destination          1006eed0     LIBCMTD:exsup.obj
 0003:00001ee0       ___lconv                   1006eee0     LIBCMTD:lconv.obj
 0003:00001ee4       ___lconv_static_decimal    1006eee4     LIBCMTD:lconv.obj
 0003:00001ee8       ___lconv_c                 1006eee8     LIBCMTD:lconv.obj
 0003:00001f38       ___lconv_static_W_decimal  1006ef38     LIBCMTD:lconv.obj
 0003:00001f40       __pctype                   1006ef40     LIBCMTD:ctype.obj
 0003:00001f44       __pwctype                  1006ef44     LIBCMTD:ctype.obj
 0003:00001f78       __pow10pos                 1006ef78     LIBCMTD:constpow.obj
 0003:000020d8       __pow10neg                 1006f0d8     LIBCMTD:constpow.obj
 0003:00002234       __confh                    1006f234     LIBCMTD:initcon.obj
 0003:00002240       __HUGE                     1006f240     LIBCMTD:huge.obj
 0003:00002248       ??_R0?AVbad_alloc@std@@@8  1006f248     capldll.obj
 0003:00002264       ??_R0?AVexception@std@@@8  1006f264     libcpmtd:xthrow.obj
 0003:00002280       ??_R0?AVinvalid_argument@std@@@8 1006f280     libcpmtd:xthrow.obj
 0003:000022a4       ??_R0?AVlogic_error@std@@@8 1006f2a4     libcpmtd:xthrow.obj
 0003:000022c4       ??_R0?AVlength_error@std@@@8 1006f2c4     libcpmtd:xthrow.obj
 0003:000022e4       ??_R0?AVout_of_range@std@@@8 1006f2e4     libcpmtd:xthrow.obj
 0003:00002304       ??_R0?AVoverflow_error@std@@@8 1006f304     libcpmtd:xthrow.obj
 0003:00002328       ??_R0?AVruntime_error@std@@@8 1006f328     libcpmtd:xthrow.obj
 0003:00002348       ??_R0?AVbad_function_call@std@@@8 1006f348     libcpmtd:xthrow.obj
 0003:0000236c       ??_R0?AVregex_error@std@@@8 1006f36c     libcpmtd:xthrow.obj
 0003:0000238c       ??_R0?AVerror_category@std@@@8 1006f38c     libcpmtd:xthrow.obj
 0003:000023b0       ??_R0?AV_Generic_error_category@std@@@8 1006f3b0     libcpmtd:xthrow.obj
 0003:000023dc       ??_R0?AV_Iostream_error_category@std@@@8 1006f3dc     libcpmtd:xthrow.obj
 0003:00002408       ??_R0?AV_System_error_category@std@@@8 1006f408     libcpmtd:xthrow.obj
 0003:00002434       ??_R0?AVtype_info@@@8      1006f434     LIBCMTD:typinfo.obj
 0003:0000244c       ??_R0?AVbad_cast@std@@@8   1006f44c     LIBCMTD:stdexcpt.obj
 0003:00002468       ??_R0?AVbad_typeid@std@@@8 1006f468     LIBCMTD:stdexcpt.obj
 0003:00002488       ??_R0?AV__non_rtti_object@std@@@8 1006f488     LIBCMTD:stdexcpt.obj
 0003:000024ac       ??_R0?AVbad_exception@std@@@8 1006f4ac     LIBCMTD:frame.obj
 0003:000024cc       ??_R0?AVDNameNode@@@8      1006f4cc     LIBCMTD:undname.obj
 0003:000024e4       ??_R0?AVcharNode@@@8       1006f4e4     LIBCMTD:undname.obj
 0003:000024fc       ??_R0?AVpcharNode@@@8      1006f4fc     LIBCMTD:undname.obj
 0003:00002514       ??_R0?AVpDNameNode@@@8     1006f514     LIBCMTD:undname.obj
 0003:00002530       ??_R0?AVDNameStatusNode@@@8 1006f530     LIBCMTD:undname.obj
 0003:00002550       ??_R0?AVpairNode@@@8       1006f550     LIBCMTD:undname.obj
 0003:0000258c       ?gModuleHandle@@3PAUHINSTANCE__@@A 1006f58c     capldll.obj
 0003:00002590       ?gModuleName@@3PADA        1006f590     capldll.obj
 0003:00002694       ?gCaplMap@@3V?$map@KPAVCaplInstanceData@@U?$less@K@std@@V?$allocator@U?$pair@$$CBKPAVCaplInstanceData@@@std@@@3@@std@@A 1006f694     capldll.obj
 0003:000026a0       ?gServiceMap@@3V?$map@KPAVVIACapl@@U?$less@K@std@@V?$allocator@U?$pair@$$CBKPAVVIACapl@@@std@@@3@@std@@A 1006f6a0     capldll.obj
 0003:0000271c       ?_Generic_object@?$_Error_objects@H@std@@2V_Generic_error_category@2@A 1006f71c     libcpmtd:xthrow.obj
 0003:00002720       ?_Iostream_object@?$_Error_objects@H@std@@2V_Iostream_error_category@2@A 1006f720     libcpmtd:xthrow.obj
 0003:00002724       ?_System_object@?$_Error_objects@H@std@@2V_System_error_category@2@A 1006f724     libcpmtd:xthrow.obj
 0003:00002728       ?id@?$num_put@DV?$back_insert_iterator@V?$basic_string@DU?$char_traits@D@std@@V?$allocator@D@2@@std@@@std@@@std@@2V0locale@2@A 1006f728     libcpmtd:xthrow.obj
 0003:0000272c       ?id@?$num_put@_WV?$back_insert_iterator@V?$basic_string@_WU?$char_traits@_W@std@@V?$allocator@_W@2@@std@@@std@@@std@@2V0locale@2@A 1006f72c     libcpmtd:xthrow.obj
 0003:00002730       ?id@?$numpunct@D@std@@2V0locale@2@A 1006f730     libcpmtd:xthrow.obj
 0003:00002734       ?id@?$numpunct@_W@std@@2V0locale@2@A 1006f734     libcpmtd:xthrow.obj
 0003:0000273c       ___pInvalidArgHandler      1006f73c     LIBCMTD:invarg.obj
 0003:00002744       ___fastflag                1006f744     LIBCMTD:fpinit.obj
 0003:0000274c       __aenvptr                  1006f74c     LIBCMTD:dllcrt0.obj
 0003:00002750       __wenvptr                  1006f750     LIBCMTD:dllcrt0.obj
 0003:000028c0       ?_pnhHeap@@3P6AHI@ZA       1006f8c0     LIBCMTD:handler.obj
 0003:000028c4       ___crtDebugCheckCount      1006f8c4     LIBCMTD:dbgheap.obj
 0003:000028cc       ?_pfnDumpClient@@3P6AXPAXI@ZA 1006f8cc     LIBCMTD:dbgheap.obj
 0003:000028e8       __umaskval                 1006f8e8     LIBCMTD:crt0dat.obj
 0003:000028ec       __exitflag                 1006f8ec     LIBCMTD:crt0dat.obj
 0003:000028f0       __C_Termination_Done       1006f8f0     LIBCMTD:crt0dat.obj
 0003:000028f4       ___winitenv                1006f8f4     LIBCMTD:crt0dat.obj
 0003:000028f8       ___initenv                 1006f8f8     LIBCMTD:crt0dat.obj
 0003:000028fc       ___argc                    1006f8fc     LIBCMTD:crt0dat.obj
 0003:00002900       ___argv                    1006f900     LIBCMTD:crt0dat.obj
 0003:00002904       ___wargv                   1006f904     LIBCMTD:crt0dat.obj
 0003:00002908       __environ                  1006f908     LIBCMTD:crt0dat.obj
 0003:0000290c       __wenviron                 1006f90c     LIBCMTD:crt0dat.obj
 0003:00002910       __pgmptr                   1006f910     LIBCMTD:crt0dat.obj
 0003:00002914       __wpgmptr                  1006f914     LIBCMTD:crt0dat.obj
 0003:00002918       __C_Exit_Done              1006f918     LIBCMTD:crt0dat.obj
 0003:0000291c       ___isa_available           1006f91c     LIBCMTD:cpu_disp.obj
 0003:00002920       ___favor                   1006f920     LIBCMTD:cpu_disp.obj
 0003:00002924       __cflush                   1006f924     LIBCMTD:_file.obj
 0003:00002928       __stdbuf                   1006f928     LIBCMTD:_sftbuf.obj
 0003:00002c78       ?__pInconsistency@@3P6AXXZA 1006fc78     LIBCMTD:hooks.obj
 0003:00002c7c       ?g_OutOfMemoryExceptionCallback@@3P6GPAXXZA 1006fc7c     LIBCMTD:frame.obj
 0003:00002c88       __crtheap                  1006fc88     LIBCMTD:heapinit.obj
 0003:00002c90       ___pioinfo                 1006fc90     LIBCMTD:ioinit.obj
 0003:00002e98       ___app_type                1006fe98     LIBCMTD:crt0msg.obj
 0003:000034c8       ___pPurecall               100704c8     LIBCMTD:inithelp.obj
 0003:000034cc       __newmode                  100704cc     LIBCMTD:_newmode.obj
 0003:000034d0       ___mbcodepage              100704d0     LIBCMTD:mbctype.obj
 0003:000034d4       ___ismbcodepage            100704d4     LIBCMTD:mbctype.obj
 0003:000034d8       ___mbulinfo                100704d8     LIBCMTD:mbctype.obj
 0003:000034e4       ___mblocalename            100704e4     LIBCMTD:mbctype.obj
 0003:000034f0       ?pArgList@UnDecorator@@0PAVReplicator@@A 100704f0     LIBCMTD:undname.obj
 0003:000034f4       ?pZNameList@UnDecorator@@0PAVReplicator@@A 100704f4     LIBCMTD:undname.obj
 0003:000034f8       ?pTemplateArgList@UnDecorator@@0PAVReplicator@@A 100704f8     LIBCMTD:undname.obj
 0003:000034fc       ?gName@UnDecorator@@0PBDB  100704fc     LIBCMTD:undname.obj
 0003:00003500       ?name@UnDecorator@@0PBDB   10070500     LIBCMTD:undname.obj
 0003:00003504       ?outputString@UnDecorator@@0PADA 10070504     LIBCMTD:undname.obj
 0003:00003508       ?maxStringLength@UnDecorator@@0HA 10070508     LIBCMTD:undname.obj
 0003:0000350c       ?disableFlags@UnDecorator@@0KA 1007050c     LIBCMTD:undname.obj
 0003:00003510       ?fExplicitTemplateParams@UnDecorator@@0_NA 10070510     LIBCMTD:undname.obj
 0003:00003511       ?fGetTemplateArgumentList@UnDecorator@@0_NA 10070511     LIBCMTD:undname.obj
 0003:00003514       ?m_pGetParameter@UnDecorator@@0P6APADJ@ZA 10070514     LIBCMTD:undname.obj
 0003:00003580       ?nodes@?1??make@DNameStatusNode@@SAPAV2@W4DNameStatus@@@Z@4PAV2@A 10070580     LIBCMTD:undname.obj
 0003:000035b0       ??_B?1??make@DNameStatusNode@@SAPAV1@W4DNameStatus@@@Z@51 100705b0     LIBCMTD:undname.obj
 0003:000035b4       __outputformat             100705b4     LIBCMTD:outputformat.obj
 0003:000035b8       ___error_mode              100705b8     LIBCMTD:errmode.obj
 0003:000035c0       ___lconv_static_null       100705c0     LIBCMTD:lconv.obj
 0003:000035c4       ___lconv_static_W_null     100705c4     LIBCMTD:lconv.obj
 0003:000035c8       ___locale_changed          100705c8     LIBCMTD:wsetloca.obj
 0003:000035cc       ___unguarded_readlc_active 100705cc     <common>
 0003:000035d0       ___setlc_active            100705d0     <common>
 0003:000035d4       __nhandle                  100705d4     <common>
 0003:000035d8       __pReportHookListW         100705d8     <common>
 0003:000035dc       __pReportHookList          100705dc     <common>
 0003:000035e0       __pfnReportHook            100705e0     <common>
 0003:00003600       __bufin                    10070600     <common>
 0003:00004600       ___piob                    10071600     <common>
 0003:00004604       __nstream                  10071604     <common>
 0003:00004608       __debugger_hook_dummy      10071608     <common>
 0003:0000460c       ___dyn_tls_init_callback   1007160c     <common>
 0003:00004610       ___onexitend               10071610     <common>
 0003:00004614       ___onexitbegin             10071614     <common>
 0003:00004618       ___mbctype_initialized     10071618     <common>
 0003:0000461c       ___env_initialized         1007161c     <common>
 0003:00004620       _encodedKERNEL32Functions  10071620     <common>
 0003:000046a4       __acmdln                   100716a4     <common>

 entry point at        0001:0000ffb0

 Static symbols

 0000:fff88000       .debug$S                   10000000     kernel32:KERNEL32.dll
 0000:fff88000       .debug$S                   10000000     IPHLPAPI:IPHLPAPI.DLL
 0002:fffa7000       __unwindtable$??$construct@U_Container_proxy@std@@U12@@?$allocator@U_Container_proxy@std@@@std@@QAEXPAU_Container_proxy@1@$$QAU21@@Z 10000000     libcpmtd:xthrow.obj
 0000:fff88000       .debug$S                   10000000     kernel32:KERNEL32.dll
 0001:fffff000       __unwindfunclet$??$construct@U_Container_proxy@std@@U12@@?$allocator@U_Container_proxy@std@@@std@@QAEXPAU_Container_proxy@1@$$QAU21@@Z$0 10000000 f   libcpmtd:xthrow.obj
 0000:fff88000       .debug$S                   10000000     kernel32:KERNEL32.dll
 0000:fff88000       .debug$S                   10000000     kernel32:KERNEL32.dll
 0002:fffa7000       ?_System_object$initializer$@?$_Error_objects@H@std@@2P6AXXZA 10000000     libcpmtd:syserror.obj
 0002:fffa7000       ?_Iostream_object$initializer$@?$_Error_objects@H@std@@2P6AXXZA 10000000     libcpmtd:syserror.obj
 0002:fffa7000       ?_Generic_object$initializer$@?$_Error_objects@H@std@@2P6AXXZA 10000000     libcpmtd:syserror.obj
 0002:fffa7000       __unwindtable$??$construct@PADAAPAD@?$allocator@D@std@@QAEXPAPADAAPAD@Z 10000000     libcpmtd:syserror.obj
 0000:fff88000       .debug$S                   10000000     kernel32:KERNEL32.dll
 0002:fffa7000       __unwindtable$??$construct@U_Container_proxy@std@@U12@@?$allocator@U_Container_proxy@std@@@std@@QAEXPAU_Container_proxy@1@$$QAU21@@Z 10000000     libcpmtd:syserror.obj
 0000:fff88000       .debug$S                   10000000     kernel32:KERNEL32.dll
 0002:fffa7000       __catchsym$?_Copy@?$basic_string@DU?$char_traits@D@std@@V?$allocator@D@2@@std@@QAEXII@Z$5 10000000     libcpmtd:syserror.obj
 0000:fff88000       .debug$S                   10000000     kernel32:KERNEL32.dll
 0000:fff88000       .debug$S                   10000000     kernel32:KERNEL32.dll
 0000:fff88000       .debug$S                   10000000     kernel32:KERNEL32.dll
 0000:fff88000       .debug$S                   10000000     kernel32:KERNEL32.dll
 0002:fffa7000       __unwindtable$??0?$basic_string@DU?$char_traits@D@std@@V?$allocator@D@2@@std@@QAE@PBD@Z 10000000     libcpmtd:syserror.obj
 0000:fff88000       .debug$S                   10000000     kernel32:KERNEL32.dll
 0002:fffa7000       __unwindtable$??0?$_String_alloc@$0A@U?$_String_base_types@DV?$allocator@D@std@@@std@@@std@@QAE@ABV?$allocator@D@1@@Z 10000000     libcpmtd:syserror.obj
 0000:fff88000       .debug$S                   10000000     kernel32:KERNEL32.dll
 0001:fffff000       __unwindfunclet$??$construct@PADAAPAD@?$allocator@D@std@@QAEXPAPADAAPAD@Z$0 10000000 f   libcpmtd:syserror.obj
 0000:fff88000       .debug$S                   10000000     kernel32:KERNEL32.dll
 0001:fffff000       __unwindfunclet$??$construct@U_Container_proxy@std@@U12@@?$allocator@U_Container_proxy@std@@@std@@QAEXPAU_Container_proxy@1@$$QAU21@@Z$0 10000000 f   libcpmtd:syserror.obj
 0000:fff88000       .debug$S                   10000000     kernel32:KERNEL32.dll
 0000:fff88000       .debug$S                   10000000     kernel32:KERNEL32.dll
 0000:fff88000       .debug$S                   10000000     kernel32:KERNEL32.dll
 0001:fffff000       __ehhandler$?_Copy@?$basic_string@DU?$char_traits@D@std@@V?$allocator@D@2@@std@@QAEXII@Z 10000000 f   libcpmtd:syserror.obj
 0001:fffff000       __unwindfunclet$??0?$basic_string@DU?$char_traits@D@std@@V?$allocator@D@2@@std@@QAE@PBD@Z$0 10000000 f   libcpmtd:syserror.obj
 0000:fff88000       .debug$S                   10000000     kernel32:KERNEL32.dll
 0001:fffff000       __unwindfunclet$??0?$_String_alloc@$0A@U?$_String_base_types@DV?$allocator@D@std@@@std@@@std@@QAE@ABV?$allocator@D@1@@Z$0 10000000 f   libcpmtd:syserror.obj
 0000:fff88000       .debug$S                   10000000     kernel32:KERNEL32.dll
 0000:fff88000       .debug$S                   10000000     kernel32:KERNEL32.dll
 0000:fff88000       .debug$S                   10000000     kernel32:KERNEL32.dll
 0000:fff88000       .debug$S                   10000000     kernel32:KERNEL32.dll
 0000:fff88000       .debug$S                   10000000     kernel32:KERNEL32.dll
 0000:fff88000       .debug$S                   10000000     kernel32:KERNEL32.dll
 0000:fff88000       .debug$S                   10000000     kernel32:KERNEL32.dll
 0000:fff88000       .debug$S                   10000000     kernel32:KERNEL32.dll
 0000:fff88000       .debug$S                   10000000     kernel32:KERNEL32.dll
 0000:fff88000       .debug$S                   10000000     kernel32:KERNEL32.dll
 0000:fff88000       .debug$S                   10000000     kernel32:KERNEL32.dll
 0000:fff88000       .debug$S                   10000000     kernel32:KERNEL32.dll
 0000:fff88000       .debug$S                   10000000     kernel32:KERNEL32.dll
 0000:fff88000       .debug$S                   10000000     kernel32:KERNEL32.dll
 0000:fff88000       .debug$S                   10000000     kernel32:KERNEL32.dll
 0000:fff88000       .debug$S                   10000000     kernel32:KERNEL32.dll
 0000:fff88000       .debug$S                   10000000     kernel32:KERNEL32.dll
 0000:fff88000       .debug$S                   10000000     kernel32:KERNEL32.dll
 0000:fff88000       .debug$S                   10000000     kernel32:KERNEL32.dll
 0000:fff88000       .debug$S                   10000000     kernel32:KERNEL32.dll
 0000:fff88000       .debug$S                   10000000     kernel32:KERNEL32.dll
 0000:fff88000       .debug$S                   10000000     kernel32:KERNEL32.dll
 0000:fff88000       .debug$S                   10000000     kernel32:KERNEL32.dll
 0000:fff88000       .debug$S                   10000000     kernel32:KERNEL32.dll
 0000:fff88000       .debug$S                   10000000     kernel32:KERNEL32.dll
 0000:fff88000       .debug$S                   10000000     kernel32:KERNEL32.dll
 0000:fff88000       .debug$S                   10000000     kernel32:KERNEL32.dll
 0000:fff88000       .debug$S                   10000000     kernel32:KERNEL32.dll
 0000:fff88000       .debug$S                   10000000     kernel32:KERNEL32.dll
 0000:fff88000       .debug$S                   10000000     kernel32:KERNEL32.dll
 0000:fff88000       .debug$S                   10000000     kernel32:KERNEL32.dll
 0000:fff88000       .debug$S                   10000000     kernel32:KERNEL32.dll
 0000:fff88000       .debug$S                   10000000     kernel32:KERNEL32.dll
 0000:fff88000       .debug$S                   10000000     kernel32:KERNEL32.dll
 0000:fff88000       .debug$S                   10000000     kernel32:KERNEL32.dll
 0000:fff88000       .debug$S                   10000000     kernel32:KERNEL32.dll
 0000:fff88000       .debug$S                   10000000     kernel32:KERNEL32.dll
 0000:fff88000       .debug$S                   10000000     kernel32:KERNEL32.dll
 0000:fff88000       .debug$S                   10000000     kernel32:KERNEL32.dll
 0000:fff88000       .debug$S                   10000000     kernel32:KERNEL32.dll
 0000:fff88000       .debug$S                   10000000     kernel32:KERNEL32.dll
 0000:fff88000       .debug$S                   10000000     kernel32:KERNEL32.dll
 0000:fff88000       .debug$S                   10000000     kernel32:KERNEL32.dll
 0000:fff88000       .debug$S                   10000000     kernel32:KERNEL32.dll
 0000:fff88000       .debug$S                   10000000     kernel32:KERNEL32.dll
 0000:fff88000       .debug$S                   10000000     kernel32:KERNEL32.dll
 0000:fff88000       .debug$S                   10000000     kernel32:KERNEL32.dll
 0000:fff88000       .debug$S                   10000000     kernel32:KERNEL32.dll
 0000:fff88000       .debug$S                   10000000     kernel32:KERNEL32.dll
 0000:fff88000       .debug$S                   10000000     kernel32:KERNEL32.dll
 0000:fff88000       .debug$S                   10000000     kernel32:KERNEL32.dll
 0000:fff88000       .debug$S                   10000000     kernel32:KERNEL32.dll
 0000:fff88000       .debug$S                   10000000     kernel32:KERNEL32.dll
 0000:fff88000       .debug$S                   10000000     kernel32:KERNEL32.dll
 0000:fff88000       .debug$S                   10000000     kernel32:KERNEL32.dll
 0000:fff88000       .debug$S                   10000000     kernel32:KERNEL32.dll
 0000:fff88000       .debug$S                   10000000     kernel32:KERNEL32.dll
 0000:fff88000       .debug$S                   10000000     kernel32:KERNEL32.dll
 0000:fff88000       .debug$S                   10000000     kernel32:KERNEL32.dll
 0000:fff88000       .debug$S                   10000000     kernel32:KERNEL32.dll
 0000:fff88000       .debug$S                   10000000     kernel32:KERNEL32.dll
 0000:fff88000       .debug$S                   10000000     kernel32:KERNEL32.dll
 0000:fff88000       .debug$S                   10000000     kernel32:KERNEL32.dll
 0000:fff88000       .debug$S                   10000000     kernel32:KERNEL32.dll
 0000:fff88000       .debug$S                   10000000     kernel32:KERNEL32.dll
 0002:fffa7008       __ehfuncinfo$??$construct@U_Container_proxy@std@@U12@@?$allocator@U_Container_proxy@std@@@std@@QAEXPAU_Container_proxy@1@$$QAU21@@Z 10000008     libcpmtd:xthrow.obj
 0001:fffff008       __ehhandler$??0?$basic_string@DU?$char_traits@D@std@@V?$allocator@D@2@@std@@QAE@PBD@Z 10000008 f   libcpmtd:syserror.obj
 0002:fffa7008       __ehfuncinfo$??$construct@PADAAPAD@?$allocator@D@std@@QAEXPAPADAAPAD@Z 10000008     libcpmtd:syserror.obj
 0002:fffa7008       __ehfuncinfo$??$construct@U_Container_proxy@std@@U12@@?$allocator@U_Container_proxy@std@@@std@@QAEXPAU_Container_proxy@1@$$QAU21@@Z 10000008     libcpmtd:syserror.obj
 0002:fffa7008       __ehfuncinfo$??0?$_String_alloc@$0A@U?$_String_base_types@DV?$allocator@D@std@@@std@@@std@@QAE@ABV?$allocator@D@1@@Z 10000008     libcpmtd:syserror.obj
 0002:fffa7008       __ehfuncinfo$??0?$basic_string@DU?$char_traits@D@std@@V?$allocator@D@2@@std@@QAE@PBD@Z 10000008     libcpmtd:syserror.obj
 0001:fffff008       __ehhandler$??0?$_String_alloc@$0A@U?$_String_base_types@DV?$allocator@D@std@@@std@@@std@@QAE@ABV?$allocator@D@1@@Z 10000008 f   libcpmtd:syserror.obj
 0002:fffa7010       __catchsym$?_Copy@?$basic_string@DU?$char_traits@D@std@@V?$allocator@D@2@@std@@QAEXII@Z$4 10000010     libcpmtd:syserror.obj
 0001:fffff011       __ehhandler$??$construct@U_Container_proxy@std@@U12@@?$allocator@U_Container_proxy@std@@@std@@QAEXPAU_Container_proxy@1@$$QAU21@@Z 10000011 f   libcpmtd:xthrow.obj
 0001:fffff011       __ehhandler$??$construct@PADAAPAD@?$allocator@D@std@@QAEXPAPADAAPAD@Z 10000011 f   libcpmtd:syserror.obj
 0001:fffff011       __ehhandler$??$construct@U_Container_proxy@std@@U12@@?$allocator@U_Container_proxy@std@@@std@@QAEXPAU_Container_proxy@1@$$QAU21@@Z 10000011 f   libcpmtd:syserror.obj
 0002:fffa7020       __unwindtable$?_Copy@?$basic_string@DU?$char_traits@D@std@@V?$allocator@D@2@@std@@QAEXII@Z 10000020     libcpmtd:syserror.obj
 0002:fffa7040       __ehfuncinfo$?_Copy@?$basic_string@DU?$char_traits@D@std@@V?$allocator@D@2@@std@@QAEXII@Z 10000040     libcpmtd:syserror.obj
 0002:fffa7064       __tryblocktable$?_Copy@?$basic_string@DU?$char_traits@D@std@@V?$allocator@D@2@@std@@QAEXII@Z 10000064     libcpmtd:syserror.obj
 0001:fffff0cf       __catch$?_Copy@?$basic_string@DU?$char_traits@D@std@@V?$allocator@D@2@@std@@QAEXII@Z$0 100000cf f   libcpmtd:syserror.obj
 0001:fffff105       __catch$?_Copy@?$basic_string@DU?$char_traits@D@std@@V?$allocator@D@2@@std@@QAEXII@Z$1 10000105 f   libcpmtd:syserror.obj
 0001:00000000       ??__E_Tuple_alloc@std@@YAXXZ 10001000 f   capldll.obj
 0001:00000010       ??__Eallocator_arg@std@@YAXXZ 10001010 f   capldll.obj
 0001:00000020       ??__EgCaplMap@@YAXXZ       10001020 f   capldll.obj
 0001:00000040       ??__EgServiceMap@@YAXXZ    10001040 f   capldll.obj
 0001:00000060       ??__Eignore@std@@YAXXZ     10001060 f   capldll.obj
 0001:00000070       ??__Epiecewise_construct@std@@YAXXZ 10001070 f   capldll.obj
 0001:00000080       ??__Einitlocks@std@@YAXXZ  10001080 f   libcpmtd:xlock.obj
 0001:000000a0       ??__E?_Generic_object@?$_Error_objects@H@std@@2V_Generic_error_category@2@A@@YAXXZ 100010a0 f   libcpmtd:xthrow.obj
 0001:000000c0       ??__E?_Iostream_object@?$_Error_objects@H@std@@2V_Iostream_error_category@2@A@@YAXXZ 100010c0 f   libcpmtd:xthrow.obj
 0001:000000e0       ??__E?_System_object@?$_Error_objects@H@std@@2V_System_error_category@2@A@@YAXXZ 100010e0 f   libcpmtd:xthrow.obj
 0001:00000100       ??__E?id@?$num_put@DV?$back_insert_iterator@V?$basic_string@DU?$char_traits@D@std@@V?$allocator@D@2@@std@@@std@@@std@@2V0locale@2@A@@YAXXZ 10001100 f   libcpmtd:xthrow.obj
 0001:00000120       ??__E?id@?$num_put@_WV?$back_insert_iterator@V?$basic_string@_WU?$char_traits@_W@std@@V?$allocator@_W@2@@std@@@std@@@std@@2V0locale@2@A@@YAXXZ 10001120 f   libcpmtd:xthrow.obj
 0001:00000140       ??__E?id@?$numpunct@D@std@@2V0locale@2@A@@YAXXZ 10001140 f   libcpmtd:xthrow.obj
 0001:00000160       ??__E?id@?$numpunct@_W@std@@2V0locale@2@A@@YAXXZ 10001160 f   libcpmtd:xthrow.obj
 0001:00000180       ??__E_Tuple_alloc@std@@YAXXZ 10001180 f   libcpmtd:xthrow.obj
 0001:00000190       ??__Eallocator_arg@std@@YAXXZ 10001190 f   libcpmtd:xthrow.obj
 0001:000001a0       ??__Eignore@std@@YAXXZ     100011a0 f   libcpmtd:xthrow.obj
 0001:000001b0       ??__Epiecewise_construct@std@@YAXXZ 100011b0 f   libcpmtd:xthrow.obj
 0001:000001c0       ??__E?_Generic_object@?$_Error_objects@H@std@@2V_Generic_error_category@2@A@@YAXXZ 100011c0 f   libcpmtd:syserror.obj
 0001:000001e0       ??__E?_Iostream_object@?$_Error_objects@H@std@@2V_Iostream_error_category@2@A@@YAXXZ 100011e0 f   libcpmtd:syserror.obj
 0001:00000200       ??__E?_System_object@?$_Error_objects@H@std@@2V_System_error_category@2@A@@YAXXZ 10001200 f   libcpmtd:syserror.obj
 0001:00000220       ??__Eallocator_arg@std@@YAXXZ 10001220 f   libcpmtd:syserror.obj
 0001:00000230       ??__Epiecewise_construct@std@@YAXXZ 10001230 f   libcpmtd:syserror.obj
 0001:00000700       ?sCheckParams@@YA_NPAVVIACaplFunction@@DPAD@Z 10001700 f   capldll.obj
 0001:000007c0       ?sGetCaplFunc@@YAPAVVIACaplFunction@@PAVVIACapl@@PBDDPAD@Z 100017c0 f   capldll.obj
 0001:00000a0f       __catch$?appInit@@YGXK@Z$0 10001a0f f   capldll.obj
 0001:000015fd       __catch$??$_Buynode@ABUpiecewise_construct_t@std@@V?$tuple@ABK@2@V?$tuple@$$$V@2@@?$_Tree_buy@U?$pair@$$CBKPAVCaplInstanceData@@@std@@V?$allocator@U?$pair@$$CBKPAVCaplInstanceData@@@std@@@2@@std@@QAEPAU?$_Tree_node@U?$pair@$$CBKPAVCaplInstanceData@@@std@@PAX@1@ABUpiecewise_construct_t@1@$$QAV?$tuple@ABK@1@$$QAV?$tuple@$$$V@1@@Z$0 100025fd f i capldll.obj
 0001:0000170d       __catch$??$_Buynode@ABUpiecewise_construct_t@std@@V?$tuple@ABK@2@V?$tuple@$$$V@2@@?$_Tree_buy@U?$pair@$$CBKPAVVIACapl@@@std@@V?$allocator@U?$pair@$$CBKPAVVIACapl@@@std@@@2@@std@@QAEPAU?$_Tree_node@U?$pair@$$CBKPAVVIACapl@@@std@@PAX@1@ABUpiecewise_construct_t@1@$$QAV?$tuple@ABK@1@$$QAV?$tuple@$$$V@1@@Z$0 1000270d f i capldll.obj
 0001:000031b4       __catch$??$_Insert_hint@AAU?$pair@$$CBKPAVCaplInstanceData@@@std@@PAU?$_Tree_node@U?$pair@$$CBKPAVCaplInstanceData@@@std@@PAX@2@@?$_Tree@V?$_Tmap_traits@KPAVCaplInstanceData@@U?$less@K@std@@V?$allocator@U?$pair@$$CBKPAVCaplInstanceData@@@std@@@3@$0A@@std@@@std@@IAE?AV?$_Tree_iterator@V?$_Tree_val@U?$_Tree_simple_types@U?$pair@$$CBKPAVCaplInstanceData@@@std@@@std@@@std@@@1@V?$_Tree_const_iterator@V?$_Tree_val@U?$_Tree_simple_types@U?$pair@$$CBKPAVCaplInstanceData@@@std@@@std@@@std@@@1@AAU?$pair@$$CBKPAVCaplInstanceData@@@1@PAU?$_Tree_node@U?$pair@$$CBKPAVCaplInstanceData@@@std@@PAX@1@@Z$0 100041b4 f i capldll.obj
 0001:00004294       __catch$??$_Insert_hint@AAU?$pair@$$CBKPAVVIACapl@@@std@@PAU?$_Tree_node@U?$pair@$$CBKPAVVIACapl@@@std@@PAX@2@@?$_Tree@V?$_Tmap_traits@KPAVVIACapl@@U?$less@K@std@@V?$allocator@U?$pair@$$CBKPAVVIACapl@@@std@@@3@$0A@@std@@@std@@IAE?AV?$_Tree_iterator@V?$_Tree_val@U?$_Tree_simple_types@U?$pair@$$CBKPAVVIACapl@@@std@@@std@@@std@@@1@V?$_Tree_const_iterator@V?$_Tree_val@U?$_Tree_simple_types@U?$pair@$$CBKPAVVIACapl@@@std@@@std@@@std@@@1@AAU?$pair@$$CBKPAVVIACapl@@@1@PAU?$_Tree_node@U?$pair@$$CBKPAVVIACapl@@@std@@PAX@1@@Z$0 10005294 f i capldll.obj
 0001:000047d2       __catch$??$_Insert_nohint@AAU?$pair@$$CBKPAVCaplInstanceData@@@std@@PAU?$_Tree_node@U?$pair@$$CBKPAVCaplInstanceData@@@std@@PAX@2@@?$_Tree@V?$_Tmap_traits@KPAVCaplInstanceData@@U?$less@K@std@@V?$allocator@U?$pair@$$CBKPAVCaplInstanceData@@@std@@@3@$0A@@std@@@std@@IAE?AU?$pair@V?$_Tree_iterator@V?$_Tree_val@U?$_Tree_simple_types@U?$pair@$$CBKPAVCaplInstanceData@@@std@@@std@@@std@@@std@@_N@1@_NAAU?$pair@$$CBKPAVCaplInstanceData@@@1@PAU?$_Tree_node@U?$pair@$$CBKPAVCaplInstanceData@@@std@@PAX@1@@Z$0 100057d2 f i capldll.obj
 0001:00004c92       __catch$??$_Insert_nohint@AAU?$pair@$$CBKPAVVIACapl@@@std@@PAU?$_Tree_node@U?$pair@$$CBKPAVVIACapl@@@std@@PAX@2@@?$_Tree@V?$_Tmap_traits@KPAVVIACapl@@U?$less@K@std@@V?$allocator@U?$pair@$$CBKPAVVIACapl@@@std@@@3@$0A@@std@@@std@@IAE?AU?$pair@V?$_Tree_iterator@V?$_Tree_val@U?$_Tree_simple_types@U?$pair@$$CBKPAVVIACapl@@@std@@@std@@@std@@@std@@_N@1@_NAAU?$pair@$$CBKPAVVIACapl@@@1@PAU?$_Tree_node@U?$pair@$$CBKPAVVIACapl@@@std@@PAX@1@@Z$0 10005c92 f i capldll.obj
 0001:000058c8       __catch$??0?$_Tree_alloc@$0A@U?$_Tree_base_types@U?$pair@$$CBKPAVCaplInstanceData@@@std@@V?$allocator@U?$pair@$$CBKPAVCaplInstanceData@@@std@@@2@@std@@@std@@QAE@ABV?$allocator@U?$pair@$$CBKPAVCaplInstanceData@@@std@@@1@@Z$0 100068c8 f i capldll.obj
 0001:00005978       __catch$??0?$_Tree_alloc@$0A@U?$_Tree_base_types@U?$pair@$$CBKPAVVIACapl@@@std@@V?$allocator@U?$pair@$$CBKPAVVIACapl@@@std@@@2@@std@@@std@@QAE@ABV?$allocator@U?$pair@$$CBKPAVVIACapl@@@std@@@1@@Z$0 10006978 f i capldll.obj
 0001:00007685       __catch$?_Buyheadnode@?$_Tree_alloc@$0A@U?$_Tree_base_types@U?$pair@$$CBKPAVCaplInstanceData@@@std@@V?$allocator@U?$pair@$$CBKPAVCaplInstanceData@@@std@@@2@@std@@@std@@QAEPAU?$_Tree_node@U?$pair@$$CBKPAVCaplInstanceData@@@std@@PAX@2@XZ$0 10008685 f i capldll.obj
 0001:000077e5       __catch$?_Buyheadnode@?$_Tree_alloc@$0A@U?$_Tree_base_types@U?$pair@$$CBKPAVVIACapl@@@std@@V?$allocator@U?$pair@$$CBKPAVVIACapl@@@std@@@2@@std@@@std@@QAEPAU?$_Tree_node@U?$pair@$$CBKPAVVIACapl@@@std@@PAX@2@XZ$0 100087e5 f i capldll.obj
 0001:0000794e       __catch$?_Buynode0@?$_Tree_buy@U?$pair@$$CBKPAVCaplInstanceData@@@std@@V?$allocator@U?$pair@$$CBKPAVCaplInstanceData@@@std@@@2@@std@@QAEPAU?$_Tree_node@U?$pair@$$CBKPAVCaplInstanceData@@@std@@PAX@2@XZ$0 1000894e f i capldll.obj
 0001:00007a9e       __catch$?_Buynode0@?$_Tree_buy@U?$pair@$$CBKPAVVIACapl@@@std@@V?$allocator@U?$pair@$$CBKPAVVIACapl@@@std@@@2@@std@@QAEPAU?$_Tree_node@U?$pair@$$CBKPAVVIACapl@@@std@@PAX@2@XZ$0 10008a9e f i capldll.obj
 0001:0000bfdf       __catch$?_Copy@?$basic_string@DU?$char_traits@D@std@@V?$allocator@D@2@@std@@QAEXII@Z$0 1000cfdf f i libcpmtd:xthrow.obj
 0001:0000c015       __catch$?_Copy@?$basic_string@DU?$char_traits@D@std@@V?$allocator@D@2@@std@@QAEXII@Z$1 1000d015 f i libcpmtd:xthrow.obj
 0001:0000c37c       $LN21                      1000d37c     libcpmtd:xthrow.obj
 0001:0000d070       __onexit_nolock            1000e070 f   LIBCMTD:onexit.obj
 0001:0000d4b0       $$000000                   1000e4b0     LIBCMTD:memcpy.obj
 0001:0000d700       LeadUpVec                  1000e700     LIBCMTD:memcpy.obj
 0001:0000d77c       UnwindUpVec                1000e77c     LIBCMTD:memcpy.obj
 0001:0000d7e8       TrailUpVec                 1000e7e8     LIBCMTD:memcpy.obj
 0001:0000d88c       LeadDownVec                1000e88c     LIBCMTD:memcpy.obj
 0001:0000d918       UnwindDownVec              1000e918     LIBCMTD:memcpy.obj
 0001:0000d984       TrailDownVec               1000e984     LIBCMTD:memcpy.obj
 0001:0000de00       $$000000                   1000ee00     LIBCMTD:strlen.obj
 0001:0000e810       __hypothlp                 1000f810 f   LIBCMTD:hypot.obj
 0001:0000f530       ?CatchGuardHandler@@YA?AW4_EXCEPTION_DISPOSITION@@PAUEHExceptionRecord@@PAUCatchGuardRN@@PAX2@Z 10010530 f   LIBCMTD:_trnsctrl_.obj
 0001:0000f580       ?TranslatorGuardHandler@@YA?AW4_EXCEPTION_DISPOSITION@@PAUEHExceptionRecord@@PAUTranslatorGuardRN@@PAX2@Z 10010580 f   LIBCMTD:_trnsctrl_.obj
 0001:0000fff0       ___DllMainCRTStartup       10010ff0 f   LIBCMTD:dllcrt0.obj
 0001:00010560       $$000000                   10011560     LIBCMTD:memmove.obj
 0001:000107b0       LeadUpVec                  100117b0     LIBCMTD:memmove.obj
 0001:0001082c       UnwindUpVec                1001182c     LIBCMTD:memmove.obj
 0001:00010898       TrailUpVec                 10011898     LIBCMTD:memmove.obj
 0001:0001093c       LeadDownVec                1001193c     LIBCMTD:memmove.obj
 0001:000109c8       UnwindDownVec              100119c8     LIBCMTD:memmove.obj
 0001:00010a34       TrailDownVec               10011a34     LIBCMTD:memmove.obj
 0001:00011010       ___IsPackagedAppHelper     10012010 f   LIBCMTD:winapisupp.obj
 0001:00011d80       ?_CrtMemDumpAllObjectsSince_stat@@YAXPBU_CrtMemState@@PAUlocaleinfo_struct@@@Z 10012d80 f   LIBCMTD:dbgheap.obj
 0001:00012090       ?__crtIsBadReadPtr@@YAHPBXI@Z 10013090 f   LIBCMTD:dbgheap.obj
 0001:000121c0       _CheckBytes                100131c0 f   LIBCMTD:dbgheap.obj
 0001:00012654       $LN51                      10013654     LIBCMTD:dbgheap.obj
 0001:000144e0       __heap_alloc_dbg_impl      100154e0 f   LIBCMTD:dbgheap.obj
 0001:00014b80       __nh_malloc_dbg_impl       10015b80 f   LIBCMTD:dbgheap.obj
 0001:00014c00       __printMemBlockData        10015c00 f   LIBCMTD:dbgheap.obj
 0001:00014f30       _realloc_help              10015f30 f   LIBCMTD:dbgheap.obj
 0001:00015540       _ValidateLocalCookies      10016540 f   LIBCMTD:chandler4.obj
 0001:00016160       __initterm                 10017160 f   LIBCMTD:crt0dat.obj
 0001:000161f0       _doexit                    100171f0 f   LIBCMTD:crt0dat.obj
 0001:00016420       $$000000                   10017420     LIBCMTD:memset.obj
 0001:000169f0       ?x_ismbbtype_l@@YAHPAUlocaleinfo_struct@@IHH@Z 100179f0 f   LIBCMTD:ismbbyte.obj
 0001:00018e50       $LN171                     10019e50     LIBCMTD:output.obj
 0001:00018e70       $LN172                     10019e70     LIBCMTD:output.obj
 0001:00018e88       $LN167                     10019e88     LIBCMTD:output.obj
 0001:00018e9c       $LN173                     10019e9c     LIBCMTD:output.obj
 0001:00018eb0       $LN168                     10019eb0     LIBCMTD:output.obj
 0001:00018ee0       $LN174                     10019ee0     LIBCMTD:output.obj
 0001:00018f1c       $LN169                     10019f1c     LIBCMTD:output.obj
 0001:00018fc0       _write_char                10019fc0 f   LIBCMTD:output.obj
 0001:00019060       _write_multi_char          1001a060 f   LIBCMTD:output.obj
 0001:000190a0       _write_string              1001a0a0 f   LIBCMTD:output.obj
 0001:00019160       $$000000                   1001a160     LIBCMTD:sqrt.obj
 0001:00019710       __get_fname                1001a710 f   LIBCMTD:fpexcept.obj
 0001:0001a0e4       $LN55                      1001b0e4     LIBCMTD:fpexcept.obj
 0001:0001b230       _ctrlevent_capture@4       1001c230 f   LIBCMTD:winsig.obj
 0001:0001b62c       $LN41                      1001c62c     LIBCMTD:winsig.obj
 0001:0001b644       $LN39                      1001c644     LIBCMTD:winsig.obj
 0001:0001b660       _siglookup                 1001c660 f   LIBCMTD:winsig.obj
 0001:0001ba24       $LN49                      1001ca24     LIBCMTD:winsig.obj
 0001:0001ba38       $LN46                      1001ca38     LIBCMTD:winsig.obj
 0001:0001ba50       $LN50                      1001ca50     LIBCMTD:winsig.obj
 0001:0001ba58       $LN47                      1001ca58     LIBCMTD:winsig.obj
 0001:0001d230       $$000000                   1001e230     LIBCMTD:chkstk.obj
 0001:0001d7d0       $$000000                   1001e7d0     LIBCMTD:lowhelpr.obj
 0001:0001db50       ?CallCatchBlock@@YAPAXPAUEHExceptionRecord@@PAUEHRegistrationNode@@PAU_CONTEXT@@PBU_s_FuncInfo@@PAXHK@Z 1001eb50 f   LIBCMTD:frame.obj
 0001:0001dde0       ?CallUnexpected@@YAXPBU_s_ESTypeList@@@Z 1001ede0 f   LIBCMTD:frame.obj
 0001:0001de2a       __catch$?CallUnexpected@@YAXPBU_s_ESTypeList@@@Z$0 1001ee2a f   LIBCMTD:frame.obj
 0001:0001de70       ?CatchIt@@YAXPAUEHExceptionRecord@@PAUEHRegistrationNode@@PAU_CONTEXT@@PAXPBU_s_FuncInfo@@PBU_s_HandlerType@@PBU_s_CatchableType@@PBU_s_TryBlockMapEntry@@H1E@Z 1001ee70 f   LIBCMTD:frame.obj
 0001:0001df30       ?ExFilterRethrow@@YAHPAU_EXCEPTION_POINTERS@@@Z 1001ef30 f   LIBCMTD:frame.obj
 0001:0001dfa0       ?FindHandler@@YAXPAUEHExceptionRecord@@PAUEHRegistrationNode@@PAU_CONTEXT@@PAXPBU_s_FuncInfo@@EH1@Z 1001efa0 f   LIBCMTD:frame.obj
 0001:0001e470       ?FindHandlerForForeignException@@YAXPAUEHExceptionRecord@@PAUEHRegistrationNode@@PAU_CONTEXT@@PAXPBU_s_FuncInfo@@HH1@Z 1001f470 f   LIBCMTD:frame.obj
 0001:0001e600       ?IsInExceptionSpec@@YAEPAUEHExceptionRecord@@PBU_s_ESTypeList@@@Z 1001f600 f   LIBCMTD:frame.obj
 0001:0001e6c0       ?Is_bad_exception_allowed@@YAEPBU_s_ESTypeList@@@Z 1001f6c0 f   LIBCMTD:frame.obj
 0001:0001f6f0       $$000000                   100206f0     LIBCMTD:strcmp.obj
 0001:000207e0       __cftoe2_l                 100217e0 f   LIBCMTD:cvt.obj
 0001:00020e40       __cftof2_l                 10021e40 f   LIBCMTD:cvt.obj
 0001:00021860       __shift                    10022860 f   LIBCMTD:cvt.obj
 0001:00021b40       _xcptlookup                10022b40 f   LIBCMTD:winxfltr.obj
 0001:000222f0       _parse_cmdline             100232f0 f   LIBCMTD:stdargv.obj
 0001:00023930       ?CPtoLocaleName@@YAPB_WH@Z 10024930 f   LIBCMTD:mbctype.obj
 0001:000239a4       $LN10                      100249a4     LIBCMTD:mbctype.obj
 0001:000239b8       $LN9                       100249b8     LIBCMTD:mbctype.obj
 0001:000239d0       ?getSystemCP@@YAHH@Z       100249d0 f   LIBCMTD:mbctype.obj
 0001:00023ae0       ?setSBCS@@YAXPAUthreadmbcinfostruct@@@Z 10024ae0 f   LIBCMTD:mbctype.obj
 0001:00023bc0       ?setSBUpLow@@YAXPAUthreadmbcinfostruct@@@Z 10024bc0 f   LIBCMTD:mbctype.obj
 0001:00024be0       __is_LFH_enabled           10025be0 f   LIBCMTD:expand.obj
 0001:00025ba0       $$000000                   10026ba0     LIBCMTD:exsup4.obj
 0001:00025c30       __unwind_handler4          10026c30 f   LIBCMTD:exsup4.obj
 0001:00026350       _flsall                    10027350 f   LIBCMTD:fflush.obj
 0001:00027bf8       $LN180                     10028bf8     LIBCMTD:outputs.obj
 0001:00027c18       $LN181                     10028c18     LIBCMTD:outputs.obj
 0001:00027c30       $LN176                     10028c30     LIBCMTD:outputs.obj
 0001:00027c44       $LN182                     10028c44     LIBCMTD:outputs.obj
 0001:00027c58       $LN177                     10028c58     LIBCMTD:outputs.obj
 0001:00027c88       $LN183                     10028c88     LIBCMTD:outputs.obj
 0001:00027cc4       $LN178                     10028cc4     LIBCMTD:outputs.obj
 0001:00027d00       _write_char                10028d00 f   LIBCMTD:outputs.obj
 0001:00027da0       _write_multi_char          10028da0 f   LIBCMTD:outputs.obj
 0001:00027de0       _write_string              10028de0 f   LIBCMTD:outputs.obj
 0001:0002bb84       $LN424                     1002cb84     LIBCMTD:outputp.obj
 0001:0002bba4       $LN425                     1002cba4     LIBCMTD:outputp.obj
 0001:0002bbbc       $LN420                     1002cbbc     LIBCMTD:outputp.obj
 0001:0002bbd0       $LN426                     1002cbd0     LIBCMTD:outputp.obj
 0001:0002bbe4       $LN421                     1002cbe4     LIBCMTD:outputp.obj
 0001:0002bc14       $LN427                     1002cc14     LIBCMTD:outputp.obj
 0001:0002bc50       $LN422                     1002cc50     LIBCMTD:outputp.obj
 0001:0002bc88       $LN428                     1002cc88     LIBCMTD:outputp.obj
 0001:0002bfc0       _write_char                1002cfc0 f   LIBCMTD:outputp.obj
 0001:0002c060       _write_multi_char          1002d060 f   LIBCMTD:outputp.obj
 0001:0002c0a0       _write_string              1002d0a0 f   LIBCMTD:outputp.obj
 0001:0002ce80       $$000000                   1002de80     LIBCMTD:ulldiv.obj
 0001:0002cef0       $$000000                   1002def0     LIBCMTD:ullrem.obj
 0001:0002cf70       $$000000                   1002df70     LIBCMTD:87disp.obj
 0001:0002d140       $$000000                   1002e140     LIBCMTD:genexcep.obj
 0001:0002d1a0       $$000000                   1002e1a0     LIBCMTD:common.obj
 0001:0002f4f0       $LN160                     100304f0     LIBCMTD:woutput.obj
 0001:0002f510       $LN161                     10030510     LIBCMTD:woutput.obj
 0001:0002f528       $LN156                     10030528     LIBCMTD:woutput.obj
 0001:0002f53c       $LN162                     1003053c     LIBCMTD:woutput.obj
 0001:0002f550       $LN157                     10030550     LIBCMTD:woutput.obj
 0001:0002f580       $LN163                     10030580     LIBCMTD:woutput.obj
 0001:0002f5bc       $LN158                     100305bc     LIBCMTD:woutput.obj
 0001:0002f600       _write_char                10030600 f   LIBCMTD:woutput.obj
 0001:0002f660       _write_multi_char          10030660 f   LIBCMTD:woutput.obj
 0001:0002f6a0       _write_string              100306a0 f   LIBCMTD:woutput.obj
 0001:0002ff70       @x64toa_s@24               10030f70 f   LIBCMTD:xtoas.obj
 0001:000304d0       _xtoa_s@20                 100314d0 f   LIBCMTD:xtoas.obj
 0001:000310a0       ?wcsncnt@@YAIPB_WI@Z       100320a0 f   LIBCMTD:wcstombs.obj
 0001:000319e0       @x64tow_s@24               100329e0 f   LIBCMTD:xtows.obj
 0001:00031f50       _xtow_s@20                 10032f50 f   LIBCMTD:xtows.obj
 0001:00032d30       $$000000                   10033d30     LIBCMTD:exsup.obj
 0001:00032d50       __unwind_handler           10033d50 f   LIBCMTD:exsup.obj
 0001:000374ec       $LN57                      100384ec     LIBCMTD:undname.obj
 0001:00037518       $LN53                      10038518     LIBCMTD:undname.obj
 0001:00037538       $LN58                      10038538     LIBCMTD:undname.obj
 0001:0003756c       $LN54                      1003856c     LIBCMTD:undname.obj
 0001:000375c8       $LN59                      100385c8     LIBCMTD:undname.obj
 0001:000375d8       $LN55                      100385d8     LIBCMTD:undname.obj
 0001:000375f8       $LN60                      100385f8     LIBCMTD:undname.obj
 0001:00037600       $LN56                      10038600     LIBCMTD:undname.obj
 0001:00037788       $LN19                      10038788     LIBCMTD:undname.obj
 0001:000377ac       $LN18                      100387ac     LIBCMTD:undname.obj
 0001:00038820       $LN16                      10039820     LIBCMTD:undname.obj
 0001:00038840       $LN15                      10039840     LIBCMTD:undname.obj
 0001:000389d4       $LN17                      100399d4     LIBCMTD:undname.obj
 0001:000389f4       $LN18                      100399f4     LIBCMTD:undname.obj
 0001:000389fc       $LN16                      100399fc     LIBCMTD:undname.obj
 0001:00039d64       $LN62                      1003ad64     LIBCMTD:undname.obj
 0001:00039d80       $LN59                      1003ad80     LIBCMTD:undname.obj
 0001:00039de0       $LN63                      1003ade0     LIBCMTD:undname.obj
 0001:00039e14       $LN60                      1003ae14     LIBCMTD:undname.obj
 0001:00039e74       $LN64                      1003ae74     LIBCMTD:undname.obj
 0001:00039e88       $LN65                      1003ae88     LIBCMTD:undname.obj
 0001:00039e90       $LN61                      1003ae90     LIBCMTD:undname.obj
 0001:0003a1c8       $LN28                      1003b1c8     LIBCMTD:undname.obj
 0001:0003a1dc       $LN26                      1003b1dc     LIBCMTD:undname.obj
 0001:0003a220       $LN29                      1003b220     LIBCMTD:undname.obj
 0001:0003a244       $LN27                      1003b244     LIBCMTD:undname.obj
 0001:0003abb4       $LN40                      1003bbb4     LIBCMTD:undname.obj
 0001:0003abcc       $LN39                      1003bbcc     LIBCMTD:undname.obj
 0001:0003b924       $LN35                      1003c924     LIBCMTD:undname.obj
 0001:0003b94c       $LN34                      1003c94c     LIBCMTD:undname.obj
 0001:0003b9a4       $LN36                      1003c9a4     LIBCMTD:undname.obj
 0001:0003c594       $LN118                     1003d594     LIBCMTD:undname.obj
 0001:0003c5b0       $LN119                     1003d5b0     LIBCMTD:undname.obj
 0001:0003c5d8       $LN116                     1003d5d8     LIBCMTD:undname.obj
 0001:0003c62c       $LN120                     1003d62c     LIBCMTD:undname.obj
 0001:0003c640       $LN117                     1003d640     LIBCMTD:undname.obj
 0001:0003c694       $LN121                     1003d694     LIBCMTD:undname.obj
 0001:0003d0d0       ?und_memcpy@@YAXPADPBDI@Z  1003e0d0 f   LIBCMTD:undname.obj
 0001:0003d110       ?und_strlen@@YAIPBD@Z      1003e110 f   LIBCMTD:undname.obj
 0001:0003d150       ?und_strncmp@@YAIPBD0I@Z   1003e150 f   LIBCMTD:undname.obj
 0001:0003e010       $$000000                   1003f010     LIBCMTD:strrchr.obj
 0001:0003ea10       $$000000                   1003fa10     LIBCMTD:lldiv.obj
 0001:0003eac0       $$000000                   1003fac0     LIBCMTD:llrem.obj
 0001:0003eb80       $$000000                   1003fb80     LIBCMTD:llshl.obj
 0001:0003eba0       $$000000                   1003fba0     LIBCMTD:ullshr.obj
 0001:0003f270       ?__crtGetLocaleInfoA_stat@@YAHPAUlocaleinfo_struct@@PB_WKPADH@Z 10040270 f   LIBCMTD:a_loc.obj
 0001:0003f730       ___crtEnumLocalesProc@4    10040730 f   LIBCMTD:winapinls.obj
 0001:00040210       _fix_grouping              10041210 f   LIBCMTD:initmon.obj
 0001:00040690       _fix_grouping              10041690 f   LIBCMTD:initnum.obj
 0001:00041150       __get_lc_time              10042150 f   LIBCMTD:inittime.obj
 0001:00042090       ?__crtLCMapStringA_stat@@YAHPAUlocaleinfo_struct@@PB_WKPBDHPADHHH@Z 10043090 f   LIBCMTD:a_map.obj
 0001:00042370       ?strncnt@@YAHPBDH@Z        10043370 f   LIBCMTD:a_map.obj
 0001:00042420       ?__crtGetStringTypeA_stat@@YAHPAUlocaleinfo_struct@@KPBDHPAGHH@Z 10043420 f   LIBCMTD:a_str.obj
 0001:00042b38       $LN16                      10043b38     LIBCMTD:wsetloca.obj
 0001:00042b50       __copytlocinfo_nolock      10043b50 f   LIBCMTD:wsetloca.obj
 0001:00043810       __wsetlocale_get_all       10044810 f   LIBCMTD:wsetloca.obj
 0001:00043bd0       __wsetlocale_nolock        10044bd0 f   LIBCMTD:wsetloca.obj
 0001:00044020       __wsetlocale_set_cat       10045020 f   LIBCMTD:wsetloca.obj
 0001:00044600       _sync_legacy_variables_lk  10045600 f   LIBCMTD:wsetloca.obj
 0001:00045e60       ?strtoxl@@YAKPAUlocaleinfo_struct@@PBDPAPBDHH@Z 10046e60 f   LIBCMTD:strtol.obj
 0001:00047274       $LN19                      10048274     LIBCMTD:87except.obj
 0001:0004adfc       $LN398                     1004bdfc     LIBCMTD:woutputp.obj
 0001:0004ae1c       $LN399                     1004be1c     LIBCMTD:woutputp.obj
 0001:0004ae34       $LN394                     1004be34     LIBCMTD:woutputp.obj
 0001:0004ae48       $LN400                     1004be48     LIBCMTD:woutputp.obj
 0001:0004ae5c       $LN395                     1004be5c     LIBCMTD:woutputp.obj
 0001:0004ae8c       $LN401                     1004be8c     LIBCMTD:woutputp.obj
 0001:0004aec8       $LN396                     1004bec8     LIBCMTD:woutputp.obj
 0001:0004af00       $LN402                     1004bf00     LIBCMTD:woutputp.obj
 0001:0004af20       _write_char                1004bf20 f   LIBCMTD:woutputp.obj
 0001:0004af80       _write_multi_char          1004bf80 f   LIBCMTD:woutputp.obj
 0001:0004afc0       _write_string              1004bfc0 f   LIBCMTD:woutputp.obj
 0001:0004c568       $LN169                     1004d568     LIBCMTD:woutputs.obj
 0001:0004c588       $LN170                     1004d588     LIBCMTD:woutputs.obj
 0001:0004c5a0       $LN165                     1004d5a0     LIBCMTD:woutputs.obj
 0001:0004c5b4       $LN171                     1004d5b4     LIBCMTD:woutputs.obj
 0001:0004c5c8       $LN166                     1004d5c8     LIBCMTD:woutputs.obj
 0001:0004c5f8       $LN172                     1004d5f8     LIBCMTD:woutputs.obj
 0001:0004c634       $LN167                     1004d634     LIBCMTD:woutputs.obj
 0001:0004c670       _write_char                1004d670 f   LIBCMTD:woutputs.obj
 0001:0004c6d0       _write_multi_char          1004d6d0 f   LIBCMTD:woutputs.obj
 0001:0004c710       _write_string              1004d710 f   LIBCMTD:woutputs.obj
 0001:0004e798       $LN137                     1004f798     LIBCMTD:strgtold.obj
 0001:0004e7c8       $LN138                     1004f7c8     LIBCMTD:strgtold.obj
 0001:0004e7d8       $LN134                     1004f7d8     LIBCMTD:strgtold.obj
 0001:0004e814       $LN139                     1004f814     LIBCMTD:strgtold.obj
 0001:0004e820       $LN135                     1004f820     LIBCMTD:strgtold.obj
 0001:0004e85c       $LN140                     1004f85c     LIBCMTD:strgtold.obj
 0001:0004e868       $LN136                     1004f868     LIBCMTD:strgtold.obj
 0001:0004ef70       ___abstract_cw_sse2        1004ff70 f   LIBCMTD:ieee87.obj
 0001:0004f0c0       ___abstract_sw_sse2        100500c0 f   LIBCMTD:ieee87.obj
 0001:0004f150       ___clearfp_sse2            10050150 f   LIBCMTD:ieee87.obj
 0001:0004f220       ___control87_sse2          10050220 f   LIBCMTD:ieee87.obj
 0001:0004f2a0       ___fpreset_sse2            100502a0 f   LIBCMTD:ieee87.obj
 0001:0004f2c0       ___hw_cw_sse2              100502c0 f   LIBCMTD:ieee87.obj
 0001:0004f410       ___statusfp_sse2           10050410 f   LIBCMTD:ieee87.obj
 0001:0004f430       __abstract_cw              10050430 f   LIBCMTD:ieee87.obj
 0001:0004f580       __abstract_sw              10050580 f   LIBCMTD:ieee87.obj
 0001:0004f780       __hw_cw                    10050780 f   LIBCMTD:ieee87.obj
 0001:0004fa40       _cmpBYTE                   10050a40 f   LIBCMTD:memcmp.obj
 0001:0004fa70       _cmpDWORD                  10050a70 f   LIBCMTD:memcmp.obj
 0001:0004fb40       _cmpResult                 10050b40 f   LIBCMTD:memcmp.obj
 0001:0004fb70       _cmpWORD                   10050b70 f   LIBCMTD:memcmp.obj
 0001:0004fd94       $LN22                      10050d94     LIBCMTD:memcmp.obj
 0001:0004fdb0       _unaligned_memcmp          10050db0 f   LIBCMTD:memcmp.obj
 0001:00050434       $LN79                      10051434     LIBCMTD:memcmp.obj
 0001:00050650       _GetLocaleNameFromDefault  10051650 f   LIBCMTD:getqloc.obj
 0001:000506f0       _GetLocaleNameFromLangCountry 100516f0 f   LIBCMTD:getqloc.obj
 0001:000507d0       _GetLocaleNameFromLanguage 100517d0 f   LIBCMTD:getqloc.obj
 0001:00050860       _GetPrimaryLen             10051860 f   LIBCMTD:getqloc.obj
 0001:000508e0       _LangCountryEnumProcEx@12  100518e0 f   LIBCMTD:getqloc.obj
 0001:00050e40       _LanguageEnumProcEx@12     10051e40 f   LIBCMTD:getqloc.obj
 0001:00050f80       _ProcessCodePage           10051f80 f   LIBCMTD:getqloc.obj
 0001:00051030       _TestDefaultCountry        10052030 f   LIBCMTD:getqloc.obj
 0001:00051090       _TestDefaultLanguage       10052090 f   LIBCMTD:getqloc.obj
 0001:000510e0       _TranslateName             100520e0 f   LIBCMTD:getqloc.obj
 0001:00051440       _CountryEnumProc@4         10052440 f   LIBCMTD:getqloc_downlevel.obj
 0001:00051580       _GetLcidFromCountry        10052580 f   LIBCMTD:getqloc_downlevel.obj
 0001:000515f0       _GetLcidFromDefault        100525f0 f   LIBCMTD:getqloc_downlevel.obj
 0001:00051630       _GetLcidFromLangCountry    10052630 f   LIBCMTD:getqloc_downlevel.obj
 0001:00051710       _GetLcidFromLanguage       10052710 f   LIBCMTD:getqloc_downlevel.obj
 0001:000517a0       _GetPrimaryLen             100527a0 f   LIBCMTD:getqloc_downlevel.obj
 0001:00051810       _LangCountryEnumProc@4     10052810 f   LIBCMTD:getqloc_downlevel.obj
 0001:00051cb0       _LanguageEnumProc@4        10052cb0 f   LIBCMTD:getqloc_downlevel.obj
 0001:00051e90       _LcidFromHexString         10052e90 f   LIBCMTD:getqloc_downlevel.obj
 0001:00051f20       _ProcessCodePage           10052f20 f   LIBCMTD:getqloc_downlevel.obj
 0001:00051fd0       _TestDefaultCountry        10052fd0 f   LIBCMTD:getqloc_downlevel.obj
 0001:00052020       _TestDefaultLanguage       10053020 f   LIBCMTD:getqloc_downlevel.obj
 0001:000520b0       _TranslateName             100530b0 f   LIBCMTD:getqloc_downlevel.obj
 0001:000531e0       ?wcstoxl@@YAKPB_WPAPB_WHH@Z 100541e0 f   LIBCMTD:wcstol.obj
 0001:00053910       ?strtoxq@@YA_KPAUlocaleinfo_struct@@PBDPAPBDHH@Z 10054910 f   LIBCMTD:strtoq.obj
 0001:000552d0       $$000000                   100562d0     LIBCMTD:llmul.obj
 0001:00055310       ?wcstoxq@@YA_KPAUlocaleinfo_struct@@PB_WPAPB_WHH@Z 10056310 f   LIBCMTD:wcstoq.obj
 0001:00056b5c       $LN137                     10057b5c     LIBCMTD:wstrgtold.obj
 0001:00056b8c       $LN138                     10057b8c     LIBCMTD:wstrgtold.obj
 0001:00056b9c       $LN134                     10057b9c     LIBCMTD:wstrgtold.obj
 0001:00056bd8       $LN139                     10057bd8     LIBCMTD:wstrgtold.obj
 0001:00056be4       $LN135                     10057be4     LIBCMTD:wstrgtold.obj
 0001:00056c20       $LN140                     10057c20     LIBCMTD:wstrgtold.obj
 0001:00056c2c       $LN136                     10057c2c     LIBCMTD:wstrgtold.obj
 0001:00056e40       __unwindfunclet$?GetCaplInstanceData@@YAPAVCaplInstanceData@@K@Z$0 10057e40 f   capldll.obj
 0001:00056e48       __unwindfunclet$?GetCaplInstanceData@@YAPAVCaplInstanceData@@K@Z$1 10057e48 f   capldll.obj
 0001:00056e50       __ehhandler$?GetCaplInstanceData@@YAPAVCaplInstanceData@@K@Z 10057e50 f   capldll.obj
 0001:00056e6b       __unwindfunclet$?appInit@@YGXK@Z$2 10057e6b f   capldll.obj
 0001:00056e73       __unwindfunclet$?appInit@@YGXK@Z$3 10057e73 f   capldll.obj
 0001:00056e7b       __unwindfunclet$?appInit@@YGXK@Z$4 10057e7b f   capldll.obj
 0001:00056e86       __ehhandler$?appInit@@YGXK@Z 10057e86 f   capldll.obj
 0001:00056ea1       __unwindfunclet$?ClearAll@@YAXXZ$0 10057ea1 f   capldll.obj
 0001:00056ea9       __unwindfunclet$?ClearAll@@YAXXZ$1 10057ea9 f   capldll.obj
 0001:00056ec2       __unwindfunclet$?ClearAll@@YAXXZ$2 10057ec2 f   capldll.obj
 0001:00056eca       __ehhandler$?ClearAll@@YAXXZ 10057eca f   capldll.obj
 0001:00056ef0       __unwindfunclet$??$?0AAV?$_Tree_iterator@V?$_Tree_val@U?$_Tree_simple_types@U?$pair@$$CBKPAVCaplInstanceData@@@std@@@std@@@std@@@std@@AAV01@X@?$pair@V?$_Tree_iterator@V?$_Tree_val@U?$_Tree_simple_types@U?$pair@$$CBKPAVCaplInstanceData@@@std@@@std@@@std@@@std@@V12@@std@@QAE@AAV?$_Tree_iterator@V?$_Tree_val@U?$_Tree_simple_types@U?$pair@$$CBKPAVCaplInstanceData@@@std@@@std@@@std@@@1@0@Z$0 10057ef0 f   capldll.obj
 0001:00056ef8       __ehhandler$??$?0AAV?$_Tree_iterator@V?$_Tree_val@U?$_Tree_simple_types@U?$pair@$$CBKPAVCaplInstanceData@@@std@@@std@@@std@@@std@@AAV01@X@?$pair@V?$_Tree_iterator@V?$_Tree_val@U?$_Tree_simple_types@U?$pair@$$CBKPAVCaplInstanceData@@@std@@@std@@@std@@@std@@V12@@std@@QAE@AAV?$_Tree_iterator@V?$_Tree_val@U?$_Tree_simple_types@U?$pair@$$CBKPAVCaplInstanceData@@@std@@@std@@@std@@@1@0@Z 10057ef8 f   capldll.obj
 0001:00056f20       __unwindfunclet$??$?0AAV?$_Tree_iterator@V?$_Tree_val@U?$_Tree_simple_types@U?$pair@$$CBKPAVCaplInstanceData@@@std@@@std@@@std@@@std@@_NX@?$pair@V?$_Tree_iterator@V?$_Tree_val@U?$_Tree_simple_types@U?$pair@$$CBKPAVCaplInstanceData@@@std@@@std@@@std@@@std@@_N@std@@QAE@AAV?$_Tree_iterator@V?$_Tree_val@U?$_Tree_simple_types@U?$pair@$$CBKPAVCaplInstanceData@@@std@@@std@@@std@@@1@$$QA_N@Z$0 10057f20 f   capldll.obj
 0001:00056f28       __ehhandler$??$?0AAV?$_Tree_iterator@V?$_Tree_val@U?$_Tree_simple_types@U?$pair@$$CBKPAVCaplInstanceData@@@std@@@std@@@std@@@std@@_NX@?$pair@V?$_Tree_iterator@V?$_Tree_val@U?$_Tree_simple_types@U?$pair@$$CBKPAVCaplInstanceData@@@std@@@std@@@std@@@std@@_N@std@@QAE@AAV?$_Tree_iterator@V?$_Tree_val@U?$_Tree_simple_types@U?$pair@$$CBKPAVCaplInstanceData@@@std@@@std@@@std@@@1@$$QA_N@Z 10057f28 f   capldll.obj
 0001:00056f50       __unwindfunclet$??$?0AAV?$_Tree_iterator@V?$_Tree_val@U?$_Tree_simple_types@U?$pair@$$CBKPAVVIACapl@@@std@@@std@@@std@@@std@@_NX@?$pair@V?$_Tree_iterator@V?$_Tree_val@U?$_Tree_simple_types@U?$pair@$$CBKPAVVIACapl@@@std@@@std@@@std@@@std@@_N@std@@QAE@AAV?$_Tree_iterator@V?$_Tree_val@U?$_Tree_simple_types@U?$pair@$$CBKPAVVIACapl@@@std@@@std@@@std@@@1@$$QA_N@Z$0 10057f50 f   capldll.obj
 0001:00056f58       __ehhandler$??$?0AAV?$_Tree_iterator@V?$_Tree_val@U?$_Tree_simple_types@U?$pair@$$CBKPAVVIACapl@@@std@@@std@@@std@@@std@@_NX@?$pair@V?$_Tree_iterator@V?$_Tree_val@U?$_Tree_simple_types@U?$pair@$$CBKPAVVIACapl@@@std@@@std@@@std@@@std@@_N@std@@QAE@AAV?$_Tree_iterator@V?$_Tree_val@U?$_Tree_simple_types@U?$pair@$$CBKPAVVIACapl@@@std@@@std@@@std@@@1@$$QA_N@Z 10057f58 f   capldll.obj
 0001:00056f80       __unwindfunclet$??$?0V?$_Tree_iterator@V?$_Tree_val@U?$_Tree_simple_types@U?$pair@$$CBKPAVCaplInstanceData@@@std@@@std@@@std@@@std@@_NX@?$pair@V?$_Tree_iterator@V?$_Tree_val@U?$_Tree_simple_types@U?$pair@$$CBKPAVCaplInstanceData@@@std@@@std@@@std@@@std@@_N@std@@QAE@$$QAV?$_Tree_iterator@V?$_Tree_val@U?$_Tree_simple_types@U?$pair@$$CBKPAVCaplInstanceData@@@std@@@std@@@std@@@1@$$QA_N@Z$0 10057f80 f   capldll.obj
 0001:00056f88       __ehhandler$??$?0V?$_Tree_iterator@V?$_Tree_val@U?$_Tree_simple_types@U?$pair@$$CBKPAVCaplInstanceData@@@std@@@std@@@std@@@std@@_NX@?$pair@V?$_Tree_iterator@V?$_Tree_val@U?$_Tree_simple_types@U?$pair@$$CBKPAVCaplInstanceData@@@std@@@std@@@std@@@std@@_N@std@@QAE@$$QAV?$_Tree_iterator@V?$_Tree_val@U?$_Tree_simple_types@U?$pair@$$CBKPAVCaplInstanceData@@@std@@@std@@@std@@@1@$$QA_N@Z 10057f88 f   capldll.obj
 0001:00056fb0       __unwindfunclet$??$?0V?$_Tree_iterator@V?$_Tree_val@U?$_Tree_simple_types@U?$pair@$$CBKPAVVIACapl@@@std@@@std@@@std@@@std@@_NX@?$pair@V?$_Tree_iterator@V?$_Tree_val@U?$_Tree_simple_types@U?$pair@$$CBKPAVVIACapl@@@std@@@std@@@std@@@std@@_N@std@@QAE@$$QAV?$_Tree_iterator@V?$_Tree_val@U?$_Tree_simple_types@U?$pair@$$CBKPAVVIACapl@@@std@@@std@@@std@@@1@$$QA_N@Z$0 10057fb0 f   capldll.obj
 0001:00056fb8       __ehhandler$??$?0V?$_Tree_iterator@V?$_Tree_val@U?$_Tree_simple_types@U?$pair@$$CBKPAVVIACapl@@@std@@@std@@@std@@@std@@_NX@?$pair@V?$_Tree_iterator@V?$_Tree_val@U?$_Tree_simple_types@U?$pair@$$CBKPAVVIACapl@@@std@@@std@@@std@@@std@@_N@std@@QAE@$$QAV?$_Tree_iterator@V?$_Tree_val@U?$_Tree_simple_types@U?$pair@$$CBKPAVVIACapl@@@std@@@std@@@std@@@1@$$QA_N@Z 10057fb8 f   capldll.obj
 0001:00056fe0       __ehhandler$??$_Buynode@ABUpiecewise_construct_t@std@@V?$tuple@ABK@2@V?$tuple@$$$V@2@@?$_Tree_buy@U?$pair@$$CBKPAVCaplInstanceData@@@std@@V?$allocator@U?$pair@$$CBKPAVCaplInstanceData@@@std@@@2@@std@@QAEPAU?$_Tree_node@U?$pair@$$CBKPAVCaplInstanceData@@@std@@PAX@1@ABUpiecewise_construct_t@1@$$QAV?$tuple@ABK@1@$$QAV?$tuple@$$$V@1@@Z 10057fe0 f   capldll.obj
 0001:00057000       __ehhandler$??$_Buynode@ABUpiecewise_construct_t@std@@V?$tuple@ABK@2@V?$tuple@$$$V@2@@?$_Tree_buy@U?$pair@$$CBKPAVVIACapl@@@std@@V?$allocator@U?$pair@$$CBKPAVVIACapl@@@std@@@2@@std@@QAEPAU?$_Tree_node@U?$pair@$$CBKPAVVIACapl@@@std@@PAX@1@ABUpiecewise_construct_t@1@$$QAV?$tuple@ABK@1@$$QAV?$tuple@$$$V@1@@Z 10058000 f   capldll.obj
 0001:00057020       __unwindfunclet$??$_Distance2@V?$_Tree_iterator@V?$_Tree_val@U?$_Tree_simple_types@U?$pair@$$CBKPAVCaplInstanceData@@@std@@@std@@@std@@@std@@I@std@@YAXV?$_Tree_iterator@V?$_Tree_val@U?$_Tree_simple_types@U?$pair@$$CBKPAVCaplInstanceData@@@std@@@std@@@std@@@0@0AAIUbidirectional_iterator_tag@0@@Z$0 10058020 f   capldll.obj
 0001:00057028       __unwindfunclet$??$_Distance2@V?$_Tree_iterator@V?$_Tree_val@U?$_Tree_simple_types@U?$pair@$$CBKPAVCaplInstanceData@@@std@@@std@@@std@@@std@@I@std@@YAXV?$_Tree_iterator@V?$_Tree_val@U?$_Tree_simple_types@U?$pair@$$CBKPAVCaplInstanceData@@@std@@@std@@@std@@@0@0AAIUbidirectional_iterator_tag@0@@Z$1 10058028 f   capldll.obj
 0001:00057030       __ehhandler$??$_Distance2@V?$_Tree_iterator@V?$_Tree_val@U?$_Tree_simple_types@U?$pair@$$CBKPAVCaplInstanceData@@@std@@@std@@@std@@@std@@I@std@@YAXV?$_Tree_iterator@V?$_Tree_val@U?$_Tree_simple_types@U?$pair@$$CBKPAVCaplInstanceData@@@std@@@std@@@std@@@0@0AAIUbidirectional_iterator_tag@0@@Z 10058030 f   capldll.obj
 0001:00057050       __unwindfunclet$??$_Distance@V?$_Tree_iterator@V?$_Tree_val@U?$_Tree_simple_types@U?$pair@$$CBKPAVCaplInstanceData@@@std@@@std@@@std@@@std@@I@std@@YAXV?$_Tree_iterator@V?$_Tree_val@U?$_Tree_simple_types@U?$pair@$$CBKPAVCaplInstanceData@@@std@@@std@@@std@@@0@0AAI@Z$0 10058050 f   capldll.obj
 0001:00057058       __unwindfunclet$??$_Distance@V?$_Tree_iterator@V?$_Tree_val@U?$_Tree_simple_types@U?$pair@$$CBKPAVCaplInstanceData@@@std@@@std@@@std@@@std@@I@std@@YAXV?$_Tree_iterator@V?$_Tree_val@U?$_Tree_simple_types@U?$pair@$$CBKPAVCaplInstanceData@@@std@@@std@@@std@@@0@0AAI@Z$1 10058058 f   capldll.obj
 0001:00057060       __unwindfunclet$??$_Distance@V?$_Tree_iterator@V?$_Tree_val@U?$_Tree_simple_types@U?$pair@$$CBKPAVCaplInstanceData@@@std@@@std@@@std@@@std@@I@std@@YAXV?$_Tree_iterator@V?$_Tree_val@U?$_Tree_simple_types@U?$pair@$$CBKPAVCaplInstanceData@@@std@@@std@@@std@@@0@0AAI@Z$2 10058060 f   capldll.obj
 0001:00057068       __ehhandler$??$_Distance@V?$_Tree_iterator@V?$_Tree_val@U?$_Tree_simple_types@U?$pair@$$CBKPAVCaplInstanceData@@@std@@@std@@@std@@@std@@I@std@@YAXV?$_Tree_iterator@V?$_Tree_val@U?$_Tree_simple_types@U?$pair@$$CBKPAVCaplInstanceData@@@std@@@std@@@std@@@0@0AAI@Z 10058068 f   capldll.obj
 0001:00057090       __unwindfunclet$??$_Insert_hint@AAU?$pair@$$CBKPAVCaplInstanceData@@@std@@PAU?$_Tree_node@U?$pair@$$CBKPAVCaplInstanceData@@@std@@PAX@2@@?$_Tree@V?$_Tmap_traits@KPAVCaplInstanceData@@U?$less@K@std@@V?$allocator@U?$pair@$$CBKPAVCaplInstanceData@@@std@@@3@$0A@@std@@@std@@IAE?AV?$_Tree_iterator@V?$_Tree_val@U?$_Tree_simple_types@U?$pair@$$CBKPAVCaplInstanceData@@@std@@@std@@@std@@@1@V?$_Tree_const_iterator@V?$_Tree_val@U?$_Tree_simple_types@U?$pair@$$CBKPAVCaplInstanceData@@@std@@@std@@@std@@@1@AAU?$pair@$$CBKPAVCaplInstanceData@@@1@PAU?$_Tree_node@U?$pair@$$CBKPAVCaplInstanceData@@@std@@PAX@1@@Z$2 10058090 f   capldll.obj
 0001:00057098       __unwindfunclet$??$_Insert_hint@AAU?$pair@$$CBKPAVCaplInstanceData@@@std@@PAU?$_Tree_node@U?$pair@$$CBKPAVCaplInstanceData@@@std@@PAX@2@@?$_Tree@V?$_Tmap_traits@KPAVCaplInstanceData@@U?$less@K@std@@V?$allocator@U?$pair@$$CBKPAVCaplInstanceData@@@std@@@3@$0A@@std@@@std@@IAE?AV?$_Tree_iterator@V?$_Tree_val@U?$_Tree_simple_types@U?$pair@$$CBKPAVCaplInstanceData@@@std@@@std@@@std@@@1@V?$_Tree_const_iterator@V?$_Tree_val@U?$_Tree_simple_types@U?$pair@$$CBKPAVCaplInstanceData@@@std@@@std@@@std@@@1@AAU?$pair@$$CBKPAVCaplInstanceData@@@1@PAU?$_Tree_node@U?$pair@$$CBKPAVCaplInstanceData@@@std@@PAX@1@@Z$3 10058098 f   capldll.obj
 0001:000570a0       __unwindfunclet$??$_Insert_hint@AAU?$pair@$$CBKPAVCaplInstanceData@@@std@@PAU?$_Tree_node@U?$pair@$$CBKPAVCaplInstanceData@@@std@@PAX@2@@?$_Tree@V?$_Tmap_traits@KPAVCaplInstanceData@@U?$less@K@std@@V?$allocator@U?$pair@$$CBKPAVCaplInstanceData@@@std@@@3@$0A@@std@@@std@@IAE?AV?$_Tree_iterator@V?$_Tree_val@U?$_Tree_simple_types@U?$pair@$$CBKPAVCaplInstanceData@@@std@@@std@@@std@@@1@V?$_Tree_const_iterator@V?$_Tree_val@U?$_Tree_simple_types@U?$pair@$$CBKPAVCaplInstanceData@@@std@@@std@@@std@@@1@AAU?$pair@$$CBKPAVCaplInstanceData@@@1@PAU?$_Tree_node@U?$pair@$$CBKPAVCaplInstanceData@@@std@@PAX@1@@Z$5 100580a0 f   capldll.obj
 0001:000570ab       __unwindfunclet$??$_Insert_hint@AAU?$pair@$$CBKPAVCaplInstanceData@@@std@@PAU?$_Tree_node@U?$pair@$$CBKPAVCaplInstanceData@@@std@@PAX@2@@?$_Tree@V?$_Tmap_traits@KPAVCaplInstanceData@@U?$less@K@std@@V?$allocator@U?$pair@$$CBKPAVCaplInstanceData@@@std@@@3@$0A@@std@@@std@@IAE?AV?$_Tree_iterator@V?$_Tree_val@U?$_Tree_simple_types@U?$pair@$$CBKPAVCaplInstanceData@@@std@@@std@@@std@@@1@V?$_Tree_const_iterator@V?$_Tree_val@U?$_Tree_simple_types@U?$pair@$$CBKPAVCaplInstanceData@@@std@@@std@@@std@@@1@AAU?$pair@$$CBKPAVCaplInstanceData@@@1@PAU?$_Tree_node@U?$pair@$$CBKPAVCaplInstanceData@@@std@@PAX@1@@Z$6 100580ab f   capldll.obj
 0001:000570b6       __unwindfunclet$??$_Insert_hint@AAU?$pair@$$CBKPAVCaplInstanceData@@@std@@PAU?$_Tree_node@U?$pair@$$CBKPAVCaplInstanceData@@@std@@PAX@2@@?$_Tree@V?$_Tmap_traits@KPAVCaplInstanceData@@U?$less@K@std@@V?$allocator@U?$pair@$$CBKPAVCaplInstanceData@@@std@@@3@$0A@@std@@@std@@IAE?AV?$_Tree_iterator@V?$_Tree_val@U?$_Tree_simple_types@U?$pair@$$CBKPAVCaplInstanceData@@@std@@@std@@@std@@@1@V?$_Tree_const_iterator@V?$_Tree_val@U?$_Tree_simple_types@U?$pair@$$CBKPAVCaplInstanceData@@@std@@@std@@@std@@@1@AAU?$pair@$$CBKPAVCaplInstanceData@@@1@PAU?$_Tree_node@U?$pair@$$CBKPAVCaplInstanceData@@@std@@PAX@1@@Z$7 100580b6 f   capldll.obj
 0001:000570d2       __unwindfunclet$??$_Insert_hint@AAU?$pair@$$CBKPAVCaplInstanceData@@@std@@PAU?$_Tree_node@U?$pair@$$CBKPAVCaplInstanceData@@@std@@PAX@2@@?$_Tree@V?$_Tmap_traits@KPAVCaplInstanceData@@U?$less@K@std@@V?$allocator@U?$pair@$$CBKPAVCaplInstanceData@@@std@@@3@$0A@@std@@@std@@IAE?AV?$_Tree_iterator@V?$_Tree_val@U?$_Tree_simple_types@U?$pair@$$CBKPAVCaplInstanceData@@@std@@@std@@@std@@@1@V?$_Tree_const_iterator@V?$_Tree_val@U?$_Tree_simple_types@U?$pair@$$CBKPAVCaplInstanceData@@@std@@@std@@@std@@@1@AAU?$pair@$$CBKPAVCaplInstanceData@@@1@PAU?$_Tree_node@U?$pair@$$CBKPAVCaplInstanceData@@@std@@PAX@1@@Z$8 100580d2 f   capldll.obj
 0001:000570dd       __unwindfunclet$??$_Insert_hint@AAU?$pair@$$CBKPAVCaplInstanceData@@@std@@PAU?$_Tree_node@U?$pair@$$CBKPAVCaplInstanceData@@@std@@PAX@2@@?$_Tree@V?$_Tmap_traits@KPAVCaplInstanceData@@U?$less@K@std@@V?$allocator@U?$pair@$$CBKPAVCaplInstanceData@@@std@@@3@$0A@@std@@@std@@IAE?AV?$_Tree_iterator@V?$_Tree_val@U?$_Tree_simple_types@U?$pair@$$CBKPAVCaplInstanceData@@@std@@@std@@@std@@@1@V?$_Tree_const_iterator@V?$_Tree_val@U?$_Tree_simple_types@U?$pair@$$CBKPAVCaplInstanceData@@@std@@@std@@@std@@@1@AAU?$pair@$$CBKPAVCaplInstanceData@@@1@PAU?$_Tree_node@U?$pair@$$CBKPAVCaplInstanceData@@@std@@PAX@1@@Z$9 100580dd f   capldll.obj
